
zt09_rtk_boot.elf:     file format elf32-littleriscv
zt09_rtk_boot.elf
architecture: riscv:rv32, flags 0x00000112:
EXEC_P, HAS_SYMS, D_PAGED
start address 0x00000000

Program Header:
    LOAD off    0x00001000 vaddr 0x00000000 paddr 0x00000000 align 2**12
         filesz 0x00000004 memsz 0x00000004 flags r-x
    LOAD off    0x00002000 vaddr 0x20000000 paddr 0x00000004 align 2**12
         filesz 0x00000958 memsz 0x00000958 flags r-x
    LOAD off    0x00002960 vaddr 0x00000960 paddr 0x00000960 align 2**12
         filesz 0x00008aa4 memsz 0x00008aa4 flags r-x
    LOAD off    0x0000b958 vaddr 0x20000958 paddr 0x00009404 align 2**12
         filesz 0x000001d8 memsz 0x00001154 flags rw-

Sections:
Idx Name          Size      VMA       LMA       File off  Algn
  0 .init         00000004  00000000  00000000  00001000  2**1
                  CONTENTS, ALLOC, LOAD, READONLY, CODE
  1 .highcodelalign 00000000  00000004  00000004  0000bb30  2**0
                  CONTENTS
  2 .highcode     00000958  20000000  00000004  00002000  2**1
                  CONTENTS, ALLOC, LOAD, READONLY, CODE
  3 .text         00008aa4  00000960  00000960  00002960  2**3
                  CONTENTS, ALLOC, LOAD, READONLY, CODE
  4 .fini         00000000  00009404  00009404  0000bb30  2**0
                  CONTENTS, ALLOC, LOAD, CODE
  5 .dalign       00000000  20000958  20000958  0000bb30  2**0
                  CONTENTS
  6 .dlalign      00000000  00009404  00009404  0000bb30  2**0
                  CONTENTS
  7 .data         000001d8  20000958  00009404  0000b958  2**2
                  CONTENTS, ALLOC, LOAD, DATA
  8 .bss          00000f7c  20000b30  000095dc  0000bb30  2**2
                  ALLOC
  9 .stack        00000000  20008000  20008000  0000bb30  2**0
                  CONTENTS
 10 .debug_info   0001536f  00000000  00000000  0000bb30  2**0
                  CONTENTS, READONLY, DEBUGGING
 11 .debug_abbrev 000038e2  00000000  00000000  00020e9f  2**0
                  CONTENTS, READONLY, DEBUGGING
 12 .debug_loc    00004520  00000000  00000000  00024781  2**0
                  CONTENTS, READONLY, DEBUGGING
 13 .debug_aranges 000006c0  00000000  00000000  00028ca8  2**3
                  CONTENTS, READONLY, DEBUGGING
 14 .debug_ranges 00000990  00000000  00000000  00029368  2**3
                  CONTENTS, READONLY, DEBUGGING
 15 .debug_line   0000c624  00000000  00000000  00029cf8  2**0
                  CONTENTS, READONLY, DEBUGGING
 16 .debug_str    0000278e  00000000  00000000  0003631c  2**0
                  CONTENTS, READONLY, DEBUGGING
 17 .comment      00000033  00000000  00000000  00038aaa  2**0
                  CONTENTS, READONLY
 18 .debug_frame  00002180  00000000  00000000  00038ae0  2**2
                  CONTENTS, READONLY, DEBUGGING
 19 .stabstr      00000117  00000000  00000000  0003ac60  2**0
                  CONTENTS, READONLY, DEBUGGING
SYMBOL TABLE:
00000000 l    d  .init	00000000 .init
00000004 l    d  .highcodelalign	00000000 .highcodelalign
20000000 l    d  .highcode	00000000 .highcode
00000960 l    d  .text	00000000 .text
00009404 l    d  .fini	00000000 .fini
20000958 l    d  .dalign	00000000 .dalign
00009404 l    d  .dlalign	00000000 .dlalign
20000958 l    d  .data	00000000 .data
20000b30 l    d  .bss	00000000 .bss
20008000 l    d  .stack	00000000 .stack
00000000 l    d  .debug_info	00000000 .debug_info
00000000 l    d  .debug_abbrev	00000000 .debug_abbrev
00000000 l    d  .debug_loc	00000000 .debug_loc
00000000 l    d  .debug_aranges	00000000 .debug_aranges
00000000 l    d  .debug_ranges	00000000 .debug_ranges
00000000 l    d  .debug_line	00000000 .debug_line
00000000 l    d  .debug_str	00000000 .debug_str
00000000 l    d  .comment	00000000 .comment
00000000 l    d  .debug_frame	00000000 .debug_frame
00000000 l    d  .stabstr	00000000 .stabstr
00000000 l    df *ABS*	00000000 ./Startup/startup_CH583.o
20000000 l       .highcode	00000000 _vector_base
00000000 l    df *ABS*	00000000 app_port.c
00001d32 l     F .text	00000086 postUartRxData
00001db8 l     F .text	00000104 pushUartRxData
20001384 l     O .bss	0000000a uart0RxBuff
20001390 l     O .bss	0000000a uart1RxBuff
2000139c l     O .bss	00000080 uart2RxBuff
2000141c l     O .bss	00000300 uart3RxBuff
20000b4c l     O .bss	00000001 uart0trigB
20000b4d l     O .bss	00000001 uart1trigB
20000b4e l     O .bss	00000001 uart2trigB
20000b4f l     O .bss	00000001 uart3trigB
00000000 l    df *ABS*	00000000 CH58x_sys.c
00000000 l    df *ABS*	00000000 ISP583.c
20000542 l       .highcode	00000000 .loop18
20000550 l       .highcode	00000000 .loop29
2000055e l       .highcode	00000000 .loop40
200007ea l       .highcode	00000000 .loop402
00000000 l    df *ABS*	00000000 app_flash.c
00000000 l    df *ABS*	00000000 app_kernal.c
20000b5c l     O .bss	00000010 timer_list
20000b30 l     O .bss	00000004 systick
20000b34 l     O .bss	00000004 timer_head
00000000 l    df *ABS*	00000000 app_main.c
20000b38 l     O .bss	00000001 flag.4220
00000000 l    df *ABS*	00000000 app_net.c
00000e9c l     F .text	00000022 modulePressPowerKey
00000ebe l     F .text	0000002e modulePressReleaseKey
00000eec l     F .text	00000022 moduleInit
00000fa4 l     F .text	000000b8 createNode
000011aa l     F .text	0000000c moduleExitFly
20000b6c l     O .bss	00000801 dataRestore.4859
20001370 l     O .bss	00000014 moduleState
20000b3c l     O .bss	00000004 headNode
20000b40 l     O .bss	00000002 len.4858
20000b44 l     O .bss	00000008 moduleCtrl
00000000 l    df *ABS*	00000000 app_param.c
00000000 l    df *ABS*	00000000 app_socket.c
00000000 l    df *ABS*	00000000 app_sys.c
2000171c l     O .bss	00000100 LOGDEBUG.4052
00008a80 l     O .text	00000200 ztvm_crctab16
00000000 l    df *ABS*	00000000 app_update.c
000029bc l     F .text	0000003a timeOutCheck
00002d94 l     F .text	00000004 upgradeServerRecv
2000181c l     O .bss	0000000c netconnect
20001828 l     O .bss	000000e0 uis
20000b28 l     O .data	00000001 tick.4414
20000b29 l     O .data	00000001 timeOutId
00000000 l    df *ABS*	00000000 CH58x_clk.c
00000000 l    df *ABS*	00000000 CH58x_gpio.c
00000000 l    df *ABS*	00000000 CH58x_timer0.c
00000000 l    df *ABS*	00000000 CH58x_uart0.c
00000000 l    df *ABS*	00000000 CH58x_uart1.c
00000000 l    df *ABS*	00000000 CH58x_uart2.c
00000000 l    df *ABS*	00000000 CH58x_uart3.c
00000000 l    df *ABS*	00000000 divdf3.c
00000000 l    df *ABS*	00000000 muldf3.c
00000000 l    df *ABS*	00000000 floatunsidf.c
00000000 l    df *ABS*	00000000 libgcc2.c
00000000 l    df *ABS*	00000000 atoi.c
00000000 l    df *ABS*	00000000 malloc.c
00000000 l    df *ABS*	00000000 memcpy.c
00000000 l    df *ABS*	00000000 nano-mallocr.c
00000000 l    df *ABS*	00000000 nano-mallocr.c
00000000 l    df *ABS*	00000000 nano-vfprintf_float.c
00000000 l    df *ABS*	00000000 nano-vfprintf_i.c
00000000 l    df *ABS*	00000000 sbrkr.c
00000000 l    df *ABS*	00000000 snprintf.c
00000000 l    df *ABS*	00000000 sprintf.c
00000000 l    df *ABS*	00000000 strcpy.c
00000000 l    df *ABS*	00000000 strlen.c
00000000 l    df *ABS*	00000000 strncpy.c
00000000 l    df *ABS*	00000000 strstr.c
00000000 l    df *ABS*	00000000 strtol.c
00005450 l     F .text	00000144 _strtol_l.isra.0
00000000 l    df *ABS*	00000000 strtoul.c
000055b6 l     F .text	0000013a _strtoul_l.isra.0
00000000 l    df *ABS*	00000000 vsnprintf.c
00000000 l    df *ABS*	00000000 dtoa.c
00005786 l     F .text	0000013a quorem
00000000 l    df *ABS*	00000000 locale.c
00000000 l    df *ABS*	00000000 localeconv.c
00000000 l    df *ABS*	00000000 mbtowc_r.c
00000000 l    df *ABS*	00000000 memchr.c
00000000 l    df *ABS*	00000000 mlock.c
00000000 l    df *ABS*	00000000 mprec.c
000092e0 l     O .text	0000000c p05.3319
00000000 l    df *ABS*	00000000 nano-mallocr.c
00000000 l    df *ABS*	00000000 nano-vfprintf.c
00000000 l    df *ABS*	00000000 wctomb_r.c
00000000 l    df *ABS*	00000000 memmove.c
00000000 l    df *ABS*	00000000 nano-mallocr.c
00000000 l    df *ABS*	00000000 nano-mallocr.c
00000000 l    df *ABS*	00000000 adddf3.c
00000000 l    df *ABS*	00000000 eqdf2.c
00000000 l    df *ABS*	00000000 gedf2.c
00000000 l    df *ABS*	00000000 ledf2.c
00000000 l    df *ABS*	00000000 subdf3.c
00000000 l    df *ABS*	00000000 unorddf2.c
00000000 l    df *ABS*	00000000 fixdfsi.c
00000000 l    df *ABS*	00000000 floatsidf.c
00000000 l    df *ABS*	00000000 trunctfdf2.c
00000000 l    df *ABS*	00000000 sbrk.c
20000b58 l     O .bss	00000004 heap_end.1518
00000000 l    df *ABS*	00000000 libgcc2.c
00000000 l    df *ABS*	00000000 findfp.c
00000000 l    df *ABS*	00000000 ctype_.c
00000000 l    df *ABS*	00000000 impure.c
20000958 l     O .data	00000060 impure_data
00000000 l    df *ABS*	00000000 reent.c
00000000 l    df *ABS*	00000000 close.c
0000707e g     F .text	00000014 _malloc_usable_size_r
000048ec g     F .text	000000ee __cvt
00001208 g     F .text	0000002a openSocket
00001c44 g     F .text	0000002e paramSaveAll
000038ce g     F .text	0000003a UART1_SendString
20001a1c g     O .bss	00000014 usart2_ctl
000053ca g     F .text	00000012 strcpy
00003a4c g     F .text	00000032 UART3_BaudRateCfg
2000055e g     F .highcode	0000000e FLASH_ROM_OUT
00003a7e g     F .text	00000032 UART3_DefInit
000077c2 g     F .text	0000006a .hidden __eqdf2
00002d98 g     F .text	00000348 protocolSend
00003764 g     F .text	0000001a UART0_ByteTrigCfg
20001328 g       .data	00000000 __global_pointer$
000037f0 g     F .text	0000002a UART0_RecvString
00000ce6 g     F .text	000000ba kernalRun
00000b6a g     F .text	00000106 startTimer
200004fa g     F .highcode	0000000e mDelayuS
200004c0 g     F .highcode	0000003a HardFault_Handler
200000a2  w      .highcode	00000000 GPIOB_IRQHandler
00006532 g     F .text	00000002 __malloc_unlock
00003702 g     F .text	00000030 UART0_BaudRateCfg
000037b6 g     F .text	0000003a UART0_SendString
200000a0  w      .highcode	00000000 GPIOA_IRQHandler
0000223a g     F .text	00000018 portGpioSetDefCfg
2000009a  w      .highcode	00000000 SysTick_Handler
00003908 g     F .text	0000002a UART1_RecvString
00006fdc g     F .text	0000004a memmove
00002292 g     F .text	00000024 portLedCfg
0000271e g     F .text	0000001c getCharIndex
000023a0 g     F .text	00000018 socketRecv
0000530c g     F .text	00000074 snprintf
00003996 g     F .text	0000001a UART2_ByteTrigCfg
20000090  w      .highcode	00000000 NMI_Handler
00006534 g     F .text	00000088 _Balloc
00002988 g     F .text	00000026 getCharIndexWithNum
20000156 g     F .highcode	00000090 UART1_IRQHandler
0000782c g     F .text	000000ae .hidden __gtdf2
000023b8 g     F .text	00000140 socketSchedule
00001742 g     F .text	000000da mipopenParser
20001aa8 g     O .bss	00000004 errno
20001a30 g     O .bss	00000014 usart0_ctl
20000b30 g       .bss	00000000 _sbss
20000550 g     F .highcode	0000000e FLASH_ROM_IN
200000c6 g     F .highcode	00000090 UART0_IRQHandler
000046b4 g     F .text	000000b6 memcpy
00006d3e g     F .text	0000027e _svfprintf_r
00008172 g     F .text	00000072 .hidden __floatsidf
00003390 g     F .text	00000054 upgradeSocketErr
000078da g     F .text	000000b6 .hidden __ltdf2
00004698 g     F .text	0000000e malloc
00003896 g     F .text	0000002a UART1_INTCfg
20001a44 g     O .bss	00000014 usart3_ctl
00009218 g     O .text	000000c8 __mprec_tens
00000004 g       .init	00000000 _einit
00005772 g     F .text	00000014 vsnprintf
200000a6  w      .highcode	00000000 BB_IRQHandler
200005ec g     F .highcode	0000036a FLASH_EEPROM_CMD
000029ae g     F .text	0000000e moduleRspTimeout
20000098  w      .highcode	00000000 Break_Point_Handler
000035ec g     F .text	000000a6 GPIOB_ModeCfg
000056f0 g     F .text	00000022 strtoul
000064c0 g     F .text	0000001c _localeconv_r
00003b2a g     F .text	0000002a UART3_RecvString
000029f6 g     F .text	0000039e protocolRecvParser
0000181c g     F .text	000003c8 moduleRecvParser
00006748 g     F .text	0000001c __i2b
00001edc g     F .text	0000030e portUartCfg
000052e2 g     F .text	0000002a _sbrk_r
0000387c g     F .text	0000001a UART1_ByteTrigCfg
20000306 g     F .highcode	00000024 TMR0_IRQHandler
00000daa g     F .text	0000000e myTask
20000530 g     F .highcode	00000012 FLASH_ROM_BEG
0000238c g     F .text	0000000c socketGetConnStatus
00007092 g     F .text	00000730 .hidden __adddf3
20000508 g     F .highcode	00000028 mDelaymS
20000094  w      .highcode	00000000 Ecall_M_Mode_Handler
0000273a g     F .text	0000004c my_strpach
2000056c g     F .highcode	00000048 FLASH_ROM_ADDR
0000237c g     F .text	00000010 socketGetUsedFlag
00007026 g     F .text	00000058 _realloc_r
00000af2 g     F .text	0000006c flashWriteCode
000091f0 g     O .text	00000028 __mprec_bigtens
000045b4 g     F .text	00000066 .hidden __floatunsidf
00008402 g     F .text	00000020 _sbrk
00006a34 g     F .text	00000032 __mcmp
20001a58 g     O .bss	00000014 usart1_ctl
00005594 g     F .text	00000022 strtol
00001540 g     F .text	00000202 mipurcParser
200000b6  w      .highcode	00000000 RTC_IRQHandler
20001aac g       .bss	00000000 _ebss
00003aca g     F .text	0000002a UART3_INTCfg
00000da0 g     F .text	0000000a createSystemTask
000011b6 g     F .text	00000052 moduleReset
00005772 g     F .text	00000014 vsniprintf
00006698 g     F .text	00000046 __hi0bits
0000384a g     F .text	00000032 UART1_DefInit
0000810a g     F .text	00000068 .hidden __fixdfsi
000010d6 g     F .text	000000d4 sendModuleCmd
00002206 g     F .text	00000034 portTimerCfg
200005b4 g     F .highcode	00000038 FLASH_ROM_WAIT
000038c0 g     F .text	0000000e UART1_Reset
0000334c g     F .text	00000044 upgradeInfoInit
000078da g     F .text	000000b6 .hidden __ledf2
000068a8 g     F .text	000000be __pow5mult
00009180 g     O .text	00000020 __sf_fake_stderr
0000530c g     F .text	00000074 sniprintf
000033ea g     F .text	0000015c RTC_GetTime
20001aac g       .bss	00000000 end
00002340 g     F .text	00000038 socketDel
200001e6 g     F .highcode	00000090 UART2_IRQHandler
00000f0e g     F .text	0000005e modulePowerOn
200000bc  w      .highcode	00000000 PWMX_IRQHandler
00006c54 g     F .text	000000ea __ssputs_r
00002378 g     F .text	00000004 socketDelAll
0000461a g     F .text	00000076 .hidden __clzsi2
00006516 g     F .text	0000001a memchr
00004a66  w    F .text	000004c4 _printf_float
0000476a g     F .text	000000a8 _free_r
00003ab0 g     F .text	0000001a UART3_ByteTrigCfg
00001c86 g     F .text	0000007e paramDefaultInit
00000b5e g     F .text	0000000c systemTickInc
00002840 g     F .text	0000001a distinguishOK
000039b0 g     F .text	0000002a UART2_INTCfg
00003af4 g     F .text	0000000e UART3_Reset
00000000 g       .init	00000000 _start
00005412 g     F .text	0000003e strstr
00006966 g     F .text	000000ce __lshift
00001be4 g     F .text	00000054 socketSendData
200000b8  w      .highcode	00000000 ADC_IRQHandler
20000000 g       .highcode	00000000 _highcode_vma_start
00002252 g     F .text	00000040 portModuleGpioCfg
00003964 g     F .text	00000032 UART2_DefInit
00006764 g     F .text	00000144 __multiply
000053ee g     F .text	00000024 strncpy
00006b58 g     F .text	000000d4 __d2b
200000b0  w      .highcode	00000000 TMR2_IRQHandler
00001d04 g     F .text	00000020 paramInit
00003a22 g     F .text	0000002a UART2_RecvString
00003732 g     F .text	00000032 UART0_DefInit
20000958 g       .data	00000000 _data_vma
00000f6c g     F .text	00000038 modulePowerOff
2000032a g     F .highcode	0000015a SetSysClock
200000aa  w      .highcode	00000000 USB_IRQHandler
00003b54 g     F .text	000005b0 .hidden __divdf3
00008548 g     O .text	000000f8 cmdtable
00005712 g     F .text	00000060 _vsnprintf_r
00004104 g     F .text	000004b0 .hidden __muldf3
00003116 g     F .text	000001c2 upgradeRunTask
00006530 g     F .text	00000002 __malloc_lock
00003b02 g     F .text	00000028 UART3_SendString
00006c2c g     F .text	00000028 _calloc_r
000091a0 g     O .text	00000020 __sf_fake_stdin
00003692 g     F .text	0000001a GPIOPinRemap
200000ba  w      .highcode	00000000 I2C_IRQHandler
00000a0e g     F .text	000000a8 memset
00000dee g     F .text	000000ae main
00001ebc g     F .text	00000020 pollUartData
0000285a g     F .text	00000048 byteToHexString
00001c38 g     F .text	0000000c isModuleRunNormal
00002640 g     F .text	00000094 LogMessageWL
000039da g     F .text	0000000e UART2_Reset
000027f2 g     F .text	0000004e my_strstr
00003932 g     F .text	00000032 UART2_BaudRateCfg
000032f6 g     F .text	00000056 startJumpToApp
000058c0 g     F .text	00000bfa _dtoa_r
00004812 g     F .text	000000da _malloc_r
00006fbc g     F .text	00000020 __ascii_wctomb
200000ac  w      .highcode	00000000 USB2_IRQHandler
000022d2 g     F .text	0000006e socketAdd
00000004 g       .highcodelalign	00000000 _highcode_lma
000077c2 g     F .text	0000006a .hidden __nedf2
00001258 g     F .text	000002e8 netConnectTask
00000c70 g     F .text	00000076 stopTimer
00005380 g     F .text	0000004a sprintf
00008fe8 g     O .text	00000100 .hidden __clz_tab
000049da g     F .text	0000008c __exponent
200000a8  w      .highcode	00000000 LLE_IRQHandler
00002398 g     F .text	00000008 socketSetConnState
00000000 g       .init	00000000 _sinit
000033e4 g     F .text	00000006 upgradeSocketSuccess
00004f2a g     F .text	0000010c _printf_common
20000b2c g     O .data	00000004 _impure_ptr
000022b6 g     F .text	0000001c portSysReset
00006d3e g     F .text	0000027e _svfiprintf_r
000064dc g     F .text	0000003a __ascii_mbtowc
200000c4  w      .highcode	00000000 WDOG_BAT_IRQHandler
20000096  w      .highcode	00000000 Ecall_U_Mode_Handler
000030e6 g     F .text	00000030 moduleRspSuccess
200000be  w      .highcode	00000000 TMR3_IRQHandler
20008000 g       .stack	00000000 _eusrstack
00001d24 g     F .text	00000008 paramGetCodeVersion
00005712 g     F .text	00000060 _vsniprintf_r
2000009c  w      .highcode	00000000 SW_Handler
00003546 g     F .text	000000a6 GPIOA_ModeCfg
000030e0 g     F .text	00000006 upgradeReconnect
000036ac g     F .text	00000042 GetSysClock
20000b30 g       .data	00000000 _edata
200000a4  w      .highcode	00000000 SPI0_IRQHandler
00000ab6 g     F .text	0000003c flashEarseByFileSize
000032d8 g     F .text	0000001e JumpToApp
000021ea g     F .text	0000001c portUartSend
20000958 g       .highcode	00000000 _highcode_vma_end
000025a8 g     F .text	00000098 LogMessage
00009404 g       .dlalign	00000000 _data_lma
00001d2c g     F .text	00000006 paramSaveUpdateStatus
00006a66 g     F .text	000000f2 __mdiff
0000377e g     F .text	0000002a UART0_INTCfg
000091c0 g     O .text	00000020 __sf_fake_stdout
00005380 g     F .text	0000004a siprintf
00004690 g     F .text	00000008 atoi
0000105c g     F .text	0000007a outputNode
00009300 g     O .text	00000101 _ctype_
20001a6c g     O .bss	00000034 socketList
000028a2 g     F .text	000000e6 stringToItem
000080ce g     F .text	0000003c .hidden __unorddf2
00000960  w      .text	00000000 handle_reset
000024f8 g     F .text	0000003c GetCrc16
000039e8 g     F .text	0000003a UART2_SendString
000053dc g     F .text	00000012 strlen
00005036 g     F .text	000002ac _printf_i
000064ba g     F .text	00000006 __locale_ctype_ptr_l
0000782c g     F .text	000000ae .hidden __gedf2
20000276 g     F .highcode	00000090 UART3_IRQHandler
20000b54 g     O .bss	00000004 __malloc_sbrk_start
20000542 g     F .highcode	0000000e FLASH_ROM_END
00002786 g     F .text	0000006c my_getstrindex
20001aa0 g     O .bss	00000008 sockSchInfo
20000b50 g     O .bss	00000004 __malloc_free_list
20001908 g     O .bss	00000112 sysparam
00000db8 g     F .text	00000036 ledRunTask
00007990 g     F .text	0000073e .hidden __subdf3
000026d4 g     F .text	0000004a LogPrintf
200000ae  w      .highcode	00000000 TMR1_IRQHandler
000066de g     F .text	0000006a __lo0bits
00001c72 g     F .text	00000014 paramGetAll
000037a8 g     F .text	0000000e UART0_Reset
200009b8 g     O .data	0000016c __global_locale
20000484 g     F .highcode	0000003c SYS_ResetExecute
000081e4 g     F .text	0000021e .hidden __trunctfdf2
00001232 g     F .text	00000026 closeSocket
000046a6 g     F .text	0000000e free
00006600 g     F .text	00000098 __multadd
000065bc g     F .text	00000044 _Bfree
000036ee g     F .text	00000014 TMR0_TimerInit
0000381a g     F .text	00000030 UART1_BaudRateCfg
00002534 g     F .text	00000074 portGetRtcDateTime



Disassembly of section .init:

00000000 <_sinit>:
   0:	1610006f          	j	960 <handle_reset>

Disassembly of section .highcode:

20000000 <_highcode_vma_start>:
	...
20000008:	0090                	addi	a2,sp,64
2000000a:	2000                	fld	fs0,0(s0)
2000000c:	04c0                	addi	s0,sp,580
2000000e:	2000                	fld	fs0,0(s0)
20000010:	bda9                	j	1ffffe6a <_data_lma+0x1fff6a66>
20000012:	f5f9                	bnez	a1,1fffffe0 <_data_lma+0x1fff6bdc>
20000014:	0094                	addi	a3,sp,64
20000016:	2000                	fld	fs0,0(s0)
	...
20000020:	0096                	slli	ra,ra,0x5
20000022:	2000                	fld	fs0,0(s0)
20000024:	0098                	addi	a4,sp,64
20000026:	2000                	fld	fs0,0(s0)
	...
20000030:	009a                	slli	ra,ra,0x6
20000032:	2000                	fld	fs0,0(s0)
20000034:	0000                	unimp
20000036:	0000                	unimp
20000038:	009c                	addi	a5,sp,64
2000003a:	2000                	fld	fs0,0(s0)
2000003c:	0000                	unimp
2000003e:	0000                	unimp
20000040:	0306                	slli	t1,t1,0x1
20000042:	2000                	fld	fs0,0(s0)
20000044:	00a0                	addi	s0,sp,72
20000046:	2000                	fld	fs0,0(s0)
20000048:	00a2                	slli	ra,ra,0x8
2000004a:	2000                	fld	fs0,0(s0)
2000004c:	00a4                	addi	s1,sp,72
2000004e:	2000                	fld	fs0,0(s0)
20000050:	00a6                	slli	ra,ra,0x9
20000052:	2000                	fld	fs0,0(s0)
20000054:	00a8                	addi	a0,sp,72
20000056:	2000                	fld	fs0,0(s0)
20000058:	00aa                	slli	ra,ra,0xa
2000005a:	2000                	fld	fs0,0(s0)
2000005c:	00ac                	addi	a1,sp,72
2000005e:	2000                	fld	fs0,0(s0)
20000060:	00ae                	slli	ra,ra,0xb
20000062:	2000                	fld	fs0,0(s0)
20000064:	00b0                	addi	a2,sp,72
20000066:	2000                	fld	fs0,0(s0)
20000068:	00c6                	slli	ra,ra,0x11
2000006a:	2000                	fld	fs0,0(s0)
2000006c:	0156                	slli	sp,sp,0x15
2000006e:	2000                	fld	fs0,0(s0)
20000070:	00b6                	slli	ra,ra,0xd
20000072:	2000                	fld	fs0,0(s0)
20000074:	00b8                	addi	a4,sp,72
20000076:	2000                	fld	fs0,0(s0)
20000078:	00ba                	slli	ra,ra,0xe
2000007a:	2000                	fld	fs0,0(s0)
2000007c:	00bc                	addi	a5,sp,72
2000007e:	2000                	fld	fs0,0(s0)
20000080:	00be                	slli	ra,ra,0xf
20000082:	2000                	fld	fs0,0(s0)
20000084:	01e6                	slli	gp,gp,0x19
20000086:	2000                	fld	fs0,0(s0)
20000088:	0276                	slli	tp,tp,0x1d
2000008a:	2000                	fld	fs0,0(s0)
2000008c:	00c4                	addi	s1,sp,68
2000008e:	2000                	fld	fs0,0(s0)

20000090 <NMI_Handler>:
20000090:	a001                	j	20000090 <NMI_Handler>
20000092:	a001                	j	20000092 <NMI_Handler+0x2>

20000094 <Ecall_M_Mode_Handler>:
20000094:	a001                	j	20000094 <Ecall_M_Mode_Handler>

20000096 <Ecall_U_Mode_Handler>:
20000096:	a001                	j	20000096 <Ecall_U_Mode_Handler>

20000098 <Break_Point_Handler>:
20000098:	a001                	j	20000098 <Break_Point_Handler>

2000009a <SysTick_Handler>:
2000009a:	a001                	j	2000009a <SysTick_Handler>

2000009c <SW_Handler>:
2000009c:	a001                	j	2000009c <SW_Handler>
2000009e:	a001                	j	2000009e <SW_Handler+0x2>

200000a0 <GPIOA_IRQHandler>:
200000a0:	a001                	j	200000a0 <GPIOA_IRQHandler>

200000a2 <GPIOB_IRQHandler>:
200000a2:	a001                	j	200000a2 <GPIOB_IRQHandler>

200000a4 <SPI0_IRQHandler>:
200000a4:	a001                	j	200000a4 <SPI0_IRQHandler>

200000a6 <BB_IRQHandler>:
200000a6:	a001                	j	200000a6 <BB_IRQHandler>

200000a8 <LLE_IRQHandler>:
200000a8:	a001                	j	200000a8 <LLE_IRQHandler>

200000aa <USB_IRQHandler>:
200000aa:	a001                	j	200000aa <USB_IRQHandler>

200000ac <USB2_IRQHandler>:
200000ac:	a001                	j	200000ac <USB2_IRQHandler>

200000ae <TMR1_IRQHandler>:
200000ae:	a001                	j	200000ae <TMR1_IRQHandler>

200000b0 <TMR2_IRQHandler>:
200000b0:	a001                	j	200000b0 <TMR2_IRQHandler>
200000b2:	a001                	j	200000b2 <TMR2_IRQHandler+0x2>
200000b4:	a001                	j	200000b4 <TMR2_IRQHandler+0x4>

200000b6 <RTC_IRQHandler>:
200000b6:	a001                	j	200000b6 <RTC_IRQHandler>

200000b8 <ADC_IRQHandler>:
200000b8:	a001                	j	200000b8 <ADC_IRQHandler>

200000ba <I2C_IRQHandler>:
200000ba:	a001                	j	200000ba <I2C_IRQHandler>

200000bc <PWMX_IRQHandler>:
200000bc:	a001                	j	200000bc <PWMX_IRQHandler>

200000be <TMR3_IRQHandler>:
200000be:	a001                	j	200000be <TMR3_IRQHandler>
200000c0:	a001                	j	200000c0 <TMR3_IRQHandler+0x2>
200000c2:	a001                	j	200000c2 <TMR3_IRQHandler+0x4>

200000c4 <WDOG_BAT_IRQHandler>:
200000c4:	a001                	j	200000c4 <WDOG_BAT_IRQHandler>

200000c6 <UART0_IRQHandler>:
200000c6:	40003737          	lui	a4,0x40003
200000ca:	00474783          	lbu	a5,4(a4) # 40003004 <_eusrstack+0x1fffb004>
200000ce:	4699                	li	a3,6
200000d0:	1141                	addi	sp,sp,-16
200000d2:	8bbd                	andi	a5,a5,15
200000d4:	02d78a63          	beq	a5,a3,20000108 <UART0_IRQHandler+0x42>
200000d8:	4731                	li	a4,12
200000da:	06e78263          	beq	a5,a4,2000013e <UART0_IRQHandler+0x78>
200000de:	4711                	li	a4,4
200000e0:	02e79c63          	bne	a5,a4,20000118 <UART0_IRQHandler+0x52>
200000e4:	000103a3          	sb	zero,7(sp)
200000e8:	8241c603          	lbu	a2,-2012(gp) # 20000b4c <uart0trigB>
200000ec:	40003737          	lui	a4,0x40003
200000f0:	00714783          	lbu	a5,7(sp)
200000f4:	02f61563          	bne	a2,a5,2000011e <UART0_IRQHandler+0x58>
200000f8:	002c                	addi	a1,sp,8
200000fa:	70818513          	addi	a0,gp,1800 # 20001a30 <usart0_ctl>
200000fe:	e0002097          	auipc	ra,0xe0002
20000102:	cba080e7          	jalr	-838(ra) # 1db8 <pushUartRxData>
20000106:	a809                	j	20000118 <UART0_IRQHandler+0x52>
20000108:	00574783          	lbu	a5,5(a4) # 40003005 <_eusrstack+0x1fffb005>
2000010c:	0ff7f793          	andi	a5,a5,255
20000110:	00f10423          	sb	a5,8(sp)
20000114:	00814783          	lbu	a5,8(sp)
20000118:	0141                	addi	sp,sp,16
2000011a:	30200073          	mret
2000011e:	00714783          	lbu	a5,7(sp)
20000122:	00874683          	lbu	a3,8(a4)
20000126:	080c                	addi	a1,sp,16
20000128:	97ae                	add	a5,a5,a1
2000012a:	fed78c23          	sb	a3,-8(a5)
2000012e:	00714783          	lbu	a5,7(sp)
20000132:	0785                	addi	a5,a5,1
20000134:	0ff7f793          	andi	a5,a5,255
20000138:	00f103a3          	sb	a5,7(sp)
2000013c:	bf55                	j	200000f0 <UART0_IRQHandler+0x2a>
2000013e:	0028                	addi	a0,sp,8
20000140:	e0003097          	auipc	ra,0xe0003
20000144:	6b0080e7          	jalr	1712(ra) # 37f0 <UART0_RecvString>
20000148:	0ff57513          	andi	a0,a0,255
2000014c:	00a103a3          	sb	a0,7(sp)
20000150:	00714603          	lbu	a2,7(sp)
20000154:	b755                	j	200000f8 <UART0_IRQHandler+0x32>

20000156 <UART1_IRQHandler>:
20000156:	40003737          	lui	a4,0x40003
2000015a:	40474783          	lbu	a5,1028(a4) # 40003404 <_eusrstack+0x1fffb404>
2000015e:	4699                	li	a3,6
20000160:	1141                	addi	sp,sp,-16
20000162:	8bbd                	andi	a5,a5,15
20000164:	02d78a63          	beq	a5,a3,20000198 <UART1_IRQHandler+0x42>
20000168:	4731                	li	a4,12
2000016a:	06e78263          	beq	a5,a4,200001ce <UART1_IRQHandler+0x78>
2000016e:	4711                	li	a4,4
20000170:	02e79c63          	bne	a5,a4,200001a8 <UART1_IRQHandler+0x52>
20000174:	000103a3          	sb	zero,7(sp)
20000178:	8251c603          	lbu	a2,-2011(gp) # 20000b4d <uart1trigB>
2000017c:	40003737          	lui	a4,0x40003
20000180:	00714783          	lbu	a5,7(sp)
20000184:	02f61563          	bne	a2,a5,200001ae <UART1_IRQHandler+0x58>
20000188:	002c                	addi	a1,sp,8
2000018a:	73018513          	addi	a0,gp,1840 # 20001a58 <usart1_ctl>
2000018e:	e0002097          	auipc	ra,0xe0002
20000192:	c2a080e7          	jalr	-982(ra) # 1db8 <pushUartRxData>
20000196:	a809                	j	200001a8 <UART1_IRQHandler+0x52>
20000198:	40574783          	lbu	a5,1029(a4) # 40003405 <_eusrstack+0x1fffb405>
2000019c:	0ff7f793          	andi	a5,a5,255
200001a0:	00f10423          	sb	a5,8(sp)
200001a4:	00814783          	lbu	a5,8(sp)
200001a8:	0141                	addi	sp,sp,16
200001aa:	30200073          	mret
200001ae:	00714783          	lbu	a5,7(sp)
200001b2:	40874683          	lbu	a3,1032(a4)
200001b6:	080c                	addi	a1,sp,16
200001b8:	97ae                	add	a5,a5,a1
200001ba:	fed78c23          	sb	a3,-8(a5)
200001be:	00714783          	lbu	a5,7(sp)
200001c2:	0785                	addi	a5,a5,1
200001c4:	0ff7f793          	andi	a5,a5,255
200001c8:	00f103a3          	sb	a5,7(sp)
200001cc:	bf55                	j	20000180 <UART1_IRQHandler+0x2a>
200001ce:	0028                	addi	a0,sp,8
200001d0:	e0003097          	auipc	ra,0xe0003
200001d4:	738080e7          	jalr	1848(ra) # 3908 <UART1_RecvString>
200001d8:	0ff57513          	andi	a0,a0,255
200001dc:	00a103a3          	sb	a0,7(sp)
200001e0:	00714603          	lbu	a2,7(sp)
200001e4:	b755                	j	20000188 <UART1_IRQHandler+0x32>

200001e6 <UART2_IRQHandler>:
200001e6:	40004737          	lui	a4,0x40004
200001ea:	80474783          	lbu	a5,-2044(a4) # 40003804 <_eusrstack+0x1fffb804>
200001ee:	4699                	li	a3,6
200001f0:	1141                	addi	sp,sp,-16
200001f2:	8bbd                	andi	a5,a5,15
200001f4:	02d78a63          	beq	a5,a3,20000228 <UART2_IRQHandler+0x42>
200001f8:	4731                	li	a4,12
200001fa:	06e78263          	beq	a5,a4,2000025e <UART2_IRQHandler+0x78>
200001fe:	4711                	li	a4,4
20000200:	02e79c63          	bne	a5,a4,20000238 <UART2_IRQHandler+0x52>
20000204:	000103a3          	sb	zero,7(sp)
20000208:	8261c603          	lbu	a2,-2010(gp) # 20000b4e <uart2trigB>
2000020c:	40004737          	lui	a4,0x40004
20000210:	00714783          	lbu	a5,7(sp)
20000214:	02f61563          	bne	a2,a5,2000023e <UART2_IRQHandler+0x58>
20000218:	002c                	addi	a1,sp,8
2000021a:	6f418513          	addi	a0,gp,1780 # 20001a1c <usart2_ctl>
2000021e:	e0002097          	auipc	ra,0xe0002
20000222:	b9a080e7          	jalr	-1126(ra) # 1db8 <pushUartRxData>
20000226:	a809                	j	20000238 <UART2_IRQHandler+0x52>
20000228:	80574783          	lbu	a5,-2043(a4) # 40003805 <_eusrstack+0x1fffb805>
2000022c:	0ff7f793          	andi	a5,a5,255
20000230:	00f10423          	sb	a5,8(sp)
20000234:	00814783          	lbu	a5,8(sp)
20000238:	0141                	addi	sp,sp,16
2000023a:	30200073          	mret
2000023e:	00714783          	lbu	a5,7(sp)
20000242:	80874683          	lbu	a3,-2040(a4)
20000246:	080c                	addi	a1,sp,16
20000248:	97ae                	add	a5,a5,a1
2000024a:	fed78c23          	sb	a3,-8(a5)
2000024e:	00714783          	lbu	a5,7(sp)
20000252:	0785                	addi	a5,a5,1
20000254:	0ff7f793          	andi	a5,a5,255
20000258:	00f103a3          	sb	a5,7(sp)
2000025c:	bf55                	j	20000210 <UART2_IRQHandler+0x2a>
2000025e:	0028                	addi	a0,sp,8
20000260:	e0003097          	auipc	ra,0xe0003
20000264:	7c2080e7          	jalr	1986(ra) # 3a22 <UART2_RecvString>
20000268:	0ff57513          	andi	a0,a0,255
2000026c:	00a103a3          	sb	a0,7(sp)
20000270:	00714603          	lbu	a2,7(sp)
20000274:	b755                	j	20000218 <UART2_IRQHandler+0x32>

20000276 <UART3_IRQHandler>:
20000276:	40004737          	lui	a4,0x40004
2000027a:	c0474783          	lbu	a5,-1020(a4) # 40003c04 <_eusrstack+0x1fffbc04>
2000027e:	4699                	li	a3,6
20000280:	1141                	addi	sp,sp,-16
20000282:	8bbd                	andi	a5,a5,15
20000284:	02d78a63          	beq	a5,a3,200002b8 <UART3_IRQHandler+0x42>
20000288:	4731                	li	a4,12
2000028a:	06e78263          	beq	a5,a4,200002ee <UART3_IRQHandler+0x78>
2000028e:	4711                	li	a4,4
20000290:	02e79c63          	bne	a5,a4,200002c8 <UART3_IRQHandler+0x52>
20000294:	000103a3          	sb	zero,7(sp)
20000298:	8271c603          	lbu	a2,-2009(gp) # 20000b4f <uart3trigB>
2000029c:	40004737          	lui	a4,0x40004
200002a0:	00714783          	lbu	a5,7(sp)
200002a4:	02f61563          	bne	a2,a5,200002ce <UART3_IRQHandler+0x58>
200002a8:	002c                	addi	a1,sp,8
200002aa:	71c18513          	addi	a0,gp,1820 # 20001a44 <usart3_ctl>
200002ae:	e0002097          	auipc	ra,0xe0002
200002b2:	b0a080e7          	jalr	-1270(ra) # 1db8 <pushUartRxData>
200002b6:	a809                	j	200002c8 <UART3_IRQHandler+0x52>
200002b8:	c0574783          	lbu	a5,-1019(a4) # 40003c05 <_eusrstack+0x1fffbc05>
200002bc:	0ff7f793          	andi	a5,a5,255
200002c0:	00f10423          	sb	a5,8(sp)
200002c4:	00814783          	lbu	a5,8(sp)
200002c8:	0141                	addi	sp,sp,16
200002ca:	30200073          	mret
200002ce:	00714783          	lbu	a5,7(sp)
200002d2:	c0874683          	lbu	a3,-1016(a4)
200002d6:	080c                	addi	a1,sp,16
200002d8:	97ae                	add	a5,a5,a1
200002da:	fed78c23          	sb	a3,-8(a5)
200002de:	00714783          	lbu	a5,7(sp)
200002e2:	0785                	addi	a5,a5,1
200002e4:	0ff7f793          	andi	a5,a5,255
200002e8:	00f103a3          	sb	a5,7(sp)
200002ec:	bf55                	j	200002a0 <UART3_IRQHandler+0x2a>
200002ee:	0028                	addi	a0,sp,8
200002f0:	e0004097          	auipc	ra,0xe0004
200002f4:	83a080e7          	jalr	-1990(ra) # 3b2a <UART3_RecvString>
200002f8:	0ff57513          	andi	a0,a0,255
200002fc:	00a103a3          	sb	a0,7(sp)
20000300:	00714603          	lbu	a2,7(sp)
20000304:	b755                	j	200002a8 <UART3_IRQHandler+0x32>

20000306 <TMR0_IRQHandler>:
20000306:	e0001097          	auipc	ra,0xe0001
2000030a:	858080e7          	jalr	-1960(ra) # b5e <systemTickInc>
2000030e:	400027b7          	lui	a5,0x40002
20000312:	0067c703          	lbu	a4,6(a5) # 40002006 <_eusrstack+0x1fffa006>
20000316:	8b05                	andi	a4,a4,1
20000318:	c719                	beqz	a4,20000326 <TMR0_IRQHandler+0x20>
2000031a:	0067c703          	lbu	a4,6(a5)
2000031e:	00176713          	ori	a4,a4,1
20000322:	00e78323          	sb	a4,6(a5)
20000326:	30200073          	mret

2000032a <SetSysClock>:
2000032a:	400017b7          	lui	a5,0x40001
2000032e:	05700693          	li	a3,87
20000332:	04d78023          	sb	a3,64(a5) # 40001040 <_eusrstack+0x1fff9040>
20000336:	fa800713          	li	a4,-88
2000033a:	04e78023          	sb	a4,64(a5)
2000033e:	0001                	nop
20000340:	0001                	nop
20000342:	04b7c603          	lbu	a2,75(a5)
20000346:	0df67613          	andi	a2,a2,223
2000034a:	04c785a3          	sb	a2,75(a5)
2000034e:	04078023          	sb	zero,64(a5)
20000352:	02057613          	andi	a2,a0,32
20000356:	ce59                	beqz	a2,200003f4 <SetSysClock+0xca>
20000358:	00a7c603          	lbu	a2,10(a5)
2000035c:	8a11                	andi	a2,a2,4
2000035e:	e21d                	bnez	a2,20000384 <SetSysClock+0x5a>
20000360:	04d78023          	sb	a3,64(a5)
20000364:	04e78023          	sb	a4,64(a5)
20000368:	0001                	nop
2000036a:	0001                	nop
2000036c:	00a7c703          	lbu	a4,10(a5)
20000370:	00476713          	ori	a4,a4,4
20000374:	00e78523          	sb	a4,10(a5)
20000378:	4b000793          	li	a5,1200
2000037c:	0001                	nop
2000037e:	0001                	nop
20000380:	17fd                	addi	a5,a5,-1
20000382:	ffed                	bnez	a5,2000037c <SetSysClock+0x52>
20000384:	400017b7          	lui	a5,0x40001
20000388:	05700693          	li	a3,87
2000038c:	04d78023          	sb	a3,64(a5) # 40001040 <_eusrstack+0x1fff9040>
20000390:	fa800713          	li	a4,-88
20000394:	04e78023          	sb	a4,64(a5)
20000398:	0001                	nop
2000039a:	0001                	nop
2000039c:	897d                	andi	a0,a0,31
2000039e:	00a79423          	sh	a0,8(a5)
200003a2:	0001                	nop
200003a4:	0001                	nop
200003a6:	0001                	nop
200003a8:	0001                	nop
200003aa:	04078023          	sb	zero,64(a5)
200003ae:	04d78023          	sb	a3,64(a5)
200003b2:	04e78023          	sb	a4,64(a5)
200003b6:	0001                	nop
200003b8:	0001                	nop
200003ba:	40002737          	lui	a4,0x40002
200003be:	05100693          	li	a3,81
200003c2:	80d703a3          	sb	a3,-2041(a4) # 40001807 <_eusrstack+0x1fff9807>
200003c6:	04078023          	sb	zero,64(a5)
200003ca:	400017b7          	lui	a5,0x40001
200003ce:	05700713          	li	a4,87
200003d2:	04e78023          	sb	a4,64(a5) # 40001040 <_eusrstack+0x1fff9040>
200003d6:	fa800713          	li	a4,-88
200003da:	04e78023          	sb	a4,64(a5)
200003de:	0001                	nop
200003e0:	0001                	nop
200003e2:	04b7c703          	lbu	a4,75(a5)
200003e6:	08076713          	ori	a4,a4,128
200003ea:	04e785a3          	sb	a4,75(a5)
200003ee:	04078023          	sb	zero,64(a5)
200003f2:	8082                	ret
200003f4:	04057613          	andi	a2,a0,64
200003f8:	ca2d                	beqz	a2,2000046a <SetSysClock+0x140>
200003fa:	00a7c603          	lbu	a2,10(a5)
200003fe:	8a41                	andi	a2,a2,16
20000400:	e21d                	bnez	a2,20000426 <SetSysClock+0xfc>
20000402:	04d78023          	sb	a3,64(a5)
20000406:	04e78023          	sb	a4,64(a5)
2000040a:	0001                	nop
2000040c:	0001                	nop
2000040e:	00a7c703          	lbu	a4,10(a5)
20000412:	01076713          	ori	a4,a4,16
20000416:	00e78523          	sb	a4,10(a5)
2000041a:	7d000793          	li	a5,2000
2000041e:	0001                	nop
20000420:	0001                	nop
20000422:	17fd                	addi	a5,a5,-1
20000424:	ffed                	bnez	a5,2000041e <SetSysClock+0xf4>
20000426:	400017b7          	lui	a5,0x40001
2000042a:	05700693          	li	a3,87
2000042e:	04d78023          	sb	a3,64(a5) # 40001040 <_eusrstack+0x1fff9040>
20000432:	fa800713          	li	a4,-88
20000436:	04e78023          	sb	a4,64(a5)
2000043a:	0001                	nop
2000043c:	0001                	nop
2000043e:	897d                	andi	a0,a0,31
20000440:	04056513          	ori	a0,a0,64
20000444:	00a79423          	sh	a0,8(a5)
20000448:	0001                	nop
2000044a:	0001                	nop
2000044c:	0001                	nop
2000044e:	0001                	nop
20000450:	04078023          	sb	zero,64(a5)
20000454:	04d78023          	sb	a3,64(a5)
20000458:	04e78023          	sb	a4,64(a5)
2000045c:	0001                	nop
2000045e:	0001                	nop
20000460:	40002737          	lui	a4,0x40002
20000464:	05200693          	li	a3,82
20000468:	bfa9                	j	200003c2 <SetSysClock+0x98>
2000046a:	04d78023          	sb	a3,64(a5)
2000046e:	04e78023          	sb	a4,64(a5)
20000472:	0001                	nop
20000474:	0001                	nop
20000476:	0087d703          	lhu	a4,8(a5)
2000047a:	0c076713          	ori	a4,a4,192
2000047e:	00e79423          	sh	a4,8(a5)
20000482:	b7a1                	j	200003ca <SetSysClock+0xa0>

20000484 <SYS_ResetExecute>:
20000484:	1141                	addi	sp,sp,-16
20000486:	4681                	li	a3,0
20000488:	4601                	li	a2,0
2000048a:	4581                	li	a1,0
2000048c:	4511                	li	a0,4
2000048e:	c606                	sw	ra,12(sp)
20000490:	2ab1                	jal	200005ec <FLASH_EEPROM_CMD>
20000492:	400017b7          	lui	a5,0x40001
20000496:	05700713          	li	a4,87
2000049a:	04e78023          	sb	a4,64(a5) # 40001040 <_eusrstack+0x1fff9040>
2000049e:	fa800713          	li	a4,-88
200004a2:	04e78023          	sb	a4,64(a5)
200004a6:	0001                	nop
200004a8:	0001                	nop
200004aa:	0467c703          	lbu	a4,70(a5)
200004ae:	00176713          	ori	a4,a4,1
200004b2:	04e78323          	sb	a4,70(a5)
200004b6:	04078023          	sb	zero,64(a5)
200004ba:	40b2                	lw	ra,12(sp)
200004bc:	0141                	addi	sp,sp,16
200004be:	8082                	ret

200004c0 <HardFault_Handler>:
200004c0:	4681                	li	a3,0
200004c2:	4601                	li	a2,0
200004c4:	4581                	li	a1,0
200004c6:	4511                	li	a0,4
200004c8:	2215                	jal	200005ec <FLASH_EEPROM_CMD>
200004ca:	400017b7          	lui	a5,0x40001
200004ce:	05700713          	li	a4,87
200004d2:	04e78023          	sb	a4,64(a5) # 40001040 <_eusrstack+0x1fff9040>
200004d6:	fa800713          	li	a4,-88
200004da:	04e78023          	sb	a4,64(a5)
200004de:	0001                	nop
200004e0:	0001                	nop
200004e2:	577d                	li	a4,-1
200004e4:	02e79623          	sh	a4,44(a5)
200004e8:	0467c703          	lbu	a4,70(a5)
200004ec:	00176713          	ori	a4,a4,1
200004f0:	04e78323          	sb	a4,70(a5)
200004f4:	04078023          	sb	zero,64(a5)
200004f8:	a001                	j	200004f8 <HardFault_Handler+0x38>

200004fa <mDelayuS>:
200004fa:	47bd                	li	a5,15
200004fc:	02f50533          	mul	a0,a0,a5
20000500:	0001                	nop
20000502:	157d                	addi	a0,a0,-1
20000504:	fd75                	bnez	a0,20000500 <mDelayuS+0x6>
20000506:	8082                	ret

20000508 <mDelaymS>:
20000508:	1141                	addi	sp,sp,-16
2000050a:	c422                	sw	s0,8(sp)
2000050c:	c226                	sw	s1,4(sp)
2000050e:	c606                	sw	ra,12(sp)
20000510:	84aa                	mv	s1,a0
20000512:	4401                	li	s0,0
20000514:	00941763          	bne	s0,s1,20000522 <mDelaymS+0x1a>
20000518:	40b2                	lw	ra,12(sp)
2000051a:	4422                	lw	s0,8(sp)
2000051c:	4492                	lw	s1,4(sp)
2000051e:	0141                	addi	sp,sp,16
20000520:	8082                	ret
20000522:	0405                	addi	s0,s0,1
20000524:	3e800513          	li	a0,1000
20000528:	0442                	slli	s0,s0,0x10
2000052a:	3fc1                	jal	200004fa <mDelayuS>
2000052c:	8041                	srli	s0,s0,0x10
2000052e:	b7dd                	j	20000514 <mDelaymS+0xc>

20000530 <FLASH_ROM_BEG>:
20000530:	80040323          	sb	zero,-2042(s0)
20000534:	4715                	li	a4,5
20000536:	80e40323          	sb	a4,-2042(s0)
2000053a:	0001                	nop
2000053c:	80a40223          	sb	a0,-2044(s0)
20000540:	8082                	ret

20000542 <FLASH_ROM_END>:
20000542:	80640783          	lb	a5,-2042(s0)
20000546:	fe07cee3          	bltz	a5,20000542 <FLASH_ROM_END>
2000054a:	80040323          	sb	zero,-2042(s0)
2000054e:	8082                	ret

20000550 <FLASH_ROM_IN>:
20000550:	80640783          	lb	a5,-2042(s0)
20000554:	fe07cee3          	bltz	a5,20000550 <FLASH_ROM_IN>
20000558:	80444503          	lbu	a0,-2044(s0)
2000055c:	8082                	ret

2000055e <FLASH_ROM_OUT>:
2000055e:	80640783          	lb	a5,-2042(s0)
20000562:	fe07cee3          	bltz	a5,2000055e <FLASH_ROM_OUT>
20000566:	80a40223          	sb	a0,-2044(s0)
2000056a:	8082                	ret

2000056c <FLASH_ROM_ADDR>:
2000056c:	1141                	addi	sp,sp,-16
2000056e:	c426                	sw	s1,8(sp)
20000570:	c24a                	sw	s2,4(sp)
20000572:	c04e                	sw	s3,0(sp)
20000574:	c606                	sw	ra,12(sp)
20000576:	0bf57713          	andi	a4,a0,191
2000057a:	47ad                	li	a5,11
2000057c:	89aa                	mv	s3,a0
2000057e:	892e                	mv	s2,a1
20000580:	4495                	li	s1,5
20000582:	00f70663          	beq	a4,a5,2000058e <FLASH_ROM_ADDR+0x22>
20000586:	4519                	li	a0,6
20000588:	3765                	jal	20000530 <FLASH_ROM_BEG>
2000058a:	3f65                	jal	20000542 <FLASH_ROM_END>
2000058c:	448d                	li	s1,3
2000058e:	854e                	mv	a0,s3
20000590:	3745                	jal	20000530 <FLASH_ROM_BEG>
20000592:	59fd                	li	s3,-1
20000594:	14fd                	addi	s1,s1,-1
20000596:	01349863          	bne	s1,s3,200005a6 <FLASH_ROM_ADDR+0x3a>
2000059a:	40b2                	lw	ra,12(sp)
2000059c:	44a2                	lw	s1,8(sp)
2000059e:	4912                	lw	s2,4(sp)
200005a0:	4982                	lw	s3,0(sp)
200005a2:	0141                	addi	sp,sp,16
200005a4:	8082                	ret
200005a6:	01095513          	srli	a0,s2,0x10
200005aa:	0ff57513          	andi	a0,a0,255
200005ae:	3f45                	jal	2000055e <FLASH_ROM_OUT>
200005b0:	0922                	slli	s2,s2,0x8
200005b2:	b7cd                	j	20000594 <FLASH_ROM_ADDR+0x28>

200005b4 <FLASH_ROM_WAIT>:
200005b4:	1101                	addi	sp,sp,-32
200005b6:	cc26                	sw	s1,24(sp)
200005b8:	ce06                	sw	ra,28(sp)
200005ba:	000804b7          	lui	s1,0x80
200005be:	3751                	jal	20000542 <FLASH_ROM_END>
200005c0:	4515                	li	a0,5
200005c2:	37bd                	jal	20000530 <FLASH_ROM_BEG>
200005c4:	3771                	jal	20000550 <FLASH_ROM_IN>
200005c6:	3769                	jal	20000550 <FLASH_ROM_IN>
200005c8:	c62a                	sw	a0,12(sp)
200005ca:	3fa5                	jal	20000542 <FLASH_ROM_END>
200005cc:	4532                	lw	a0,12(sp)
200005ce:	00157793          	andi	a5,a0,1
200005d2:	eb89                	bnez	a5,200005e4 <FLASH_ROM_WAIT+0x30>
200005d4:	00156513          	ori	a0,a0,1
200005d8:	0ff57513          	andi	a0,a0,255
200005dc:	40f2                	lw	ra,28(sp)
200005de:	44e2                	lw	s1,24(sp)
200005e0:	6105                	addi	sp,sp,32
200005e2:	8082                	ret
200005e4:	14fd                	addi	s1,s1,-1
200005e6:	fce9                	bnez	s1,200005c0 <FLASH_ROM_WAIT+0xc>
200005e8:	4501                	li	a0,0
200005ea:	bfcd                	j	200005dc <FLASH_ROM_WAIT+0x28>

200005ec <FLASH_EEPROM_CMD>:
200005ec:	7139                	addi	sp,sp,-64
200005ee:	dc26                	sw	s1,56(sp)
200005f0:	da4a                	sw	s2,52(sp)
200005f2:	d84e                	sw	s3,48(sp)
200005f4:	d652                	sw	s4,44(sp)
200005f6:	d456                	sw	s5,40(sp)
200005f8:	d25a                	sw	s6,36(sp)
200005fa:	d05e                	sw	s7,32(sp)
200005fc:	de06                	sw	ra,60(sp)
200005fe:	ce62                	sw	s8,28(sp)
20000600:	cc66                	sw	s9,24(sp)
20000602:	e000e7b7          	lui	a5,0xe000e
20000606:	577d                	li	a4,-1
20000608:	0007aa83          	lw	s5,0(a5) # e000e000 <_eusrstack+0xc0006000>
2000060c:	c622                	sw	s0,12(sp)
2000060e:	0047aa03          	lw	s4,4(a5)
20000612:	18e7a023          	sw	a4,384(a5)
20000616:	18e7a223          	sw	a4,388(a5)
2000061a:	400017b7          	lui	a5,0x40001
2000061e:	05700713          	li	a4,87
20000622:	04e78023          	sb	a4,64(a5) # 40001040 <_eusrstack+0x1fff9040>
20000626:	fa800713          	li	a4,-88
2000062a:	04e78023          	sb	a4,64(a5)
2000062e:	0447c783          	lbu	a5,68(a5)
20000632:	ff750b93          	addi	s7,a0,-9
20000636:	84b6                	mv	s1,a3
20000638:	07e2                	slli	a5,a5,0x18
2000063a:	0ffbfb93          	andi	s7,s7,255
2000063e:	4685                	li	a3,1
20000640:	89aa                	mv	s3,a0
20000642:	8b2e                	mv	s6,a1
20000644:	8932                	mv	s2,a2
20000646:	40002437          	lui	s0,0x40002
2000064a:	87e1                	srai	a5,a5,0x18
2000064c:	5701                	li	a4,-32
2000064e:	0176fa63          	bgeu	a3,s7,20000662 <FLASH_EEPROM_CMD+0x76>
20000652:	00d50863          	beq	a0,a3,20000662 <FLASH_EEPROM_CMD+0x76>
20000656:	4689                	li	a3,2
20000658:	02000713          	li	a4,32
2000065c:	00d51363          	bne	a0,a3,20000662 <FLASH_EEPROM_CMD+0x76>
20000660:	5701                	li	a4,-32
20000662:	8fd9                	or	a5,a5,a4
20000664:	0ff7f793          	andi	a5,a5,255
20000668:	40001cb7          	lui	s9,0x40001
2000066c:	04fc8223          	sb	a5,68(s9) # 40001044 <_eusrstack+0x1fff9044>
20000670:	4711                	li	a4,4
20000672:	80e40323          	sb	a4,-2042(s0) # 40001806 <_eusrstack+0x1fff9806>
20000676:	0ff00513          	li	a0,255
2000067a:	3d5d                	jal	20000530 <FLASH_ROM_BEG>
2000067c:	4c09                	li	s8,2
2000067e:	35d1                	jal	20000542 <FLASH_ROM_END>
20000680:	117c6d63          	bltu	s8,s7,2000079a <FLASH_EEPROM_CMD+0x1ae>
20000684:	000705b7          	lui	a1,0x70
20000688:	95da                	add	a1,a1,s6
2000068a:	00078737          	lui	a4,0x78
2000068e:	5579                	li	a0,-2
20000690:	04e5f263          	bgeu	a1,a4,200006d4 <FLASH_EEPROM_CMD+0xe8>
20000694:	009587b3          	add	a5,a1,s1
20000698:	02f76e63          	bltu	a4,a5,200006d4 <FLASH_EEPROM_CMD+0xe8>
2000069c:	00080b37          	lui	s6,0x80
200006a0:	47a9                	li	a5,10
200006a2:	0165eb33          	or	s6,a1,s6
200006a6:	06f99963          	bne	s3,a5,20000718 <FLASH_EEPROM_CMD+0x12c>
200006aa:	e489                	bnez	s1,200006b4 <FLASH_EEPROM_CMD+0xc8>
200006ac:	4481                	li	s1,0
200006ae:	3d51                	jal	20000542 <FLASH_ROM_END>
200006b0:	8526                	mv	a0,s1
200006b2:	a00d                	j	200006d4 <FLASH_EEPROM_CMD+0xe8>
200006b4:	85da                	mv	a1,s6
200006b6:	4509                	li	a0,2
200006b8:	3d55                	jal	2000056c <FLASH_ROM_ADDR>
200006ba:	0905                	addi	s2,s2,1
200006bc:	fff94503          	lbu	a0,-1(s2)
200006c0:	14fd                	addi	s1,s1,-1
200006c2:	0b05                	addi	s6,s6,1
200006c4:	3d69                	jal	2000055e <FLASH_ROM_OUT>
200006c6:	c481                	beqz	s1,200006ce <FLASH_EEPROM_CMD+0xe2>
200006c8:	0ffb7793          	andi	a5,s6,255
200006cc:	f7fd                	bnez	a5,200006ba <FLASH_EEPROM_CMD+0xce>
200006ce:	35dd                	jal	200005b4 <FLASH_ROM_WAIT>
200006d0:	fd69                	bnez	a0,200006aa <FLASH_EEPROM_CMD+0xbe>
200006d2:	557d                	li	a0,-1
200006d4:	400017b7          	lui	a5,0x40001
200006d8:	05700713          	li	a4,87
200006dc:	04e78023          	sb	a4,64(a5) # 40001040 <_eusrstack+0x1fff9040>
200006e0:	fa800713          	li	a4,-88
200006e4:	04e78023          	sb	a4,64(a5)
200006e8:	0447c703          	lbu	a4,68(a5)
200006ec:	8b41                	andi	a4,a4,16
200006ee:	04e78223          	sb	a4,68(a5)
200006f2:	50f2                	lw	ra,60(sp)
200006f4:	e000e7b7          	lui	a5,0xe000e
200006f8:	1157a023          	sw	s5,256(a5) # e000e100 <_eusrstack+0xc0006100>
200006fc:	1147a223          	sw	s4,260(a5)
20000700:	54e2                	lw	s1,56(sp)
20000702:	4432                	lw	s0,12(sp)
20000704:	5952                	lw	s2,52(sp)
20000706:	59c2                	lw	s3,48(sp)
20000708:	5a32                	lw	s4,44(sp)
2000070a:	5aa2                	lw	s5,40(sp)
2000070c:	5b12                	lw	s6,36(sp)
2000070e:	5b82                	lw	s7,32(sp)
20000710:	4c72                	lw	s8,28(sp)
20000712:	4ce2                	lw	s9,24(sp)
20000714:	6121                	addi	sp,sp,64
20000716:	8082                	ret
20000718:	47a5                	li	a5,9
2000071a:	06f99563          	bne	s3,a5,20000784 <FLASH_EEPROM_CMD+0x198>
2000071e:	6985                	lui	s3,0x1
20000720:	0ff00913          	li	s2,255
20000724:	009906b3          	add	a3,s2,s1
20000728:	012b74b3          	and	s1,s6,s2
2000072c:	94b6                	add	s1,s1,a3
2000072e:	fff94913          	not	s2,s2
20000732:	009974b3          	and	s1,s2,s1
20000736:	6b85                	lui	s7,0x1
20000738:	01697933          	and	s2,s2,s6
2000073c:	6b41                	lui	s6,0x10
2000073e:	fff98793          	addi	a5,s3,-1 # fff <createNode+0x5b>
20000742:	0127f7b3          	and	a5,a5,s2
20000746:	e399                	bnez	a5,2000074c <FLASH_EEPROM_CMD+0x160>
20000748:	0134fc63          	bgeu	s1,s3,20000760 <FLASH_EEPROM_CMD+0x174>
2000074c:	0049d993          	srli	s3,s3,0x4
20000750:	47c1                	li	a5,16
20000752:	ff37e6e3          	bltu	a5,s3,2000073e <FLASH_EEPROM_CMD+0x152>
20000756:	bf99                	j	200006ac <FLASH_EEPROM_CMD+0xc0>
20000758:	6905                	lui	s2,0x1
2000075a:	69c1                	lui	s3,0x10
2000075c:	197d                	addi	s2,s2,-1
2000075e:	b7d9                	j	20000724 <FLASH_EEPROM_CMD+0x138>
20000760:	0d800513          	li	a0,216
20000764:	01698863          	beq	s3,s6,20000774 <FLASH_EEPROM_CMD+0x188>
20000768:	02000513          	li	a0,32
2000076c:	01798463          	beq	s3,s7,20000774 <FLASH_EEPROM_CMD+0x188>
20000770:	08100513          	li	a0,129
20000774:	85ca                	mv	a1,s2
20000776:	3bdd                	jal	2000056c <FLASH_ROM_ADDR>
20000778:	3d35                	jal	200005b4 <FLASH_ROM_WAIT>
2000077a:	dd21                	beqz	a0,200006d2 <FLASH_EEPROM_CMD+0xe6>
2000077c:	994e                	add	s2,s2,s3
2000077e:	413484b3          	sub	s1,s1,s3
20000782:	b7d9                	j	20000748 <FLASH_EEPROM_CMD+0x15c>
20000784:	85da                	mv	a1,s6
20000786:	452d                	li	a0,11
20000788:	33d5                	jal	2000056c <FLASH_ROM_ADDR>
2000078a:	94ca                	add	s1,s1,s2
2000078c:	f29900e3          	beq	s2,s1,200006ac <FLASH_EEPROM_CMD+0xc0>
20000790:	0905                	addi	s2,s2,1
20000792:	3b7d                	jal	20000550 <FLASH_ROM_IN>
20000794:	fea90fa3          	sb	a0,-1(s2) # fff <createNode+0x5b>
20000798:	bfd5                	j	2000078c <FLASH_EEPROM_CMD+0x1a0>
2000079a:	fff98793          	addi	a5,s3,-1 # ffff <_data_lma+0x6bfb>
2000079e:	0ff7f793          	andi	a5,a5,255
200007a2:	0cfc6163          	bltu	s8,a5,20000864 <.loop402+0x7a>
200007a6:	041cc783          	lbu	a5,65(s9)
200007aa:	08300713          	li	a4,131
200007ae:	04f71f63          	bne	a4,a5,2000080c <.loop402+0x22>
200007b2:	00080737          	lui	a4,0x80
200007b6:	04eb6b63          	bltu	s6,a4,2000080c <.loop402+0x22>
200007ba:	009b07b3          	add	a5,s6,s1
200007be:	001006b7          	lui	a3,0x100
200007c2:	04d7f563          	bgeu	a5,a3,2000080c <.loop402+0x22>
200007c6:	00eb4b33          	xor	s6,s6,a4
200007ca:	4789                	li	a5,2
200007cc:	06f99363          	bne	s3,a5,20000832 <.loop402+0x48>
200007d0:	8089                	srli	s1,s1,0x2
200007d2:	49d5                	li	s3,21
200007d4:	ec048ce3          	beqz	s1,200006ac <FLASH_EEPROM_CMD+0xc0>
200007d8:	85da                	mv	a1,s6
200007da:	4509                	li	a0,2
200007dc:	3b41                	jal	2000056c <FLASH_ROM_ADDR>
200007de:	0911                	addi	s2,s2,4
200007e0:	ffc92703          	lw	a4,-4(s2)
200007e4:	4791                	li	a5,4
200007e6:	80e42023          	sw	a4,-2048(s0)

200007ea <.loop402>:
200007ea:	80640703          	lb	a4,-2042(s0)
200007ee:	fe074ee3          	bltz	a4,200007ea <.loop402>
200007f2:	81340323          	sb	s3,-2042(s0)
200007f6:	17fd                	addi	a5,a5,-1
200007f8:	fbed                	bnez	a5,200007ea <.loop402>
200007fa:	14fd                	addi	s1,s1,-1
200007fc:	0b11                	addi	s6,s6,4
200007fe:	c481                	beqz	s1,20000806 <.loop402+0x1c>
20000800:	0ffb7793          	andi	a5,s6,255
20000804:	ffe9                	bnez	a5,200007de <FLASH_EEPROM_CMD+0x1f2>
20000806:	337d                	jal	200005b4 <FLASH_ROM_WAIT>
20000808:	f571                	bnez	a0,200007d4 <FLASH_EEPROM_CMD+0x1e8>
2000080a:	b5e1                	j	200006d2 <FLASH_EEPROM_CMD+0xe6>
2000080c:	400017b7          	lui	a5,0x40001
20000810:	0457c703          	lbu	a4,69(a5) # 40001045 <_eusrstack+0x1fff9045>
20000814:	000807b7          	lui	a5,0x80
20000818:	02077713          	andi	a4,a4,32
2000081c:	e319                	bnez	a4,20000822 <.loop402+0x38>
2000081e:	000787b7          	lui	a5,0x78
20000822:	5579                	li	a0,-2
20000824:	eafb78e3          	bgeu	s6,a5,200006d4 <FLASH_EEPROM_CMD+0xe8>
20000828:	009b0733          	add	a4,s6,s1
2000082c:	f8e7ffe3          	bgeu	a5,a4,200007ca <FLASH_EEPROM_CMD+0x1de>
20000830:	b555                	j	200006d4 <FLASH_EEPROM_CMD+0xe8>
20000832:	4785                	li	a5,1
20000834:	f2f982e3          	beq	s3,a5,20000758 <FLASH_EEPROM_CMD+0x16c>
20000838:	85da                	mv	a1,s6
2000083a:	452d                	li	a0,11
2000083c:	3b05                	jal	2000056c <FLASH_ROM_ADDR>
2000083e:	fff48993          	addi	s3,s1,-1 # 7ffff <_data_lma+0x76bfb>
20000842:	e60485e3          	beqz	s1,200006ac <FLASH_EEPROM_CMD+0xc0>
20000846:	3329                	jal	20000550 <FLASH_ROM_IN>
20000848:	0039f793          	andi	a5,s3,3
2000084c:	eb91                	bnez	a5,20000860 <.loop402+0x76>
2000084e:	80042683          	lw	a3,-2048(s0)
20000852:	00092703          	lw	a4,0(s2)
20000856:	00490793          	addi	a5,s2,4
2000085a:	e4e69ae3          	bne	a3,a4,200006ae <FLASH_EEPROM_CMD+0xc2>
2000085e:	893e                	mv	s2,a5
20000860:	84ce                	mv	s1,s3
20000862:	bff1                	j	2000083e <.loop402+0x54>
20000864:	47b5                	li	a5,13
20000866:	00f99663          	bne	s3,a5,20000872 <.loop402+0x88>
2000086a:	0b900513          	li	a0,185
2000086e:	31c9                	jal	20000530 <FLASH_ROM_BEG>
20000870:	bd35                	j	200006ac <FLASH_EEPROM_CMD+0xc0>
20000872:	47b1                	li	a5,12
20000874:	0ab00513          	li	a0,171
20000878:	fef98be3          	beq	s3,a5,2000086e <.loop402+0x84>
2000087c:	4799                	li	a5,6
2000087e:	04f99163          	bne	s3,a5,200008c0 <.loop402+0xd6>
20000882:	000805b7          	lui	a1,0x80
20000886:	00bb65b3          	or	a1,s6,a1
2000088a:	452d                	li	a0,11
2000088c:	31c5                	jal	2000056c <FLASH_ROM_ADDR>
2000088e:	4481                	li	s1,0
20000890:	4b8d                	li	s7,3
20000892:	49a1                	li	s3,8
20000894:	3975                	jal	20000550 <FLASH_ROM_IN>
20000896:	01749663          	bne	s1,s7,200008a2 <.loop402+0xb8>
2000089a:	80042783          	lw	a5,-2048(s0)
2000089e:	00f92023          	sw	a5,0(s2)
200008a2:	0485                	addi	s1,s1,1
200008a4:	ff3498e3          	bne	s1,s3,20000894 <.loop402+0xaa>
200008a8:	80042783          	lw	a5,-2048(s0)
200008ac:	012b1713          	slli	a4,s6,0x12
200008b0:	00075563          	bgez	a4,200008ba <.loop402+0xd0>
200008b4:	00f91223          	sh	a5,4(s2)
200008b8:	bbd5                	j	200006ac <FLASH_EEPROM_CMD+0xc0>
200008ba:	00f92223          	sw	a5,4(s2)
200008be:	b3fd                	j	200006ac <FLASH_EEPROM_CMD+0xc0>
200008c0:	479d                	li	a5,7
200008c2:	02f99963          	bne	s3,a5,200008f4 <.loop402+0x10a>
200008c6:	4581                	li	a1,0
200008c8:	04b00513          	li	a0,75
200008cc:	3145                	jal	2000056c <FLASH_ROM_ADDR>
200008ce:	44bd                	li	s1,15
200008d0:	00092023          	sw	zero,0(s2)
200008d4:	00092223          	sw	zero,4(s2)
200008d8:	59fd                	li	s3,-1
200008da:	399d                	jal	20000550 <FLASH_ROM_IN>
200008dc:	0074f793          	andi	a5,s1,7
200008e0:	97ca                	add	a5,a5,s2
200008e2:	0007c703          	lbu	a4,0(a5) # 78000 <_data_lma+0x6ebfc>
200008e6:	14fd                	addi	s1,s1,-1
200008e8:	8d39                	xor	a0,a0,a4
200008ea:	00a78023          	sb	a0,0(a5)
200008ee:	ff3496e3          	bne	s1,s3,200008da <.loop402+0xf0>
200008f2:	bb6d                	j	200006ac <FLASH_EEPROM_CMD+0xc0>
200008f4:	47a1                	li	a5,8
200008f6:	04f99263          	bne	s3,a5,2000093a <.loop402+0x150>
200008fa:	396d                	jal	200005b4 <FLASH_ROM_WAIT>
200008fc:	4481                	li	s1,0
200008fe:	000b0d63          	beqz	s6,20000918 <.loop402+0x12e>
20000902:	478d                	li	a5,3
20000904:	03c00493          	li	s1,60
20000908:	00fb0863          	beq	s6,a5,20000918 <.loop402+0x12e>
2000090c:	05000493          	li	s1,80
20000910:	018b0463          	beq	s6,s8,20000918 <.loop402+0x12e>
20000914:	04400493          	li	s1,68
20000918:	07c57513          	andi	a0,a0,124
2000091c:	d89508e3          	beq	a0,s1,200006ac <FLASH_EEPROM_CMD+0xc0>
20000920:	4519                	li	a0,6
20000922:	3139                	jal	20000530 <FLASH_ROM_BEG>
20000924:	3939                	jal	20000542 <FLASH_ROM_END>
20000926:	4505                	li	a0,1
20000928:	3121                	jal	20000530 <FLASH_ROM_BEG>
2000092a:	8526                	mv	a0,s1
2000092c:	390d                	jal	2000055e <FLASH_ROM_OUT>
2000092e:	4509                	li	a0,2
20000930:	313d                	jal	2000055e <FLASH_ROM_OUT>
20000932:	3149                	jal	200005b4 <FLASH_ROM_WAIT>
20000934:	d6051ce3          	bnez	a0,200006ac <FLASH_EEPROM_CMD+0xc0>
20000938:	bb69                	j	200006d2 <FLASH_EEPROM_CMD+0xe6>
2000093a:	4791                	li	a5,4
2000093c:	00f99963          	bne	s3,a5,2000094e <.loop402+0x164>
20000940:	06600513          	li	a0,102
20000944:	36f5                	jal	20000530 <FLASH_ROM_BEG>
20000946:	3ef5                	jal	20000542 <FLASH_ROM_END>
20000948:	09900513          	li	a0,153
2000094c:	b70d                	j	2000086e <.loop402+0x84>
2000094e:	d4098fe3          	beqz	s3,200006ac <FLASH_EEPROM_CMD+0xc0>
20000952:	54f1                	li	s1,-4
20000954:	bba9                	j	200006ae <FLASH_EEPROM_CMD+0xc2>
	...

Disassembly of section .text:

00000960 <handle_reset>:
     960:	20001197          	auipc	gp,0x20001
     964:	9c818193          	addi	gp,gp,-1592 # 20001328 <__global_pointer$>
     968:	20007117          	auipc	sp,0x20007
     96c:	69810113          	addi	sp,sp,1688 # 20008000 <_eusrstack>
     970:	00400513          	li	a0,4
     974:	1ffff597          	auipc	a1,0x1ffff
     978:	68c58593          	addi	a1,a1,1676 # 20000000 <_highcode_vma_start>
     97c:	20000617          	auipc	a2,0x20000
     980:	fdc60613          	addi	a2,a2,-36 # 20000958 <_highcode_vma_end>
     984:	00c5fa63          	bgeu	a1,a2,998 <handle_reset+0x38>
     988:	00052283          	lw	t0,0(a0)
     98c:	0055a023          	sw	t0,0(a1)
     990:	0511                	addi	a0,a0,4
     992:	0591                	addi	a1,a1,4
     994:	fec5eae3          	bltu	a1,a2,988 <handle_reset+0x28>
     998:	00009517          	auipc	a0,0x9
     99c:	a6c50513          	addi	a0,a0,-1428 # 9404 <_data_lma>
     9a0:	20000597          	auipc	a1,0x20000
     9a4:	fb858593          	addi	a1,a1,-72 # 20000958 <_highcode_vma_end>
     9a8:	80818613          	addi	a2,gp,-2040 # 20000b30 <_edata>
     9ac:	00c5fa63          	bgeu	a1,a2,9c0 <handle_reset+0x60>
     9b0:	00052283          	lw	t0,0(a0)
     9b4:	0055a023          	sw	t0,0(a1)
     9b8:	0511                	addi	a0,a0,4
     9ba:	0591                	addi	a1,a1,4
     9bc:	fec5eae3          	bltu	a1,a2,9b0 <handle_reset+0x50>
     9c0:	80818513          	addi	a0,gp,-2040 # 20000b30 <_edata>
     9c4:	78418593          	addi	a1,gp,1924 # 20001aac <_ebss>
     9c8:	00b57763          	bgeu	a0,a1,9d6 <handle_reset+0x76>
     9cc:	00052023          	sw	zero,0(a0)
     9d0:	0511                	addi	a0,a0,4
     9d2:	feb56de3          	bltu	a0,a1,9cc <handle_reset+0x6c>
     9d6:	42fd                	li	t0,31
     9d8:	bc029073          	csrw	0xbc0,t0
     9dc:	428d                	li	t0,3
     9de:	80429073          	csrw	0x804,t0
     9e2:	000022b7          	lui	t0,0x2
     9e6:	88828293          	addi	t0,t0,-1912 # 1888 <moduleRecvParser+0x6c>
     9ea:	3002a073          	csrs	mstatus,t0
     9ee:	1ffff297          	auipc	t0,0x1ffff
     9f2:	61228293          	addi	t0,t0,1554 # 20000000 <_highcode_vma_start>
     9f6:	0032e293          	ori	t0,t0,3
     9fa:	30529073          	csrw	mtvec,t0
     9fe:	00000297          	auipc	t0,0x0
     a02:	3f028293          	addi	t0,t0,1008 # dee <main>
     a06:	34129073          	csrw	mepc,t0
     a0a:	30200073          	mret

00000a0e <memset>:
     a0e:	433d                	li	t1,15
     a10:	872a                	mv	a4,a0
     a12:	02c37363          	bgeu	t1,a2,a38 <memset+0x2a>
     a16:	00f77793          	andi	a5,a4,15
     a1a:	efbd                	bnez	a5,a98 <memset+0x8a>
     a1c:	e5ad                	bnez	a1,a86 <memset+0x78>
     a1e:	ff067693          	andi	a3,a2,-16
     a22:	8a3d                	andi	a2,a2,15
     a24:	96ba                	add	a3,a3,a4
     a26:	c30c                	sw	a1,0(a4)
     a28:	c34c                	sw	a1,4(a4)
     a2a:	c70c                	sw	a1,8(a4)
     a2c:	c74c                	sw	a1,12(a4)
     a2e:	0741                	addi	a4,a4,16
     a30:	fed76be3          	bltu	a4,a3,a26 <memset+0x18>
     a34:	e211                	bnez	a2,a38 <memset+0x2a>
     a36:	8082                	ret
     a38:	40c306b3          	sub	a3,t1,a2
     a3c:	068a                	slli	a3,a3,0x2
     a3e:	00000297          	auipc	t0,0x0
     a42:	9696                	add	a3,a3,t0
     a44:	00a68067          	jr	10(a3) # 10000a <_data_lma+0xf6c06>
     a48:	00b70723          	sb	a1,14(a4) # 8000e <_data_lma+0x76c0a>
     a4c:	00b706a3          	sb	a1,13(a4)
     a50:	00b70623          	sb	a1,12(a4)
     a54:	00b705a3          	sb	a1,11(a4)
     a58:	00b70523          	sb	a1,10(a4)
     a5c:	00b704a3          	sb	a1,9(a4)
     a60:	00b70423          	sb	a1,8(a4)
     a64:	00b703a3          	sb	a1,7(a4)
     a68:	00b70323          	sb	a1,6(a4)
     a6c:	00b702a3          	sb	a1,5(a4)
     a70:	00b70223          	sb	a1,4(a4)
     a74:	00b701a3          	sb	a1,3(a4)
     a78:	00b70123          	sb	a1,2(a4)
     a7c:	00b700a3          	sb	a1,1(a4)
     a80:	00b70023          	sb	a1,0(a4)
     a84:	8082                	ret
     a86:	0ff5f593          	andi	a1,a1,255
     a8a:	00859693          	slli	a3,a1,0x8
     a8e:	8dd5                	or	a1,a1,a3
     a90:	01059693          	slli	a3,a1,0x10
     a94:	8dd5                	or	a1,a1,a3
     a96:	b761                	j	a1e <memset+0x10>
     a98:	00279693          	slli	a3,a5,0x2
     a9c:	00000297          	auipc	t0,0x0
     aa0:	9696                	add	a3,a3,t0
     aa2:	8286                	mv	t0,ra
     aa4:	fa8680e7          	jalr	-88(a3)
     aa8:	8096                	mv	ra,t0
     aaa:	17c1                	addi	a5,a5,-16
     aac:	8f1d                	sub	a4,a4,a5
     aae:	963e                	add	a2,a2,a5
     ab0:	f8c374e3          	bgeu	t1,a2,a38 <memset+0x2a>
     ab4:	b7a5                	j	a1c <memset+0xe>

00000ab6 <flashEarseByFileSize>:
     ab6:	1141                	addi	sp,sp,-16
     ab8:	00c5d693          	srli	a3,a1,0xc
     abc:	06c2                	slli	a3,a3,0x10
     abe:	c606                	sw	ra,12(sp)
     ac0:	01459793          	slli	a5,a1,0x14
     ac4:	82c1                	srli	a3,a3,0x10
     ac6:	c781                	beqz	a5,ace <flashEarseByFileSize+0x18>
     ac8:	0685                	addi	a3,a3,1
     aca:	06c2                	slli	a3,a3,0x10
     acc:	82c1                	srli	a3,a3,0x10
     ace:	85aa                	mv	a1,a0
     ad0:	4601                	li	a2,0
     ad2:	06b2                	slli	a3,a3,0xc
     ad4:	4505                	li	a0,1
     ad6:	20000097          	auipc	ra,0x20000
     ada:	b16080e7          	jalr	-1258(ra) # 200005ec <FLASH_EEPROM_CMD>
     ade:	40b2                	lw	ra,12(sp)
     ae0:	862a                	mv	a2,a0
     ae2:	00008597          	auipc	a1,0x8
     ae6:	94258593          	addi	a1,a1,-1726 # 8424 <_sbrk+0x22>
     aea:	4525                	li	a0,9
     aec:	0141                	addi	sp,sp,16
     aee:	3e70106f          	j	26d4 <LogPrintf>

00000af2 <flashWriteCode>:
     af2:	bf010113          	addi	sp,sp,-1040
     af6:	40812423          	sw	s0,1032(sp)
     afa:	842a                	mv	s0,a0
     afc:	850a                	mv	a0,sp
     afe:	40112623          	sw	ra,1036(sp)
     b02:	3b3030ef          	jal	ra,46b4 <memcpy>
     b06:	40000693          	li	a3,1024
     b0a:	860a                	mv	a2,sp
     b0c:	85a2                	mv	a1,s0
     b0e:	4509                	li	a0,2
     b10:	20000097          	auipc	ra,0x20000
     b14:	adc080e7          	jalr	-1316(ra) # 200005ec <FLASH_EEPROM_CMD>
     b18:	862a                	mv	a2,a0
     b1a:	00008597          	auipc	a1,0x8
     b1e:	91a58593          	addi	a1,a1,-1766 # 8434 <_sbrk+0x32>
     b22:	4525                	li	a0,9
     b24:	3b1010ef          	jal	ra,26d4 <LogPrintf>
     b28:	860a                	mv	a2,sp
     b2a:	85a2                	mv	a1,s0
     b2c:	40000693          	li	a3,1024
     b30:	450d                	li	a0,3
     b32:	20000097          	auipc	ra,0x20000
     b36:	aba080e7          	jalr	-1350(ra) # 200005ec <FLASH_EEPROM_CMD>
     b3a:	842a                	mv	s0,a0
     b3c:	862a                	mv	a2,a0
     b3e:	00008597          	auipc	a1,0x8
     b42:	90658593          	addi	a1,a1,-1786 # 8444 <_sbrk+0x42>
     b46:	4525                	li	a0,9
     b48:	38d010ef          	jal	ra,26d4 <LogPrintf>
     b4c:	00143513          	seqz	a0,s0
     b50:	40c12083          	lw	ra,1036(sp)
     b54:	40812403          	lw	s0,1032(sp)
     b58:	41010113          	addi	sp,sp,1040
     b5c:	8082                	ret

00000b5e <systemTickInc>:
     b5e:	80818713          	addi	a4,gp,-2040 # 20000b30 <_edata>
     b62:	431c                	lw	a5,0(a4)
     b64:	0785                	addi	a5,a5,1
     b66:	c31c                	sw	a5,0(a4)
     b68:	8082                	ret

00000b6a <startTimer>:
     b6a:	1101                	addi	sp,sp,-32
     b6c:	83418793          	addi	a5,gp,-1996 # 20000b5c <timer_list>
     b70:	cc22                	sw	s0,24(sp)
     b72:	ca26                	sw	s1,20(sp)
     b74:	c64e                	sw	s3,12(sp)
     b76:	c452                	sw	s4,8(sp)
     b78:	c256                	sw	s5,4(sp)
     b7a:	ce06                	sw	ra,28(sp)
     b7c:	c84a                	sw	s2,16(sp)
     b7e:	c05a                	sw	s6,0(sp)
     b80:	84aa                	mv	s1,a0
     b82:	8a2e                	mv	s4,a1
     b84:	8ab2                	mv	s5,a2
     b86:	4401                	li	s0,0
     b88:	89be                	mv	s3,a5
     b8a:	4741                	li	a4,16
     b8c:	008786b3          	add	a3,a5,s0
     b90:	0006c683          	lbu	a3,0(a3)
     b94:	eaf1                	bnez	a3,c68 <startTimer+0xfe>
     b96:	80c18793          	addi	a5,gp,-2036 # 20000b34 <timer_head>
     b9a:	0007a903          	lw	s2,0(a5)
     b9e:	0ff47b13          	andi	s6,s0,255
     ba2:	06091363          	bnez	s2,c08 <startTimer+0x9e>
     ba6:	4561                	li	a0,24
     ba8:	2f1030ef          	jal	ra,4698 <malloc>
     bac:	80a1a623          	sw	a0,-2036(gp) # 20000b34 <timer_head>
     bb0:	cd25                	beqz	a0,c28 <startTimer+0xbe>
     bb2:	80818793          	addi	a5,gp,-2040 # 20000b30 <_edata>
     bb6:	439c                	lw	a5,0(a5)
     bb8:	01650023          	sb	s6,0(a0)
     bbc:	015500a3          	sb	s5,1(a0)
     bc0:	c51c                	sw	a5,8(a0)
     bc2:	97a6                	add	a5,a5,s1
     bc4:	c55c                	sw	a5,12(a0)
     bc6:	c144                	sw	s1,4(a0)
     bc8:	00050123          	sb	zero,2(a0)
     bcc:	01452823          	sw	s4,16(a0)
     bd0:	00052a23          	sw	zero,20(a0)
     bd4:	8622                	mv	a2,s0
     bd6:	00008597          	auipc	a1,0x8
     bda:	89658593          	addi	a1,a1,-1898 # 846c <_sbrk+0x6a>
     bde:	4525                	li	a0,9
     be0:	2f5010ef          	jal	ra,26d4 <LogPrintf>
     be4:	99a2                	add	s3,s3,s0
     be6:	4785                	li	a5,1
     be8:	01841513          	slli	a0,s0,0x18
     bec:	00f98023          	sb	a5,0(s3)
     bf0:	8561                	srai	a0,a0,0x18
     bf2:	40f2                	lw	ra,28(sp)
     bf4:	4462                	lw	s0,24(sp)
     bf6:	44d2                	lw	s1,20(sp)
     bf8:	4942                	lw	s2,16(sp)
     bfa:	49b2                	lw	s3,12(sp)
     bfc:	4a22                	lw	s4,8(sp)
     bfe:	4a92                	lw	s5,4(sp)
     c00:	4b02                	lw	s6,0(sp)
     c02:	6105                	addi	sp,sp,32
     c04:	8082                	ret
     c06:	893e                	mv	s2,a5
     c08:	01492783          	lw	a5,20(s2)
     c0c:	ffed                	bnez	a5,c06 <startTimer+0x9c>
     c0e:	4561                	li	a0,24
     c10:	289030ef          	jal	ra,4698 <malloc>
     c14:	00a92a23          	sw	a0,20(s2)
     c18:	e10d                	bnez	a0,c3a <startTimer+0xd0>
     c1a:	00008597          	auipc	a1,0x8
     c1e:	86e58593          	addi	a1,a1,-1938 # 8488 <_sbrk+0x86>
     c22:	4525                	li	a0,9
     c24:	185010ef          	jal	ra,25a8 <LogMessage>
     c28:	4525                	li	a0,9
     c2a:	00008597          	auipc	a1,0x8
     c2e:	89258593          	addi	a1,a1,-1902 # 84bc <_sbrk+0xba>
     c32:	177010ef          	jal	ra,25a8 <LogMessage>
     c36:	557d                	li	a0,-1
     c38:	bf6d                	j	bf2 <startTimer+0x88>
     c3a:	80818793          	addi	a5,gp,-2040 # 20000b30 <_edata>
     c3e:	439c                	lw	a5,0(a5)
     c40:	01452823          	sw	s4,16(a0)
     c44:	00052a23          	sw	zero,20(a0)
     c48:	c51c                	sw	a5,8(a0)
     c4a:	97a6                	add	a5,a5,s1
     c4c:	c55c                	sw	a5,12(a0)
     c4e:	015500a3          	sb	s5,1(a0)
     c52:	c144                	sw	s1,4(a0)
     c54:	00050123          	sb	zero,2(a0)
     c58:	01650023          	sb	s6,0(a0)
     c5c:	8622                	mv	a2,s0
     c5e:	00008597          	auipc	a1,0x8
     c62:	84258593          	addi	a1,a1,-1982 # 84a0 <_sbrk+0x9e>
     c66:	bfa5                	j	bde <startTimer+0x74>
     c68:	0405                	addi	s0,s0,1
     c6a:	f2e411e3          	bne	s0,a4,b8c <startTimer+0x22>
     c6e:	bf6d                	j	c28 <startTimer+0xbe>

00000c70 <stopTimer>:
     c70:	1141                	addi	sp,sp,-16
     c72:	80c18793          	addi	a5,gp,-2036 # 20000b34 <timer_head>
     c76:	c04a                	sw	s2,0(sp)
     c78:	0007a903          	lw	s2,0(a5)
     c7c:	c422                	sw	s0,8(sp)
     c7e:	c226                	sw	s1,4(sp)
     c80:	c606                	sw	ra,12(sp)
     c82:	844a                	mv	s0,s2
     c84:	84be                	mv	s1,a5
     c86:	cc0d                	beqz	s0,cc0 <stopTimer+0x50>
     c88:	00044783          	lbu	a5,0(s0)
     c8c:	04a79a63          	bne	a5,a0,ce0 <stopTimer+0x70>
     c90:	862a                	mv	a2,a0
     c92:	00008597          	auipc	a1,0x8
     c96:	83e58593          	addi	a1,a1,-1986 # 84d0 <_sbrk+0xce>
     c9a:	4525                	li	a0,9
     c9c:	239010ef          	jal	ra,26d4 <LogPrintf>
     ca0:	00044703          	lbu	a4,0(s0)
     ca4:	4094                	lw	a3,0(s1)
     ca6:	83418793          	addi	a5,gp,-1996 # 20000b5c <timer_list>
     caa:	97ba                	add	a5,a5,a4
     cac:	00078023          	sb	zero,0(a5)
     cb0:	4844                	lw	s1,20(s0)
     cb2:	00869d63          	bne	a3,s0,ccc <stopTimer+0x5c>
     cb6:	8522                	mv	a0,s0
     cb8:	1ef030ef          	jal	ra,46a6 <free>
     cbc:	8091a623          	sw	s1,-2036(gp) # 20000b34 <timer_head>
     cc0:	40b2                	lw	ra,12(sp)
     cc2:	4422                	lw	s0,8(sp)
     cc4:	4492                	lw	s1,4(sp)
     cc6:	4902                	lw	s2,0(sp)
     cc8:	0141                	addi	sp,sp,16
     cca:	8082                	ret
     ccc:	8522                	mv	a0,s0
     cce:	4422                	lw	s0,8(sp)
     cd0:	00992a23          	sw	s1,20(s2)
     cd4:	40b2                	lw	ra,12(sp)
     cd6:	4492                	lw	s1,4(sp)
     cd8:	4902                	lw	s2,0(sp)
     cda:	0141                	addi	sp,sp,16
     cdc:	1cb0306f          	j	46a6 <free>
     ce0:	8922                	mv	s2,s0
     ce2:	4840                	lw	s0,20(s0)
     ce4:	b74d                	j	c86 <stopTimer+0x16>

00000ce6 <kernalRun>:
     ce6:	1101                	addi	sp,sp,-32
     ce8:	ca26                	sw	s1,20(sp)
     cea:	80c18493          	addi	s1,gp,-2036 # 20000b34 <timer_head>
     cee:	cc22                	sw	s0,24(sp)
     cf0:	4080                	lw	s0,0(s1)
     cf2:	c84a                	sw	s2,16(sp)
     cf4:	c452                	sw	s4,8(sp)
     cf6:	c256                	sw	s5,4(sp)
     cf8:	c05a                	sw	s6,0(sp)
     cfa:	ce06                	sw	ra,28(sp)
     cfc:	c64e                	sw	s3,12(sp)
     cfe:	8922                	mv	s2,s0
     d00:	80818a13          	addi	s4,gp,-2040 # 20000b30 <_edata>
     d04:	83418a93          	addi	s5,gp,-1996 # 20000b5c <timer_list>
     d08:	00007b17          	auipc	s6,0x7
     d0c:	74cb0b13          	addi	s6,s6,1868 # 8454 <_sbrk+0x52>
     d10:	e819                	bnez	s0,d26 <kernalRun+0x40>
     d12:	40f2                	lw	ra,28(sp)
     d14:	4462                	lw	s0,24(sp)
     d16:	44d2                	lw	s1,20(sp)
     d18:	4942                	lw	s2,16(sp)
     d1a:	49b2                	lw	s3,12(sp)
     d1c:	4a22                	lw	s4,8(sp)
     d1e:	4a92                	lw	s5,4(sp)
     d20:	4b02                	lw	s6,0(sp)
     d22:	6105                	addi	sp,sp,32
     d24:	8082                	ret
     d26:	00244783          	lbu	a5,2(s0)
     d2a:	e3b5                	bnez	a5,d8e <kernalRun+0xa8>
     d2c:	4458                	lw	a4,12(s0)
     d2e:	000a2783          	lw	a5,0(s4)
     d32:	04e7ee63          	bltu	a5,a4,d8e <kernalRun+0xa8>
     d36:	481c                	lw	a5,16(s0)
     d38:	9782                	jalr	a5
     d3a:	00144783          	lbu	a5,1(s0)
     d3e:	ebb9                	bnez	a5,d94 <kernalRun+0xae>
     d40:	409c                	lw	a5,0(s1)
     d42:	00044603          	lbu	a2,0(s0)
     d46:	02879563          	bne	a5,s0,d70 <kernalRun+0x8a>
     d4a:	00ca87b3          	add	a5,s5,a2
     d4e:	85da                	mv	a1,s6
     d50:	4525                	li	a0,9
     d52:	00078023          	sb	zero,0(a5)
     d56:	17f010ef          	jal	ra,26d4 <LogPrintf>
     d5a:	4088                	lw	a0,0(s1)
     d5c:	01442983          	lw	s3,20(s0)
     d60:	844a                	mv	s0,s2
     d62:	145030ef          	jal	ra,46a6 <free>
     d66:	8131a623          	sw	s3,-2036(gp) # 20000b34 <timer_head>
     d6a:	8922                	mv	s2,s0
     d6c:	844e                	mv	s0,s3
     d6e:	b74d                	j	d10 <kernalRun+0x2a>
     d70:	00ca87b3          	add	a5,s5,a2
     d74:	85da                	mv	a1,s6
     d76:	4525                	li	a0,9
     d78:	00078023          	sb	zero,0(a5)
     d7c:	159010ef          	jal	ra,26d4 <LogPrintf>
     d80:	485c                	lw	a5,20(s0)
     d82:	8522                	mv	a0,s0
     d84:	844a                	mv	s0,s2
     d86:	00f92a23          	sw	a5,20(s2)
     d8a:	11d030ef          	jal	ra,46a6 <free>
     d8e:	01442983          	lw	s3,20(s0)
     d92:	bfe1                	j	d6a <kernalRun+0x84>
     d94:	405c                	lw	a5,4(s0)
     d96:	000a2703          	lw	a4,0(s4)
     d9a:	97ba                	add	a5,a5,a4
     d9c:	c45c                	sw	a5,12(s0)
     d9e:	bfc5                	j	d8e <kernalRun+0xa8>

00000da0 <createSystemTask>:
     da0:	87ae                	mv	a5,a1
     da2:	4605                	li	a2,1
     da4:	85aa                	mv	a1,a0
     da6:	853e                	mv	a0,a5
     da8:	b3c9                	j	b6a <startTimer>

00000daa <myTask>:
     daa:	1141                	addi	sp,sp,-16
     dac:	c606                	sw	ra,12(sp)
     dae:	216d                	jal	1258 <netConnectTask>
     db0:	40b2                	lw	ra,12(sp)
     db2:	0141                	addi	sp,sp,16
     db4:	3620206f          	j	3116 <upgradeRunTask>

00000db8 <ledRunTask>:
     db8:	8101c783          	lbu	a5,-2032(gp) # 20000b38 <flag.4220>
     dbc:	0017c713          	xori	a4,a5,1
     dc0:	80e18823          	sb	a4,-2032(gp) # 20000b38 <flag.4220>
     dc4:	4705                	li	a4,1
     dc6:	00e78b63          	beq	a5,a4,ddc <ledRunTask+0x24>
     dca:	40001737          	lui	a4,0x40001
     dce:	0c872783          	lw	a5,200(a4) # 400010c8 <_eusrstack+0x1fff90c8>
     dd2:	4007e793          	ori	a5,a5,1024
     dd6:	0cf72423          	sw	a5,200(a4)
     dda:	8082                	ret
     ddc:	40001737          	lui	a4,0x40001
     de0:	0cc72783          	lw	a5,204(a4) # 400010cc <_eusrstack+0x1fff90cc>
     de4:	4007e793          	ori	a5,a5,1024
     de8:	0cf72623          	sw	a5,204(a4)
     dec:	8082                	ret

00000dee <main>:
     dee:	1141                	addi	sp,sp,-16
     df0:	02200513          	li	a0,34
     df4:	c606                	sw	ra,12(sp)
     df6:	c422                	sw	s0,8(sp)
     df8:	1ffff097          	auipc	ra,0x1ffff
     dfc:	532080e7          	jalr	1330(ra) # 2000032a <SetSysClock>
     e00:	6471                	lui	s0,0x1c
     e02:	438010ef          	jal	ra,223a <portGpioSetDefCfg>
     e06:	4681                	li	a3,0
     e08:	20040613          	addi	a2,s0,512 # 1c200 <_data_lma+0x12dfc>
     e0c:	4585                	li	a1,1
     e0e:	4509                	li	a0,2
     e10:	0cc010ef          	jal	ra,1edc <portUartCfg>
     e14:	6f1000ef          	jal	ra,1d04 <paramInit>
     e18:	5e11c783          	lbu	a5,1505(gp) # 20001909 <sysparam+0x1>
     e1c:	e395                	bnez	a5,e40 <main+0x52>
     e1e:	00007597          	auipc	a1,0x7
     e22:	6c658593          	addi	a1,a1,1734 # 84e4 <_sbrk+0xe2>
     e26:	4501                	li	a0,0
     e28:	780010ef          	jal	ra,25a8 <LogMessage>
     e2c:	4509                	li	a0,2
     e2e:	4681                	li	a3,0
     e30:	20040613          	addi	a2,s0,512
     e34:	4581                	li	a1,0
     e36:	0a6010ef          	jal	ra,1edc <portUartCfg>
     e3a:	6531                	lui	a0,0xc
     e3c:	49c020ef          	jal	ra,32d8 <JumpToApp>
     e40:	3c6010ef          	jal	ra,2206 <portTimerCfg>
     e44:	40e010ef          	jal	ra,2252 <portModuleGpioCfg>
     e48:	44a010ef          	jal	ra,2292 <portLedCfg>
     e4c:	500020ef          	jal	ra,334c <upgradeInfoInit>
     e50:	4601                	li	a2,0
     e52:	00000597          	auipc	a1,0x0
     e56:	0bc58593          	addi	a1,a1,188 # f0e <modulePowerOn>
     e5a:	3e800513          	li	a0,1000
     e5e:	3331                	jal	b6a <startTimer>
     e60:	3e800593          	li	a1,1000
     e64:	00000517          	auipc	a0,0x0
     e68:	f4650513          	addi	a0,a0,-186 # daa <myTask>
     e6c:	3f15                	jal	da0 <createSystemTask>
     e6e:	0c800593          	li	a1,200
     e72:	00000517          	auipc	a0,0x0
     e76:	1ea50513          	addi	a0,a0,490 # 105c <outputNode>
     e7a:	371d                	jal	da0 <createSystemTask>
     e7c:	06400593          	li	a1,100
     e80:	00000517          	auipc	a0,0x0
     e84:	f3850513          	addi	a0,a0,-200 # db8 <ledRunTask>
     e88:	3f21                	jal	da0 <createSystemTask>
     e8a:	03200593          	li	a1,50
     e8e:	00001517          	auipc	a0,0x1
     e92:	02e50513          	addi	a0,a0,46 # 1ebc <pollUartData>
     e96:	3729                	jal	da0 <createSystemTask>
     e98:	35b9                	jal	ce6 <kernalRun>
     e9a:	bffd                	j	e98 <main+0xaa>

00000e9c <modulePressPowerKey>:
     e9c:	40001737          	lui	a4,0x40001
     ea0:	0a872783          	lw	a5,168(a4) # 400010a8 <_eusrstack+0x1fff90a8>
     ea4:	6505                	lui	a0,0x1
     ea6:	4601                	li	a2,0
     ea8:	4007e793          	ori	a5,a5,1024
     eac:	0af72423          	sw	a5,168(a4)
     eb0:	00000597          	auipc	a1,0x0
     eb4:	00e58593          	addi	a1,a1,14 # ebe <modulePressReleaseKey>
     eb8:	9c450513          	addi	a0,a0,-1596 # 9c4 <handle_reset+0x64>
     ebc:	b17d                	j	b6a <startTimer>

00000ebe <modulePressReleaseKey>:
     ebe:	40001737          	lui	a4,0x40001
     ec2:	0ac72783          	lw	a5,172(a4) # 400010ac <_eusrstack+0x1fff90ac>
     ec6:	00007597          	auipc	a1,0x7
     eca:	7f258593          	addi	a1,a1,2034 # 86b8 <cmdtable+0x170>
     ece:	4525                	li	a0,9
     ed0:	4007e793          	ori	a5,a5,1024
     ed4:	0af72623          	sw	a5,172(a4)
     ed8:	04818713          	addi	a4,gp,72 # 20001370 <moduleState>
     edc:	00074783          	lbu	a5,0(a4)
     ee0:	0017e793          	ori	a5,a5,1
     ee4:	00f70023          	sb	a5,0(a4)
     ee8:	7ec0106f          	j	26d4 <LogPrintf>

00000eec <moduleInit>:
     eec:	04818793          	addi	a5,gp,72 # 20001370 <moduleState>
     ef0:	0007a023          	sw	zero,0(a5)
     ef4:	0007a223          	sw	zero,4(a5)
     ef8:	0007a423          	sw	zero,8(a5)
     efc:	0007a623          	sw	zero,12(a5)
     f00:	0007a823          	sw	zero,16(a5)
     f04:	07800793          	li	a5,120
     f08:	82f19123          	sh	a5,-2014(gp) # 20000b4a <moduleCtrl+0x6>
     f0c:	8082                	ret

00000f0e <modulePowerOn>:
     f0e:	1141                	addi	sp,sp,-16
     f10:	00007597          	auipc	a1,0x7
     f14:	79858593          	addi	a1,a1,1944 # 86a8 <cmdtable+0x160>
     f18:	4525                	li	a0,9
     f1a:	c606                	sw	ra,12(sp)
     f1c:	68c010ef          	jal	ra,25a8 <LogMessage>
     f20:	37f1                	jal	eec <moduleInit>
     f22:	6639                	lui	a2,0xe
     f24:	00001697          	auipc	a3,0x1
     f28:	8f868693          	addi	a3,a3,-1800 # 181c <moduleRecvParser>
     f2c:	10060613          	addi	a2,a2,256 # e100 <_data_lma+0x4cfc>
     f30:	4585                	li	a1,1
     f32:	450d                	li	a0,3
     f34:	7a9000ef          	jal	ra,1edc <portUartCfg>
     f38:	400017b7          	lui	a5,0x40001
     f3c:	0c87a703          	lw	a4,200(a5) # 400010c8 <_eusrstack+0x1fff90c8>
     f40:	6689                	lui	a3,0x2
     f42:	4601                	li	a2,0
     f44:	8f55                	or	a4,a4,a3
     f46:	0ce7a423          	sw	a4,200(a5)
     f4a:	0ac7a703          	lw	a4,172(a5)
     f4e:	00000597          	auipc	a1,0x0
     f52:	f4e58593          	addi	a1,a1,-178 # e9c <modulePressPowerKey>
     f56:	25800513          	li	a0,600
     f5a:	40076713          	ori	a4,a4,1024
     f5e:	0ae7a623          	sw	a4,172(a5)
     f62:	3121                	jal	b6a <startTimer>
     f64:	40b2                	lw	ra,12(sp)
     f66:	0141                	addi	sp,sp,16
     f68:	4100106f          	j	2378 <socketDelAll>

00000f6c <modulePowerOff>:
     f6c:	1141                	addi	sp,sp,-16
     f6e:	00007597          	auipc	a1,0x7
     f72:	72a58593          	addi	a1,a1,1834 # 8698 <cmdtable+0x150>
     f76:	4525                	li	a0,9
     f78:	c606                	sw	ra,12(sp)
     f7a:	62e010ef          	jal	ra,25a8 <LogMessage>
     f7e:	37bd                	jal	eec <moduleInit>
     f80:	400017b7          	lui	a5,0x40001
     f84:	0cc7a703          	lw	a4,204(a5) # 400010cc <_eusrstack+0x1fff90cc>
     f88:	6689                	lui	a3,0x2
     f8a:	40b2                	lw	ra,12(sp)
     f8c:	8f55                	or	a4,a4,a3
     f8e:	0ce7a623          	sw	a4,204(a5)
     f92:	0ac7a703          	lw	a4,172(a5)
     f96:	40076713          	ori	a4,a4,1024
     f9a:	0ae7a623          	sw	a4,172(a5)
     f9e:	0141                	addi	sp,sp,16
     fa0:	3d80106f          	j	2378 <socketDelAll>

00000fa4 <createNode>:
     fa4:	40001737          	lui	a4,0x40001
     fa8:	0ac72783          	lw	a5,172(a4) # 400010ac <_eusrstack+0x1fff90ac>
     fac:	1101                	addi	sp,sp,-32
     fae:	66a1                	lui	a3,0x8
     fb0:	ca26                	sw	s1,20(sp)
     fb2:	c84a                	sw	s2,16(sp)
     fb4:	c64e                	sw	s3,12(sp)
     fb6:	c452                	sw	s4,8(sp)
     fb8:	8fd5                	or	a5,a5,a3
     fba:	ce06                	sw	ra,28(sp)
     fbc:	cc22                	sw	s0,24(sp)
     fbe:	0af72623          	sw	a5,172(a4)
     fc2:	81418793          	addi	a5,gp,-2028 # 20000b3c <headNode>
     fc6:	4384                	lw	s1,0(a5)
     fc8:	89aa                	mv	s3,a0
     fca:	892e                	mv	s2,a1
     fcc:	8a32                	mv	s4,a2
     fce:	e8a9                	bnez	s1,1020 <createNode+0x7c>
     fd0:	4531                	li	a0,12
     fd2:	6c6030ef          	jal	ra,4698 <malloc>
     fd6:	80a1aa23          	sw	a0,-2028(gp) # 20000b3c <headNode>
     fda:	842a                	mv	s0,a0
     fdc:	e119                	bnez	a0,fe2 <createNode+0x3e>
     fde:	4501                	li	a0,0
     fe0:	a00d                	j	1002 <createNode+0x5e>
     fe2:	01450323          	sb	s4,6(a0)
     fe6:	854a                	mv	a0,s2
     fe8:	6b0030ef          	jal	ra,4698 <malloc>
     fec:	c008                	sw	a0,0(s0)
     fee:	c115                	beqz	a0,1012 <createNode+0x6e>
     ff0:	864a                	mv	a2,s2
     ff2:	85ce                	mv	a1,s3
     ff4:	6c0030ef          	jal	ra,46b4 <memcpy>
     ff8:	01241223          	sh	s2,4(s0)
     ffc:	00042423          	sw	zero,8(s0)
    1000:	4505                	li	a0,1
    1002:	40f2                	lw	ra,28(sp)
    1004:	4462                	lw	s0,24(sp)
    1006:	44d2                	lw	s1,20(sp)
    1008:	4942                	lw	s2,16(sp)
    100a:	49b2                	lw	s3,12(sp)
    100c:	4a22                	lw	s4,8(sp)
    100e:	6105                	addi	sp,sp,32
    1010:	8082                	ret
    1012:	8522                	mv	a0,s0
    1014:	692030ef          	jal	ra,46a6 <free>
    1018:	8001aa23          	sw	zero,-2028(gp) # 20000b3c <headNode>
    101c:	b7c9                	j	fde <createNode+0x3a>
    101e:	84be                	mv	s1,a5
    1020:	449c                	lw	a5,8(s1)
    1022:	fff5                	bnez	a5,101e <createNode+0x7a>
    1024:	4531                	li	a0,12
    1026:	672030ef          	jal	ra,4698 <malloc>
    102a:	842a                	mv	s0,a0
    102c:	d94d                	beqz	a0,fde <createNode+0x3a>
    102e:	01450323          	sb	s4,6(a0)
    1032:	854a                	mv	a0,s2
    1034:	664030ef          	jal	ra,4698 <malloc>
    1038:	c008                	sw	a0,0(s0)
    103a:	cd09                	beqz	a0,1054 <createNode+0xb0>
    103c:	864a                	mv	a2,s2
    103e:	85ce                	mv	a1,s3
    1040:	674030ef          	jal	ra,46b4 <memcpy>
    1044:	00042423          	sw	zero,8(s0)
    1048:	01241223          	sh	s2,4(s0)
    104c:	c480                	sw	s0,8(s1)
    104e:	4404                	lw	s1,8(s0)
    1050:	f8e1                	bnez	s1,1020 <createNode+0x7c>
    1052:	b77d                	j	1000 <createNode+0x5c>
    1054:	8522                	mv	a0,s0
    1056:	650030ef          	jal	ra,46a6 <free>
    105a:	b751                	j	fde <createNode+0x3a>

0000105c <outputNode>:
    105c:	1141                	addi	sp,sp,-16
    105e:	81418793          	addi	a5,gp,-2028 # 20000b3c <headNode>
    1062:	c422                	sw	s0,8(sp)
    1064:	4380                	lw	s0,0(a5)
    1066:	c606                	sw	ra,12(sp)
    1068:	c226                	sw	s1,4(sp)
    106a:	c02d                	beqz	s0,10cc <outputNode+0x70>
    106c:	00644783          	lbu	a5,6(s0)
    1070:	00445603          	lhu	a2,4(s0)
    1074:	71c18513          	addi	a0,gp,1820 # 20001a44 <usart3_ctl>
    1078:	04f18523          	sb	a5,74(gp) # 20001372 <moduleState+0x2>
    107c:	400c                	lw	a1,0(s0)
    107e:	4404                	lw	s1,8(s0)
    1080:	16a010ef          	jal	ra,21ea <portUartSend>
    1084:	400c                	lw	a1,0(s0)
    1086:	4685                	li	a3,1
    1088:	00058703          	lb	a4,0(a1)
    108c:	f8870793          	addi	a5,a4,-120
    1090:	0ff7f793          	andi	a5,a5,255
    1094:	00f6fb63          	bgeu	a3,a5,10aa <outputNode+0x4e>
    1098:	07e00793          	li	a5,126
    109c:	00f70763          	beq	a4,a5,10aa <outputNode+0x4e>
    10a0:	00445603          	lhu	a2,4(s0)
    10a4:	4509                	li	a0,2
    10a6:	59a010ef          	jal	ra,2640 <LogMessageWL>
    10aa:	4008                	lw	a0,0(s0)
    10ac:	5fa030ef          	jal	ra,46a6 <free>
    10b0:	8522                	mv	a0,s0
    10b2:	5f4030ef          	jal	ra,46a6 <free>
    10b6:	8091aa23          	sw	s1,-2028(gp) # 20000b3c <headNode>
    10ba:	e889                	bnez	s1,10cc <outputNode+0x70>
    10bc:	40001737          	lui	a4,0x40001
    10c0:	0a872783          	lw	a5,168(a4) # 400010a8 <_eusrstack+0x1fff90a8>
    10c4:	66a1                	lui	a3,0x8
    10c6:	8fd5                	or	a5,a5,a3
    10c8:	0af72423          	sw	a5,168(a4)
    10cc:	40b2                	lw	ra,12(sp)
    10ce:	4422                	lw	s0,8(sp)
    10d0:	4492                	lw	s1,4(sp)
    10d2:	0141                	addi	sp,sp,16
    10d4:	8082                	ret

000010d6 <sendModuleCmd>:
    10d6:	712d                	addi	sp,sp,-288
    10d8:	00007797          	auipc	a5,0x7
    10dc:	47078793          	addi	a5,a5,1136 # 8548 <cmdtable>
    10e0:	10812c23          	sw	s0,280(sp)
    10e4:	10912a23          	sw	s1,276(sp)
    10e8:	11212823          	sw	s2,272(sp)
    10ec:	10112e23          	sw	ra,284(sp)
    10f0:	892a                	mv	s2,a0
    10f2:	872e                	mv	a4,a1
    10f4:	4401                	li	s0,0
    10f6:	84be                	mv	s1,a5
    10f8:	46fd                	li	a3,31
    10fa:	4390                	lw	a2,0(a5)
    10fc:	00c91b63          	bne	s2,a2,1112 <sendModuleCmd+0x3c>
    1100:	eb15                	bnez	a4,1134 <sendModuleCmd+0x5e>
    1102:	040e                	slli	s0,s0,0x3
    1104:	9426                	add	s0,s0,s1
    1106:	4054                	lw	a3,4(s0)
    1108:	00007617          	auipc	a2,0x7
    110c:	6d860613          	addi	a2,a2,1752 # 87e0 <cmdtable+0x298>
    1110:	a889                	j	1162 <sendModuleCmd+0x8c>
    1112:	0405                	addi	s0,s0,1
    1114:	07a1                	addi	a5,a5,8
    1116:	fed412e3          	bne	s0,a3,10fa <sendModuleCmd+0x24>
    111a:	00007597          	auipc	a1,0x7
    111e:	6ce58593          	addi	a1,a1,1742 # 87e8 <cmdtable+0x2a0>
    1122:	0808                	addi	a0,sp,16
    1124:	2a6040ef          	jal	ra,53ca <strcpy>
    1128:	080c                	addi	a1,sp,16
    112a:	4525                	li	a0,9
    112c:	47c010ef          	jal	ra,25a8 <LogMessage>
    1130:	4781                	li	a5,0
    1132:	a08d                	j	1194 <sendModuleCmd+0xbe>
    1134:	853a                	mv	a0,a4
    1136:	c63a                	sw	a4,12(sp)
    1138:	2a4040ef          	jal	ra,53dc <strlen>
    113c:	0f000693          	li	a3,240
    1140:	4781                	li	a5,0
    1142:	04a6e963          	bltu	a3,a0,1194 <sendModuleCmd+0xbe>
    1146:	4732                	lw	a4,12(sp)
    1148:	040e                	slli	s0,s0,0x3
    114a:	9426                	add	s0,s0,s1
    114c:	00070603          	lb	a2,0(a4)
    1150:	03f00793          	li	a5,63
    1154:	4054                	lw	a3,4(s0)
    1156:	00f61c63          	bne	a2,a5,116e <sendModuleCmd+0x98>
    115a:	00007617          	auipc	a2,0x7
    115e:	67660613          	addi	a2,a2,1654 # 87d0 <cmdtable+0x288>
    1162:	0ff00593          	li	a1,255
    1166:	0808                	addi	a0,sp,16
    1168:	1a4040ef          	jal	ra,530c <sniprintf>
    116c:	a811                	j	1180 <sendModuleCmd+0xaa>
    116e:	00007617          	auipc	a2,0x7
    1172:	66a60613          	addi	a2,a2,1642 # 87d8 <cmdtable+0x290>
    1176:	0ff00593          	li	a1,255
    117a:	0808                	addi	a0,sp,16
    117c:	190040ef          	jal	ra,530c <sniprintf>
    1180:	0808                	addi	a0,sp,16
    1182:	25a040ef          	jal	ra,53dc <strlen>
    1186:	01051593          	slli	a1,a0,0x10
    118a:	864a                	mv	a2,s2
    118c:	81c1                	srli	a1,a1,0x10
    118e:	0808                	addi	a0,sp,16
    1190:	3d11                	jal	fa4 <createNode>
    1192:	4785                	li	a5,1
    1194:	11c12083          	lw	ra,284(sp)
    1198:	11812403          	lw	s0,280(sp)
    119c:	11412483          	lw	s1,276(sp)
    11a0:	11012903          	lw	s2,272(sp)
    11a4:	853e                	mv	a0,a5
    11a6:	6115                	addi	sp,sp,288
    11a8:	8082                	ret

000011aa <moduleExitFly>:
    11aa:	00007597          	auipc	a1,0x7
    11ae:	4ea58593          	addi	a1,a1,1258 # 8694 <cmdtable+0x14c>
    11b2:	452d                	li	a0,11
    11b4:	b70d                	j	10d6 <sendModuleCmd>

000011b6 <moduleReset>:
    11b6:	1141                	addi	sp,sp,-16
    11b8:	00007597          	auipc	a1,0x7
    11bc:	59858593          	addi	a1,a1,1432 # 8750 <cmdtable+0x208>
    11c0:	4525                	li	a0,9
    11c2:	c606                	sw	ra,12(sp)
    11c4:	3e4010ef          	jal	ra,25a8 <LogMessage>
    11c8:	3315                	jal	eec <moduleInit>
    11ca:	40001737          	lui	a4,0x40001
    11ce:	0ac72783          	lw	a5,172(a4) # 400010ac <_eusrstack+0x1fff90ac>
    11d2:	4601                	li	a2,0
    11d4:	00000597          	auipc	a1,0x0
    11d8:	d9858593          	addi	a1,a1,-616 # f6c <modulePowerOff>
    11dc:	4007e793          	ori	a5,a5,1024
    11e0:	0af72623          	sw	a5,172(a4)
    11e4:	1f400513          	li	a0,500
    11e8:	983ff0ef          	jal	ra,b6a <startTimer>
    11ec:	650d                	lui	a0,0x3
    11ee:	4601                	li	a2,0
    11f0:	00000597          	auipc	a1,0x0
    11f4:	d1e58593          	addi	a1,a1,-738 # f0e <modulePowerOn>
    11f8:	ee050513          	addi	a0,a0,-288 # 2ee0 <protocolSend+0x148>
    11fc:	96fff0ef          	jal	ra,b6a <startTimer>
    1200:	40b2                	lw	ra,12(sp)
    1202:	0141                	addi	sp,sp,16
    1204:	1740106f          	j	2378 <socketDelAll>

00001208 <openSocket>:
    1208:	7119                	addi	sp,sp,-128
    120a:	8732                	mv	a4,a2
    120c:	86ae                	mv	a3,a1
    120e:	862a                	mv	a2,a0
    1210:	00007597          	auipc	a1,0x7
    1214:	5a858593          	addi	a1,a1,1448 # 87b8 <cmdtable+0x270>
    1218:	0068                	addi	a0,sp,12
    121a:	de86                	sw	ra,124(sp)
    121c:	164040ef          	jal	ra,5380 <siprintf>
    1220:	4581                	li	a1,0
    1222:	4505                	li	a0,1
    1224:	3d4d                	jal	10d6 <sendModuleCmd>
    1226:	006c                	addi	a1,sp,12
    1228:	4541                	li	a0,16
    122a:	3575                	jal	10d6 <sendModuleCmd>
    122c:	50f6                	lw	ra,124(sp)
    122e:	6109                	addi	sp,sp,128
    1230:	8082                	ret

00001232 <closeSocket>:
    1232:	1101                	addi	sp,sp,-32
    1234:	862a                	mv	a2,a0
    1236:	00008597          	auipc	a1,0x8
    123a:	a8a58593          	addi	a1,a1,-1398 # 8cc0 <ztvm_crctab16+0x240>
    123e:	0048                	addi	a0,sp,4
    1240:	ce06                	sw	ra,28(sp)
    1242:	13e040ef          	jal	ra,5380 <siprintf>
    1246:	4581                	li	a1,0
    1248:	4505                	li	a0,1
    124a:	3571                	jal	10d6 <sendModuleCmd>
    124c:	004c                	addi	a1,sp,4
    124e:	4545                	li	a0,17
    1250:	3559                	jal	10d6 <sendModuleCmd>
    1252:	40f2                	lw	ra,28(sp)
    1254:	6105                	addi	sp,sp,32
    1256:	8082                	ret

00001258 <netConnectTask>:
    1258:	0481c783          	lbu	a5,72(gp) # 20001370 <moduleState>
    125c:	0017f713          	andi	a4,a5,1
    1260:	2c070f63          	beqz	a4,153e <netConnectTask+0x2e6>
    1264:	7119                	addi	sp,sp,-128
    1266:	dca2                	sw	s0,120(sp)
    1268:	04818413          	addi	s0,gp,72 # 20001370 <moduleState>
    126c:	4458                	lw	a4,12(s0)
    126e:	de86                	sw	ra,124(sp)
    1270:	0705                	addi	a4,a4,1
    1272:	04e1aa23          	sw	a4,84(gp) # 2000137c <moduleState+0xc>
    1276:	4699                	li	a3,6
    1278:	0491c703          	lbu	a4,73(gp) # 20001371 <moduleState+0x1>
    127c:	2ae6ee63          	bltu	a3,a4,1538 <netConnectTask+0x2e0>
    1280:	00007697          	auipc	a3,0x7
    1284:	27468693          	addi	a3,a3,628 # 84f4 <_sbrk+0xf2>
    1288:	070a                	slli	a4,a4,0x2
    128a:	9736                	add	a4,a4,a3
    128c:	4318                	lw	a4,0(a4)
    128e:	9736                	add	a4,a4,a3
    1290:	8702                	jr	a4
    1292:	8b89                	andi	a5,a5,2
    1294:	10078463          	beqz	a5,139c <netConnectTask+0x144>
    1298:	80018e23          	sb	zero,-2020(gp) # 20000b44 <moduleCtrl>
    129c:	00045783          	lhu	a5,0(s0)
    12a0:	0fd7f793          	andi	a5,a5,253
    12a4:	1007e793          	ori	a5,a5,256
    12a8:	04f19423          	sh	a5,72(gp) # 20001370 <moduleState>
    12ac:	0401ac23          	sw	zero,88(gp) # 20001380 <moduleState+0x10>
    12b0:	00044783          	lbu	a5,0(s0)
    12b4:	0047f713          	andi	a4,a5,4
    12b8:	12070563          	beqz	a4,13e2 <netConnectTask+0x18a>
    12bc:	9bed                	andi	a5,a5,-5
    12be:	4581                	li	a1,0
    12c0:	4505                	li	a0,1
    12c2:	04f18423          	sb	a5,72(gp) # 20001370 <moduleState>
    12c6:	3d01                	jal	10d6 <sendModuleCmd>
    12c8:	5e218613          	addi	a2,gp,1506 # 2000190a <sysparam+0x2>
    12cc:	00007597          	auipc	a1,0x7
    12d0:	49058593          	addi	a1,a1,1168 # 875c <cmdtable+0x214>
    12d4:	0068                	addi	a0,sp,12
    12d6:	0aa040ef          	jal	ra,5380 <siprintf>
    12da:	006c                	addi	a1,sp,12
    12dc:	4535                	li	a0,13
    12de:	3be5                	jal	10d6 <sendModuleCmd>
    12e0:	64618693          	addi	a3,gp,1606 # 2000196e <sysparam+0x66>
    12e4:	61418613          	addi	a2,gp,1556 # 2000193c <sysparam+0x34>
    12e8:	00007597          	auipc	a1,0x7
    12ec:	48058593          	addi	a1,a1,1152 # 8768 <cmdtable+0x220>
    12f0:	0068                	addi	a0,sp,12
    12f2:	08e040ef          	jal	ra,5380 <siprintf>
    12f6:	006c                	addi	a1,sp,12
    12f8:	4579                	li	a0,30
    12fa:	3bf1                	jal	10d6 <sendModuleCmd>
    12fc:	4789                	li	a5,2
    12fe:	04f184a3          	sb	a5,73(gp) # 20001371 <moduleState+0x1>
    1302:	0401ac23          	sw	zero,88(gp) # 20001380 <moduleState+0x10>
    1306:	00044783          	lbu	a5,0(s0)
    130a:	0087f713          	andi	a4,a5,8
    130e:	0e070863          	beqz	a4,13fe <netConnectTask+0x1a6>
    1312:	9bdd                	andi	a5,a5,-9
    1314:	00007597          	auipc	a1,0x7
    1318:	46458593          	addi	a1,a1,1124 # 8778 <cmdtable+0x230>
    131c:	4515                	li	a0,5
    131e:	04f18423          	sb	a5,72(gp) # 20001370 <moduleState>
    1322:	80018ea3          	sb	zero,-2019(gp) # 20000b45 <moduleCtrl+0x1>
    1326:	3b45                	jal	10d6 <sendModuleCmd>
    1328:	478d                	li	a5,3
    132a:	04f184a3          	sb	a5,73(gp) # 20001371 <moduleState+0x1>
    132e:	0401ac23          	sw	zero,88(gp) # 20001380 <moduleState+0x10>
    1332:	07800793          	li	a5,120
    1336:	82f19123          	sh	a5,-2014(gp) # 20000b4a <moduleCtrl+0x6>
    133a:	401c                	lw	a5,0(s0)
    133c:	0307f793          	andi	a5,a5,48
    1340:	12078363          	beqz	a5,1466 <netConnectTask+0x20e>
    1344:	80018f23          	sb	zero,-2018(gp) # 20000b46 <moduleCtrl+0x2>
    1348:	00045783          	lhu	a5,0(s0)
    134c:	0ef7f793          	andi	a5,a5,239
    1350:	4007e793          	ori	a5,a5,1024
    1354:	04f19423          	sh	a5,72(gp) # 20001370 <moduleState>
    1358:	0401ac23          	sw	zero,88(gp) # 20001380 <moduleState+0x10>
    135c:	5e218613          	addi	a2,gp,1506 # 2000190a <sysparam+0x2>
    1360:	00007597          	auipc	a1,0x7
    1364:	3fc58593          	addi	a1,a1,1020 # 875c <cmdtable+0x214>
    1368:	0068                	addi	a0,sp,12
    136a:	016040ef          	jal	ra,5380 <siprintf>
    136e:	006c                	addi	a1,sp,12
    1370:	4535                	li	a0,13
    1372:	3395                	jal	10d6 <sendModuleCmd>
    1374:	64618693          	addi	a3,gp,1606 # 2000196e <sysparam+0x66>
    1378:	61418613          	addi	a2,gp,1556 # 2000193c <sysparam+0x34>
    137c:	00007597          	auipc	a1,0x7
    1380:	3ec58593          	addi	a1,a1,1004 # 8768 <cmdtable+0x220>
    1384:	0068                	addi	a0,sp,12
    1386:	7fb030ef          	jal	ra,5380 <siprintf>
    138a:	006c                	addi	a1,sp,12
    138c:	4579                	li	a0,30
    138e:	33a1                	jal	10d6 <sendModuleCmd>
    1390:	4795                	li	a5,5
    1392:	04f184a3          	sb	a5,73(gp) # 20001371 <moduleState+0x1>
    1396:	0401ac23          	sw	zero,88(gp) # 20001380 <moduleState+0x10>
    139a:	a805                	j	13ca <netConnectTask+0x172>
    139c:	481c                	lw	a5,16(s0)
    139e:	8b85                	andi	a5,a5,1
    13a0:	e791                	bnez	a5,13ac <netConnectTask+0x154>
    13a2:	4581                	li	a1,0
    13a4:	4505                	li	a0,1
    13a6:	0401aa23          	sw	zero,84(gp) # 2000137c <moduleState+0xc>
    13aa:	3335                	jal	10d6 <sendModuleCmd>
    13ac:	4818                	lw	a4,16(s0)
    13ae:	47f5                	li	a5,29
    13b0:	00e7fd63          	bgeu	a5,a4,13ca <netConnectTask+0x172>
    13b4:	81c1c783          	lbu	a5,-2020(gp) # 20000b44 <moduleCtrl>
    13b8:	0785                	addi	a5,a5,1
    13ba:	0ff7f793          	andi	a5,a5,255
    13be:	4705                	li	a4,1
    13c0:	00f77d63          	bgeu	a4,a5,13da <netConnectTask+0x182>
    13c4:	80018e23          	sb	zero,-2020(gp) # 20000b44 <moduleCtrl>
    13c8:	3699                	jal	f0e <modulePowerOn>
    13ca:	481c                	lw	a5,16(s0)
    13cc:	50f6                	lw	ra,124(sp)
    13ce:	5466                	lw	s0,120(sp)
    13d0:	0785                	addi	a5,a5,1
    13d2:	04f1ac23          	sw	a5,88(gp) # 20001380 <moduleState+0x10>
    13d6:	6109                	addi	sp,sp,128
    13d8:	8082                	ret
    13da:	80f18e23          	sb	a5,-2020(gp) # 20000b44 <moduleCtrl>
    13de:	3be1                	jal	11b6 <moduleReset>
    13e0:	b7ed                	j	13ca <netConnectTask+0x172>
    13e2:	481c                	lw	a5,16(s0)
    13e4:	8b85                	andi	a5,a5,1
    13e6:	e799                	bnez	a5,13f4 <netConnectTask+0x19c>
    13e8:	00007597          	auipc	a1,0x7
    13ec:	38c58593          	addi	a1,a1,908 # 8774 <cmdtable+0x22c>
    13f0:	4509                	li	a0,2
    13f2:	31d5                	jal	10d6 <sendModuleCmd>
    13f4:	4818                	lw	a4,16(s0)
    13f6:	47f5                	li	a5,29
    13f8:	fce7f9e3          	bgeu	a5,a4,13ca <netConnectTask+0x172>
    13fc:	b7cd                	j	13de <netConnectTask+0x186>
    13fe:	4581                	li	a1,0
    1400:	450d                	li	a0,3
    1402:	39d1                	jal	10d6 <sendModuleCmd>
    1404:	4818                	lw	a4,16(s0)
    1406:	8221d783          	lhu	a5,-2014(gp) # 20000b4a <moduleCtrl+0x6>
    140a:	fcf760e3          	bltu	a4,a5,13ca <netConnectTask+0x172>
    140e:	0786                	slli	a5,a5,0x1
    1410:	86be                	mv	a3,a5
    1412:	6705                	lui	a4,0x1
    1414:	07c2                	slli	a5,a5,0x10
    1416:	83c1                	srli	a5,a5,0x10
    1418:	e1070713          	addi	a4,a4,-496 # e10 <main+0x22>
    141c:	00f77363          	bgeu	a4,a5,1422 <netConnectTask+0x1ca>
    1420:	86ba                	mv	a3,a4
    1422:	82d19123          	sh	a3,-2014(gp) # 20000b4a <moduleCtrl+0x6>
    1426:	81c18793          	addi	a5,gp,-2020 # 20000b44 <moduleCtrl>
    142a:	0017c783          	lbu	a5,1(a5)
    142e:	0785                	addi	a5,a5,1
    1430:	0ff7f793          	andi	a5,a5,255
    1434:	80f18ea3          	sb	a5,-2019(gp) # 20000b45 <moduleCtrl+0x1>
    1438:	4709                	li	a4,2
    143a:	00f77563          	bgeu	a4,a5,1444 <netConnectTask+0x1ec>
    143e:	80018ea3          	sb	zero,-2019(gp) # 20000b45 <moduleCtrl+0x1>
    1442:	bf71                	j	13de <netConnectTask+0x186>
    1444:	00007597          	auipc	a1,0x7
    1448:	33858593          	addi	a1,a1,824 # 877c <cmdtable+0x234>
    144c:	452d                	li	a0,11
    144e:	3161                	jal	10d6 <sendModuleCmd>
    1450:	6509                	lui	a0,0x2
    1452:	4601                	li	a2,0
    1454:	00000597          	auipc	a1,0x0
    1458:	d5658593          	addi	a1,a1,-682 # 11aa <moduleExitFly>
    145c:	f4050513          	addi	a0,a0,-192 # 1f40 <portUartCfg+0x64>
    1460:	f0aff0ef          	jal	ra,b6a <startTimer>
    1464:	b79d                	j	13ca <netConnectTask+0x172>
    1466:	00007597          	auipc	a1,0x7
    146a:	30e58593          	addi	a1,a1,782 # 8774 <cmdtable+0x22c>
    146e:	4515                	li	a0,5
    1470:	319d                	jal	10d6 <sendModuleCmd>
    1472:	4818                	lw	a4,16(s0)
    1474:	0b300793          	li	a5,179
    1478:	f4e7f9e3          	bgeu	a5,a4,13ca <netConnectTask+0x172>
    147c:	81e1c783          	lbu	a5,-2018(gp) # 20000b46 <moduleCtrl+0x2>
    1480:	0785                	addi	a5,a5,1
    1482:	0ff7f793          	andi	a5,a5,255
    1486:	80f18f23          	sb	a5,-2018(gp) # 20000b46 <moduleCtrl+0x2>
    148a:	4705                	li	a4,1
    148c:	0af77663          	bgeu	a4,a5,1538 <netConnectTask+0x2e0>
    1490:	80018f23          	sb	zero,-2018(gp) # 20000b46 <moduleCtrl+0x2>
    1494:	00044783          	lbu	a5,0(s0)
    1498:	00007597          	auipc	a1,0x7
    149c:	2e858593          	addi	a1,a1,744 # 8780 <cmdtable+0x238>
    14a0:	4525                	li	a0,9
    14a2:	0107e793          	ori	a5,a5,16
    14a6:	04f18423          	sb	a5,72(gp) # 20001370 <moduleState>
    14aa:	0fe010ef          	jal	ra,25a8 <LogMessage>
    14ae:	bf31                	j	13ca <netConnectTask+0x172>
    14b0:	07e2                	slli	a5,a5,0x18
    14b2:	87e1                	srai	a5,a5,0x18
    14b4:	0207d163          	bgez	a5,14d6 <netConnectTask+0x27e>
    14b8:	80018fa3          	sb	zero,-2017(gp) # 20000b47 <moduleCtrl+0x3>
    14bc:	00045783          	lhu	a5,0(s0)
    14c0:	07f7f793          	andi	a5,a5,127
    14c4:	6007e793          	ori	a5,a5,1536
    14c8:	04f19423          	sh	a5,72(gp) # 20001370 <moduleState>
    14cc:	0401ac23          	sw	zero,88(gp) # 20001380 <moduleState+0x10>
    14d0:	6e9000ef          	jal	ra,23b8 <socketSchedule>
    14d4:	bddd                	j	13ca <netConnectTask+0x172>
    14d6:	00007597          	auipc	a1,0x7
    14da:	2ca58593          	addi	a1,a1,714 # 87a0 <cmdtable+0x258>
    14de:	457d                	li	a0,31
    14e0:	3edd                	jal	10d6 <sendModuleCmd>
    14e2:	00007597          	auipc	a1,0x7
    14e6:	29258593          	addi	a1,a1,658 # 8774 <cmdtable+0x22c>
    14ea:	457d                	li	a0,31
    14ec:	36ed                	jal	10d6 <sendModuleCmd>
    14ee:	4818                	lw	a4,16(s0)
    14f0:	02c00793          	li	a5,44
    14f4:	ece7fbe3          	bgeu	a5,a4,13ca <netConnectTask+0x172>
    14f8:	00007597          	auipc	a1,0x7
    14fc:	2ac58593          	addi	a1,a1,684 # 87a4 <cmdtable+0x25c>
    1500:	4525                	li	a0,9
    1502:	0a6010ef          	jal	ra,25a8 <LogMessage>
    1506:	00044783          	lbu	a5,0(s0)
    150a:	fbf7f793          	andi	a5,a5,-65
    150e:	04f18423          	sb	a5,72(gp) # 20001370 <moduleState>
    1512:	0401ac23          	sw	zero,88(gp) # 20001380 <moduleState+0x10>
    1516:	81f1c783          	lbu	a5,-2017(gp) # 20000b47 <moduleCtrl+0x3>
    151a:	0785                	addi	a5,a5,1
    151c:	0ff7f793          	andi	a5,a5,255
    1520:	80f18fa3          	sb	a5,-2017(gp) # 20000b47 <moduleCtrl+0x3>
    1524:	4709                	li	a4,2
    1526:	00f77563          	bgeu	a4,a5,1530 <netConnectTask+0x2d8>
    152a:	80018fa3          	sb	zero,-2017(gp) # 20000b47 <moduleCtrl+0x3>
    152e:	bd45                	j	13de <netConnectTask+0x186>
    1530:	4785                	li	a5,1
    1532:	04f184a3          	sb	a5,73(gp) # 20001371 <moduleState+0x1>
    1536:	bd51                	j	13ca <netConnectTask+0x172>
    1538:	040184a3          	sb	zero,73(gp) # 20001371 <moduleState+0x1>
    153c:	bda9                	j	1396 <netConnectTask+0x13e>
    153e:	8082                	ret

00001540 <mipurcParser>:
    1540:	be010113          	addi	sp,sp,-1056
    1544:	40812c23          	sw	s0,1048(sp)
    1548:	01059413          	slli	s0,a1,0x10
    154c:	8441                	srai	s0,s0,0x10
    154e:	8622                	mv	a2,s0
    1550:	00007597          	auipc	a1,0x7
    1554:	0fc58593          	addi	a1,a1,252 # 864c <cmdtable+0x104>
    1558:	41412423          	sw	s4,1032(sp)
    155c:	40112e23          	sw	ra,1052(sp)
    1560:	40912a23          	sw	s1,1044(sp)
    1564:	41212823          	sw	s2,1040(sp)
    1568:	41312623          	sw	s3,1036(sp)
    156c:	41512223          	sw	s5,1028(sp)
    1570:	41612023          	sw	s6,1024(sp)
    1574:	3f712e23          	sw	s7,1020(sp)
    1578:	3f812c23          	sw	s8,1016(sp)
    157c:	3f912a23          	sw	s9,1012(sp)
    1580:	8a2a                	mv	s4,a0
    1582:	204010ef          	jal	ra,2786 <my_getstrindex>
    1586:	10054863          	bltz	a0,1696 <mipurcParser+0x156>
    158a:	64c1                	lui	s1,0x10
    158c:	00007917          	auipc	s2,0x7
    1590:	0cc90913          	addi	s2,s2,204 # 8658 <cmdtable+0x110>
    1594:	00007997          	auipc	s3,0x7
    1598:	0e498993          	addi	s3,s3,228 # 8678 <cmdtable+0x130>
    159c:	14fd                	addi	s1,s1,-1
    159e:	00a50793          	addi	a5,a0,10
    15a2:	8c09                	sub	s0,s0,a0
    15a4:	9a3e                	add	s4,s4,a5
    15a6:	0442                	slli	s0,s0,0x10
    15a8:	85ca                	mv	a1,s2
    15aa:	8552                	mv	a0,s4
    15ac:	8041                	srli	s0,s0,0x10
    15ae:	18c010ef          	jal	ra,273a <my_strpach>
    15b2:	10050c63          	beqz	a0,16ca <mipurcParser+0x18a>
    15b6:	00440593          	addi	a1,s0,4
    15ba:	0a19                	addi	s4,s4,6
    15bc:	05c2                	slli	a1,a1,0x10
    15be:	4689                	li	a3,2
    15c0:	02c00613          	li	a2,44
    15c4:	81c1                	srli	a1,a1,0x10
    15c6:	8552                	mv	a0,s4
    15c8:	3c0010ef          	jal	ra,2988 <getCharIndexWithNum>
    15cc:	8aaa                	mv	s5,a0
    15ce:	862a                	mv	a2,a0
    15d0:	85d2                	mv	a1,s4
    15d2:	13e8                	addi	a0,sp,492
    15d4:	0e0030ef          	jal	ra,46b4 <memcpy>
    15d8:	010a9c93          	slli	s9,s5,0x10
    15dc:	010cdc93          	srli	s9,s9,0x10
    15e0:	1f9c                	addi	a5,sp,1008
    15e2:	97d6                	add	a5,a5,s5
    15e4:	8666                	mv	a2,s9
    15e6:	13ec                	addi	a1,sp,492
    15e8:	0028                	addi	a0,sp,8
    15ea:	de078e23          	sb	zero,-516(a5)
    15ee:	2b4010ef          	jal	ra,28a2 <stringToItem>
    15f2:	00910513          	addi	a0,sp,9
    15f6:	0415                	addi	s0,s0,5
    15f8:	098030ef          	jal	ra,4690 <atoi>
    15fc:	41940433          	sub	s0,s0,s9
    1600:	8b2a                	mv	s6,a0
    1602:	0442                	slli	s0,s0,0x10
    1604:	04510513          	addi	a0,sp,69
    1608:	088030ef          	jal	ra,4690 <atoi>
    160c:	0a85                	addi	s5,s5,1
    160e:	8041                	srli	s0,s0,0x10
    1610:	9a56                	add	s4,s4,s5
    1612:	01041593          	slli	a1,s0,0x10
    1616:	01051c13          	slli	s8,a0,0x10
    161a:	8baa                	mv	s7,a0
    161c:	4635                	li	a2,13
    161e:	85c1                	srai	a1,a1,0x10
    1620:	8552                	mv	a0,s4
    1622:	0fc010ef          	jal	ra,271e <getCharIndex>
    1626:	010c5c13          	srli	s8,s8,0x10
    162a:	10000793          	li	a5,256
    162e:	8caa                	mv	s9,a0
    1630:	8ae2                	mv	s5,s8
    1632:	0187f463          	bgeu	a5,s8,163a <mipurcParser+0xfa>
    1636:	10000a93          	li	s5,256
    163a:	0ac2                	slli	s5,s5,0x10
    163c:	010ada93          	srli	s5,s5,0x10
    1640:	8656                	mv	a2,s5
    1642:	8552                	mv	a0,s4
    1644:	13ec                	addi	a1,sp,492
    1646:	214010ef          	jal	ra,285a <byteToHexString>
    164a:	1f9c                	addi	a5,sp,1008
    164c:	0a86                	slli	s5,s5,0x1
    164e:	9abe                	add	s5,s5,a5
    1650:	13f8                	addi	a4,sp,492
    1652:	009bf6b3          	and	a3,s7,s1
    1656:	0ffb7613          	andi	a2,s6,255
    165a:	00007597          	auipc	a1,0x7
    165e:	00658593          	addi	a1,a1,6 # 8660 <cmdtable+0x118>
    1662:	4525                	li	a0,9
    1664:	de0a8e23          	sb	zero,-516(s5)
    1668:	06c010ef          	jal	ra,26d4 <LogPrintf>
    166c:	85d2                	mv	a1,s4
    166e:	8662                	mv	a2,s8
    1670:	0ffb7513          	andi	a0,s6,255
    1674:	52d000ef          	jal	ra,23a0 <socketRecv>
    1678:	9a66                	add	s4,s4,s9
    167a:	41940433          	sub	s0,s0,s9
    167e:	0442                	slli	s0,s0,0x10
    1680:	8441                	srai	s0,s0,0x10
    1682:	8622                	mv	a2,s0
    1684:	00007597          	auipc	a1,0x7
    1688:	fc858593          	addi	a1,a1,-56 # 864c <cmdtable+0x104>
    168c:	8552                	mv	a0,s4
    168e:	0f8010ef          	jal	ra,2786 <my_getstrindex>
    1692:	f00556e3          	bgez	a0,159e <mipurcParser+0x5e>
    1696:	41c12083          	lw	ra,1052(sp)
    169a:	41812403          	lw	s0,1048(sp)
    169e:	41412483          	lw	s1,1044(sp)
    16a2:	41012903          	lw	s2,1040(sp)
    16a6:	40c12983          	lw	s3,1036(sp)
    16aa:	40812a03          	lw	s4,1032(sp)
    16ae:	40412a83          	lw	s5,1028(sp)
    16b2:	40012b03          	lw	s6,1024(sp)
    16b6:	3fc12b83          	lw	s7,1020(sp)
    16ba:	3f812c03          	lw	s8,1016(sp)
    16be:	3f412c83          	lw	s9,1012(sp)
    16c2:	4501                	li	a0,0
    16c4:	42010113          	addi	sp,sp,1056
    16c8:	8082                	ret
    16ca:	85ce                	mv	a1,s3
    16cc:	8552                	mv	a0,s4
    16ce:	06c010ef          	jal	ra,273a <my_strpach>
    16d2:	e119                	bnez	a0,16d8 <mipurcParser+0x198>
    16d4:	0429                	addi	s0,s0,10
    16d6:	b765                	j	167e <mipurcParser+0x13e>
    16d8:	0405                	addi	s0,s0,1
    16da:	0442                	slli	s0,s0,0x10
    16dc:	8041                	srli	s0,s0,0x10
    16de:	0a25                	addi	s4,s4,9
    16e0:	01041593          	slli	a1,s0,0x10
    16e4:	4635                	li	a2,13
    16e6:	85c1                	srai	a1,a1,0x10
    16e8:	8552                	mv	a0,s4
    16ea:	034010ef          	jal	ra,271e <getCharIndex>
    16ee:	8aaa                	mv	s5,a0
    16f0:	862a                	mv	a2,a0
    16f2:	85d2                	mv	a1,s4
    16f4:	13e8                	addi	a0,sp,492
    16f6:	7bf020ef          	jal	ra,46b4 <memcpy>
    16fa:	010a9b13          	slli	s6,s5,0x10
    16fe:	010b5b13          	srli	s6,s6,0x10
    1702:	1f9c                	addi	a5,sp,1008
    1704:	97d6                	add	a5,a5,s5
    1706:	865a                	mv	a2,s6
    1708:	13ec                	addi	a1,sp,492
    170a:	0028                	addi	a0,sp,8
    170c:	de078e23          	sb	zero,-516(a5)
    1710:	192010ef          	jal	ra,28a2 <stringToItem>
    1714:	00910513          	addi	a0,sp,9
    1718:	779020ef          	jal	ra,4690 <atoi>
    171c:	0ff57613          	andi	a2,a0,255
    1720:	8baa                	mv	s7,a0
    1722:	00007597          	auipc	a1,0x7
    1726:	f5e58593          	addi	a1,a1,-162 # 8680 <cmdtable+0x138>
    172a:	4525                	li	a0,9
    172c:	7a9000ef          	jal	ra,26d4 <LogPrintf>
    1730:	4581                	li	a1,0
    1732:	0ffbf513          	andi	a0,s7,255
    1736:	463000ef          	jal	ra,2398 <socketSetConnState>
    173a:	9a56                	add	s4,s4,s5
    173c:	41640433          	sub	s0,s0,s6
    1740:	bf3d                	j	167e <mipurcParser+0x13e>

00001742 <mipopenParser>:
    1742:	df010113          	addi	sp,sp,-528
    1746:	20812423          	sw	s0,520(sp)
    174a:	862e                	mv	a2,a1
    174c:	842e                	mv	s0,a1
    174e:	00007597          	auipc	a1,0x7
    1752:	ef258593          	addi	a1,a1,-270 # 8640 <cmdtable+0xf8>
    1756:	20912223          	sw	s1,516(sp)
    175a:	1f312e23          	sw	s3,508(sp)
    175e:	1f412c23          	sw	s4,504(sp)
    1762:	1f512a23          	sw	s5,500(sp)
    1766:	20112623          	sw	ra,524(sp)
    176a:	21212023          	sw	s2,512(sp)
    176e:	84aa                	mv	s1,a0
    1770:	81c18993          	addi	s3,gp,-2020 # 20000b44 <moduleCtrl>
    1774:	012010ef          	jal	ra,2786 <my_getstrindex>
    1778:	4a0d                	li	s4,3
    177a:	00007a97          	auipc	s5,0x7
    177e:	ec6a8a93          	addi	s5,s5,-314 # 8640 <cmdtable+0xf8>
    1782:	02055363          	bgez	a0,17a8 <mipopenParser+0x66>
    1786:	20c12083          	lw	ra,524(sp)
    178a:	20812403          	lw	s0,520(sp)
    178e:	20412483          	lw	s1,516(sp)
    1792:	20012903          	lw	s2,512(sp)
    1796:	1fc12983          	lw	s3,508(sp)
    179a:	1f812a03          	lw	s4,504(sp)
    179e:	1f412a83          	lw	s5,500(sp)
    17a2:	21010113          	addi	sp,sp,528
    17a6:	8082                	ret
    17a8:	00a50793          	addi	a5,a0,10
    17ac:	1559                	addi	a0,a0,-10
    17ae:	94be                	add	s1,s1,a5
    17b0:	8c09                	sub	s0,s0,a0
    17b2:	4635                	li	a2,13
    17b4:	85a2                	mv	a1,s0
    17b6:	8526                	mv	a0,s1
    17b8:	767000ef          	jal	ra,271e <getCharIndex>
    17bc:	01041613          	slli	a2,s0,0x10
    17c0:	8241                	srli	a2,a2,0x10
    17c2:	85a6                	mv	a1,s1
    17c4:	0068                	addi	a0,sp,12
    17c6:	0dc010ef          	jal	ra,28a2 <stringToItem>
    17ca:	00d10513          	addi	a0,sp,13
    17ce:	6c3020ef          	jal	ra,4690 <atoi>
    17d2:	0ff57913          	andi	s2,a0,255
    17d6:	04910513          	addi	a0,sp,73
    17da:	6b7020ef          	jal	ra,4690 <atoi>
    17de:	0ff57513          	andi	a0,a0,255
    17e2:	ed09                	bnez	a0,17fc <mipopenParser+0xba>
    17e4:	4585                	li	a1,1
    17e6:	854a                	mv	a0,s2
    17e8:	3b1000ef          	jal	ra,2398 <socketSetConnState>
    17ec:	82018023          	sb	zero,-2016(gp) # 20000b48 <moduleCtrl+0x4>
    17f0:	8622                	mv	a2,s0
    17f2:	85d6                	mv	a1,s5
    17f4:	8526                	mv	a0,s1
    17f6:	791000ef          	jal	ra,2786 <my_getstrindex>
    17fa:	b761                	j	1782 <mipopenParser+0x40>
    17fc:	4589                	li	a1,2
    17fe:	854a                	mv	a0,s2
    1800:	399000ef          	jal	ra,2398 <socketSetConnState>
    1804:	0049c783          	lbu	a5,4(s3)
    1808:	0785                	addi	a5,a5,1
    180a:	0ff7f793          	andi	a5,a5,255
    180e:	82f18023          	sb	a5,-2016(gp) # 20000b48 <moduleCtrl+0x4>
    1812:	fcfa7fe3          	bgeu	s4,a5,17f0 <mipopenParser+0xae>
    1816:	9a1ff0ef          	jal	ra,11b6 <moduleReset>
    181a:	bfc9                	j	17ec <mipopenParser+0xaa>

0000181c <moduleRecvParser>:
    181c:	3c058363          	beqz	a1,1be2 <moduleRecvParser+0x3c6>
    1820:	7119                	addi	sp,sp,-128
    1822:	8181d703          	lhu	a4,-2024(gp) # 20000b40 <len.4858>
    1826:	6785                	lui	a5,0x1
    1828:	d8ca                	sw	s2,112(sp)
    182a:	d6ce                	sw	s3,108(sp)
    182c:	d4d2                	sw	s4,104(sp)
    182e:	de86                	sw	ra,124(sp)
    1830:	dca2                	sw	s0,120(sp)
    1832:	daa6                	sw	s1,116(sp)
    1834:	d2d6                	sw	s5,100(sp)
    1836:	d0da                	sw	s6,96(sp)
    1838:	cede                	sw	s7,92(sp)
    183a:	cce2                	sw	s8,88(sp)
    183c:	cae6                	sw	s9,84(sp)
    183e:	c8ea                	sw	s10,80(sp)
    1840:	c6ee                	sw	s11,76(sp)
    1842:	972e                	add	a4,a4,a1
    1844:	80078793          	addi	a5,a5,-2048 # 800 <_einit+0x7fc>
    1848:	8a2a                	mv	s4,a0
    184a:	89ae                	mv	s3,a1
    184c:	81818913          	addi	s2,gp,-2024 # 20000b40 <len.4858>
    1850:	00e7dd63          	bge	a5,a4,186a <moduleRecvParser+0x4e>
    1854:	7ff5f993          	andi	s3,a1,2047
    1858:	4525                	li	a0,9
    185a:	00007597          	auipc	a1,0x7
    185e:	e6e58593          	addi	a1,a1,-402 # 86c8 <cmdtable+0x180>
    1862:	80019c23          	sh	zero,-2024(gp) # 20000b40 <len.4858>
    1866:	543000ef          	jal	ra,25a8 <LogMessage>
    186a:	8181d483          	lhu	s1,-2024(gp) # 20000b40 <len.4858>
    186e:	1ffff417          	auipc	s0,0x1ffff
    1872:	2fe40413          	addi	s0,s0,766 # 20000b6c <dataRestore.4859>
    1876:	864e                	mv	a2,s3
    1878:	85d2                	mv	a1,s4
    187a:	00940533          	add	a0,s0,s1
    187e:	637020ef          	jal	ra,46b4 <memcpy>
    1882:	013486b3          	add	a3,s1,s3
    1886:	06c2                	slli	a3,a3,0x10
    1888:	82c1                	srli	a3,a3,0x10
    188a:	80d19c23          	sh	a3,-2024(gp) # 20000b40 <len.4858>
    188e:	00d407b3          	add	a5,s0,a3
    1892:	00078023          	sb	zero,0(a5)
    1896:	4709                	li	a4,2
    1898:	2ed77763          	bgeu	a4,a3,1b86 <moduleRecvParser+0x36a>
    189c:	ffe7c603          	lbu	a2,-2(a5)
    18a0:	4735                	li	a4,13
    18a2:	00e61763          	bne	a2,a4,18b0 <moduleRecvParser+0x94>
    18a6:	fff7c703          	lbu	a4,-1(a5)
    18aa:	47a9                	li	a5,10
    18ac:	00f70a63          	beq	a4,a5,18c0 <moduleRecvParser+0xa4>
    18b0:	1ffff717          	auipc	a4,0x1ffff
    18b4:	2be74703          	lbu	a4,702(a4) # 20000b6e <dataRestore.4859+0x2>
    18b8:	03e00793          	li	a5,62
    18bc:	2cf71563          	bne	a4,a5,1b86 <moduleRecvParser+0x36a>
    18c0:	1ffff617          	auipc	a2,0x1ffff
    18c4:	2ac60613          	addi	a2,a2,684 # 20000b6c <dataRestore.4859>
    18c8:	00007597          	auipc	a1,0x7
    18cc:	e1458593          	addi	a1,a1,-492 # 86dc <cmdtable+0x194>
    18d0:	4525                	li	a0,9
    18d2:	603000ef          	jal	ra,26d4 <LogPrintf>
    18d6:	8181d603          	lhu	a2,-2024(gp) # 20000b40 <len.4858>
    18da:	1ffff597          	auipc	a1,0x1ffff
    18de:	29258593          	addi	a1,a1,658 # 20000b6c <dataRestore.4859>
    18e2:	4525                	li	a0,9
    18e4:	55d000ef          	jal	ra,2640 <LogMessageWL>
    18e8:	00007597          	auipc	a1,0x7
    18ec:	e0858593          	addi	a1,a1,-504 # 86f0 <cmdtable+0x1a8>
    18f0:	4525                	li	a0,9
    18f2:	4b7000ef          	jal	ra,25a8 <LogMessage>
    18f6:	7f0010ef          	jal	ra,30e6 <moduleRspSuccess>
    18fa:	8181d583          	lhu	a1,-2024(gp) # 20000b40 <len.4858>
    18fe:	1ffff517          	auipc	a0,0x1ffff
    1902:	26e50513          	addi	a0,a0,622 # 20000b6c <dataRestore.4859>
    1906:	392d                	jal	1540 <mipurcParser>
    1908:	8181d583          	lhu	a1,-2024(gp) # 20000b40 <len.4858>
    190c:	1ffff517          	auipc	a0,0x1ffff
    1910:	26050513          	addi	a0,a0,608 # 20000b6c <dataRestore.4859>
    1914:	353d                	jal	1742 <mipopenParser>
    1916:	00091603          	lh	a2,0(s2)
    191a:	00007597          	auipc	a1,0x7
    191e:	de258593          	addi	a1,a1,-542 # 86fc <cmdtable+0x1b4>
    1922:	1ffff517          	auipc	a0,0x1ffff
    1926:	24a50513          	addi	a0,a0,586 # 20000b6c <dataRestore.4859>
    192a:	65d000ef          	jal	ra,2786 <my_getstrindex>
    192e:	04818993          	addi	s3,gp,72 # 20001370 <moduleState>
    1932:	02054e63          	bltz	a0,196e <moduleRecvParser+0x152>
    1936:	9522                	add	a0,a0,s0
    1938:	00c54783          	lbu	a5,12(a0)
    193c:	4705                	li	a4,1
    193e:	fd078793          	addi	a5,a5,-48
    1942:	0ff7f793          	andi	a5,a5,255
    1946:	00e79963          	bne	a5,a4,1958 <moduleRecvParser+0x13c>
    194a:	0009c783          	lbu	a5,0(s3)
    194e:	f807e793          	ori	a5,a5,-128
    1952:	04f18423          	sb	a5,72(gp) # 20001370 <moduleState>
    1956:	a821                	j	196e <moduleRecvParser+0x152>
    1958:	ef85                	bnez	a5,1990 <moduleRecvParser+0x174>
    195a:	0009d783          	lhu	a5,0(s3)
    195e:	07f7f793          	andi	a5,a5,127
    1962:	1007e793          	ori	a5,a5,256
    1966:	04f19423          	sh	a5,72(gp) # 20001370 <moduleState>
    196a:	0401ac23          	sw	zero,88(gp) # 20001380 <moduleState+0x10>
    196e:	0029c783          	lbu	a5,2(s3)
    1972:	4735                	li	a4,13
    1974:	17fd                	addi	a5,a5,-1
    1976:	0ff7f793          	andi	a5,a5,255
    197a:	20f76263          	bltu	a4,a5,1b7e <moduleRecvParser+0x362>
    197e:	00007717          	auipc	a4,0x7
    1982:	b9270713          	addi	a4,a4,-1134 # 8510 <_sbrk+0x10e>
    1986:	078a                	slli	a5,a5,0x2
    1988:	97ba                	add	a5,a5,a4
    198a:	439c                	lw	a5,0(a5)
    198c:	97ba                	add	a5,a5,a4
    198e:	8782                	jr	a5
    1990:	0009c783          	lbu	a5,0(s3)
    1994:	07f7f793          	andi	a5,a5,127
    1998:	bf6d                	j	1952 <moduleRecvParser+0x136>
    199a:	1ffff517          	auipc	a0,0x1ffff
    199e:	1d250513          	addi	a0,a0,466 # 20000b6c <dataRestore.4859>
    19a2:	69f000ef          	jal	ra,2840 <distinguishOK>
    19a6:	1c050c63          	beqz	a0,1b7e <moduleRecvParser+0x362>
    19aa:	0009c783          	lbu	a5,0(s3)
    19ae:	0027e793          	ori	a5,a5,2
    19b2:	04f18423          	sb	a5,72(gp) # 20001370 <moduleState>
    19b6:	a2e1                	j	1b7e <moduleRecvParser+0x362>
    19b8:	8181d603          	lhu	a2,-2024(gp) # 20000b40 <len.4858>
    19bc:	00007597          	auipc	a1,0x7
    19c0:	d4c58593          	addi	a1,a1,-692 # 8708 <cmdtable+0x1c0>
    19c4:	1ffff517          	auipc	a0,0x1ffff
    19c8:	1a850513          	addi	a0,a0,424 # 20000b6c <dataRestore.4859>
    19cc:	627000ef          	jal	ra,27f2 <my_strstr>
    19d0:	1a050763          	beqz	a0,1b7e <moduleRecvParser+0x362>
    19d4:	0009c783          	lbu	a5,0(s3)
    19d8:	0047e793          	ori	a5,a5,4
    19dc:	bfd9                	j	19b2 <moduleRecvParser+0x196>
    19de:	8181d483          	lhu	s1,-2024(gp) # 20000b40 <len.4858>
    19e2:	8626                	mv	a2,s1
    19e4:	00007597          	auipc	a1,0x7
    19e8:	d3458593          	addi	a1,a1,-716 # 8718 <cmdtable+0x1d0>
    19ec:	1ffff517          	auipc	a0,0x1ffff
    19f0:	18050513          	addi	a0,a0,384 # 20000b6c <dataRestore.4859>
    19f4:	593000ef          	jal	ra,2786 <my_getstrindex>
    19f8:	18054363          	bltz	a0,1b7e <moduleRecvParser+0x362>
    19fc:	40a485b3          	sub	a1,s1,a0
    1a00:	942a                	add	s0,s0,a0
    1a02:	05c2                	slli	a1,a1,0x10
    1a04:	02c00613          	li	a2,44
    1a08:	81c1                	srli	a1,a1,0x10
    1a0a:	8522                	mv	a0,s0
    1a0c:	513000ef          	jal	ra,271e <getCharIndex>
    1a10:	4799                	li	a5,6
    1a12:	16a7d663          	bge	a5,a0,1b7e <moduleRecvParser+0x362>
    1a16:	ffa50613          	addi	a2,a0,-6
    1a1a:	4795                	li	a5,5
    1a1c:	16c7c163          	blt	a5,a2,1b7e <moduleRecvParser+0x362>
    1a20:	00640593          	addi	a1,s0,6
    1a24:	0068                	addi	a0,sp,12
    1a26:	c602                	sw	zero,12(sp)
    1a28:	00010823          	sb	zero,16(sp)
    1a2c:	1c3030ef          	jal	ra,53ee <strncpy>
    1a30:	0068                	addi	a0,sp,12
    1a32:	45f020ef          	jal	ra,4690 <atoi>
    1a36:	0ff57513          	andi	a0,a0,255
    1a3a:	04a185a3          	sb	a0,75(gp) # 20001373 <moduleState+0x3>
    1a3e:	1569                	addi	a0,a0,-6
    1a40:	0ff57513          	andi	a0,a0,255
    1a44:	47e5                	li	a5,25
    1a46:	12a7ec63          	bltu	a5,a0,1b7e <moduleRecvParser+0x362>
    1a4a:	0009c783          	lbu	a5,0(s3)
    1a4e:	0087e793          	ori	a5,a5,8
    1a52:	b785                	j	19b2 <moduleRecvParser+0x196>
    1a54:	8181d483          	lhu	s1,-2024(gp) # 20000b40 <len.4858>
    1a58:	8626                	mv	a2,s1
    1a5a:	00007597          	auipc	a1,0x7
    1a5e:	cc658593          	addi	a1,a1,-826 # 8720 <cmdtable+0x1d8>
    1a62:	1ffff517          	auipc	a0,0x1ffff
    1a66:	10a50513          	addi	a0,a0,266 # 20000b6c <dataRestore.4859>
    1a6a:	51d000ef          	jal	ra,2786 <my_getstrindex>
    1a6e:	8d2a                	mv	s10,a0
    1a70:	4a81                	li	s5,0
    1a72:	02055163          	bgez	a0,1a94 <moduleRecvParser+0x278>
    1a76:	8626                	mv	a2,s1
    1a78:	00007597          	auipc	a1,0x7
    1a7c:	cb058593          	addi	a1,a1,-848 # 8728 <cmdtable+0x1e0>
    1a80:	1ffff517          	auipc	a0,0x1ffff
    1a84:	0ec50513          	addi	a0,a0,236 # 20000b6c <dataRestore.4859>
    1a88:	4ff000ef          	jal	ra,2786 <my_getstrindex>
    1a8c:	8d2a                	mv	s10,a0
    1a8e:	0e054863          	bltz	a0,1b7e <moduleRecvParser+0x362>
    1a92:	4a85                	li	s5,1
    1a94:	41a484b3          	sub	s1,s1,s10
    1a98:	04c2                	slli	s1,s1,0x10
    1a9a:	6a41                	lui	s4,0x10
    1a9c:	80c1                	srli	s1,s1,0x10
    1a9e:	00010623          	sb	zero,12(sp)
    1aa2:	4d81                	li	s11,0
    1aa4:	4901                	li	s2,0
    1aa6:	4781                	li	a5,0
    1aa8:	02c00b13          	li	s6,44
    1aac:	4b8d                	li	s7,3
    1aae:	1a7d                	addi	s4,s4,-1
    1ab0:	00007c17          	auipc	s8,0x7
    1ab4:	c80c0c13          	addi	s8,s8,-896 # 8730 <cmdtable+0x1e8>
    1ab8:	4c91                	li	s9,4
    1aba:	010d9713          	slli	a4,s11,0x10
    1abe:	8341                	srli	a4,a4,0x10
    1ac0:	0a977f63          	bgeu	a4,s1,1b7e <moduleRecvParser+0x362>
    1ac4:	01bd0733          	add	a4,s10,s11
    1ac8:	9722                	add	a4,a4,s0
    1aca:	00074703          	lbu	a4,0(a4)
    1ace:	01670863          	beq	a4,s6,1ade <moduleRecvParser+0x2c2>
    1ad2:	46b5                	li	a3,13
    1ad4:	00d70563          	beq	a4,a3,1ade <moduleRecvParser+0x2c2>
    1ad8:	46a9                	li	a3,10
    1ada:	08d71963          	bne	a4,a3,1b6c <moduleRecvParser+0x350>
    1ade:	00c10703          	lb	a4,12(sp)
    1ae2:	c329                	beqz	a4,1b24 <moduleRecvParser+0x308>
    1ae4:	0098                	addi	a4,sp,64
    1ae6:	97ba                	add	a5,a5,a4
    1ae8:	0905                	addi	s2,s2,1
    1aea:	fc078623          	sb	zero,-52(a5)
    1aee:	0ff97913          	andi	s2,s2,255
    1af2:	03790e63          	beq	s2,s7,1b2e <moduleRecvParser+0x312>
    1af6:	05990c63          	beq	s2,s9,1b4e <moduleRecvParser+0x332>
    1afa:	4789                	li	a5,2
    1afc:	02f91163          	bne	s2,a5,1b1e <moduleRecvParser+0x302>
    1b00:	00c10783          	lb	a5,12(sp)
    1b04:	03100713          	li	a4,49
    1b08:	9bed                	andi	a5,a5,-5
    1b0a:	06e79a63          	bne	a5,a4,1b7e <moduleRecvParser+0x362>
    1b0e:	0009c783          	lbu	a5,0(s3)
    1b12:	000a8b63          	beqz	s5,1b28 <moduleRecvParser+0x30c>
    1b16:	0207e793          	ori	a5,a5,32
    1b1a:	04f18423          	sb	a5,72(gp) # 20001370 <moduleState>
    1b1e:	00010623          	sb	zero,12(sp)
    1b22:	4781                	li	a5,0
    1b24:	0d85                	addi	s11,s11,1
    1b26:	bf51                	j	1aba <moduleRecvParser+0x29e>
    1b28:	0107e793          	ori	a5,a5,16
    1b2c:	b7fd                	j	1b1a <moduleRecvParser+0x2fe>
    1b2e:	4641                	li	a2,16
    1b30:	4581                	li	a1,0
    1b32:	00d10513          	addi	a0,sp,13
    1b36:	3bb030ef          	jal	ra,56f0 <strtoul>
    1b3a:	04a19623          	sh	a0,76(gp) # 20001374 <moduleState+0x4>
    1b3e:	014576b3          	and	a3,a0,s4
    1b42:	0070                	addi	a2,sp,12
    1b44:	85e2                	mv	a1,s8
    1b46:	4525                	li	a0,9
    1b48:	38d000ef          	jal	ra,26d4 <LogPrintf>
    1b4c:	bfc9                	j	1b1e <moduleRecvParser+0x302>
    1b4e:	4641                	li	a2,16
    1b50:	4581                	li	a1,0
    1b52:	00d10513          	addi	a0,sp,13
    1b56:	39b030ef          	jal	ra,56f0 <strtoul>
    1b5a:	86aa                	mv	a3,a0
    1b5c:	04a1a823          	sw	a0,80(gp) # 20001378 <moduleState+0x8>
    1b60:	0070                	addi	a2,sp,12
    1b62:	00007597          	auipc	a1,0x7
    1b66:	bda58593          	addi	a1,a1,-1062 # 873c <cmdtable+0x1f4>
    1b6a:	bff1                	j	1b46 <moduleRecvParser+0x32a>
    1b6c:	0094                	addi	a3,sp,64
    1b6e:	96be                	add	a3,a3,a5
    1b70:	fce68623          	sb	a4,-52(a3)
    1b74:	0785                	addi	a5,a5,1
    1b76:	03100713          	li	a4,49
    1b7a:	faf755e3          	bge	a4,a5,1b24 <moduleRecvParser+0x308>
    1b7e:	04018523          	sb	zero,74(gp) # 20001372 <moduleState+0x2>
    1b82:	80019c23          	sh	zero,-2024(gp) # 20000b40 <len.4858>
    1b86:	50f6                	lw	ra,124(sp)
    1b88:	5466                	lw	s0,120(sp)
    1b8a:	54d6                	lw	s1,116(sp)
    1b8c:	5946                	lw	s2,112(sp)
    1b8e:	59b6                	lw	s3,108(sp)
    1b90:	5a26                	lw	s4,104(sp)
    1b92:	5a96                	lw	s5,100(sp)
    1b94:	5b06                	lw	s6,96(sp)
    1b96:	4bf6                	lw	s7,92(sp)
    1b98:	4c66                	lw	s8,88(sp)
    1b9a:	4cd6                	lw	s9,84(sp)
    1b9c:	4d46                	lw	s10,80(sp)
    1b9e:	4db6                	lw	s11,76(sp)
    1ba0:	6109                	addi	sp,sp,128
    1ba2:	8082                	ret
    1ba4:	00091603          	lh	a2,0(s2)
    1ba8:	00007597          	auipc	a1,0x7
    1bac:	ba058593          	addi	a1,a1,-1120 # 8748 <cmdtable+0x200>
    1bb0:	1ffff517          	auipc	a0,0x1ffff
    1bb4:	fbc50513          	addi	a0,a0,-68 # 20000b6c <dataRestore.4859>
    1bb8:	3cf000ef          	jal	ra,2786 <my_getstrindex>
    1bbc:	fc0541e3          	bltz	a0,1b7e <moduleRecvParser+0x362>
    1bc0:	942a                	add	s0,s0,a0
    1bc2:	00844703          	lbu	a4,8(s0)
    1bc6:	03100793          	li	a5,49
    1bca:	00f71763          	bne	a4,a5,1bd8 <moduleRecvParser+0x3bc>
    1bce:	0009c783          	lbu	a5,0(s3)
    1bd2:	f807e793          	ori	a5,a5,-128
    1bd6:	bbf1                	j	19b2 <moduleRecvParser+0x196>
    1bd8:	0009c783          	lbu	a5,0(s3)
    1bdc:	07f7f793          	andi	a5,a5,127
    1be0:	bbc9                	j	19b2 <moduleRecvParser+0x196>
    1be2:	8082                	ret

00001be4 <socketSendData>:
    1be4:	1101                	addi	sp,sp,-32
    1be6:	cc22                	sw	s0,24(sp)
    1be8:	ca26                	sw	s1,20(sp)
    1bea:	c84a                	sw	s2,16(sp)
    1bec:	ce06                	sw	ra,28(sp)
    1bee:	892a                	mv	s2,a0
    1bf0:	84ae                	mv	s1,a1
    1bf2:	8432                	mv	s0,a2
    1bf4:	798000ef          	jal	ra,238c <socketGetConnStatus>
    1bf8:	cd15                	beqz	a0,1c34 <socketSendData+0x50>
    1bfa:	864a                	mv	a2,s2
    1bfc:	86a2                	mv	a3,s0
    1bfe:	00007597          	auipc	a1,0x7
    1c02:	c0258593          	addi	a1,a1,-1022 # 8800 <cmdtable+0x2b8>
    1c06:	0048                	addi	a0,sp,4
    1c08:	778030ef          	jal	ra,5380 <siprintf>
    1c0c:	4581                	li	a1,0
    1c0e:	4505                	li	a0,1
    1c10:	cc6ff0ef          	jal	ra,10d6 <sendModuleCmd>
    1c14:	004c                	addi	a1,sp,4
    1c16:	4549                	li	a0,18
    1c18:	cbeff0ef          	jal	ra,10d6 <sendModuleCmd>
    1c1c:	4649                	li	a2,18
    1c1e:	85a2                	mv	a1,s0
    1c20:	8526                	mv	a0,s1
    1c22:	b82ff0ef          	jal	ra,fa4 <createNode>
    1c26:	8522                	mv	a0,s0
    1c28:	40f2                	lw	ra,28(sp)
    1c2a:	4462                	lw	s0,24(sp)
    1c2c:	44d2                	lw	s1,20(sp)
    1c2e:	4942                	lw	s2,16(sp)
    1c30:	6105                	addi	sp,sp,32
    1c32:	8082                	ret
    1c34:	4401                	li	s0,0
    1c36:	bfc5                	j	1c26 <socketSendData+0x42>

00001c38 <isModuleRunNormal>:
    1c38:	0491c503          	lbu	a0,73(gp) # 20001371 <moduleState+0x1>
    1c3c:	1569                	addi	a0,a0,-6
    1c3e:	00153513          	seqz	a0,a0
    1c42:	8082                	ret

00001c44 <paramSaveAll>:
    1c44:	1141                	addi	sp,sp,-16
    1c46:	11200693          	li	a3,274
    1c4a:	4601                	li	a2,0
    1c4c:	4581                	li	a1,0
    1c4e:	4525                	li	a0,9
    1c50:	c606                	sw	ra,12(sp)
    1c52:	1ffff097          	auipc	ra,0x1ffff
    1c56:	99a080e7          	jalr	-1638(ra) # 200005ec <FLASH_EEPROM_CMD>
    1c5a:	40b2                	lw	ra,12(sp)
    1c5c:	11200693          	li	a3,274
    1c60:	5e018613          	addi	a2,gp,1504 # 20001908 <sysparam>
    1c64:	4581                	li	a1,0
    1c66:	4529                	li	a0,10
    1c68:	0141                	addi	sp,sp,16
    1c6a:	1ffff317          	auipc	t1,0x1ffff
    1c6e:	98230067          	jr	-1662(t1) # 200005ec <FLASH_EEPROM_CMD>

00001c72 <paramGetAll>:
    1c72:	11200693          	li	a3,274
    1c76:	5e018613          	addi	a2,gp,1504 # 20001908 <sysparam>
    1c7a:	4581                	li	a1,0
    1c7c:	452d                	li	a0,11
    1c7e:	1ffff317          	auipc	t1,0x1ffff
    1c82:	96e30067          	jr	-1682(t1) # 200005ec <FLASH_EEPROM_CMD>

00001c86 <paramDefaultInit>:
    1c86:	1141                	addi	sp,sp,-16
    1c88:	c422                	sw	s0,8(sp)
    1c8a:	fb000793          	li	a5,-80
    1c8e:	5e018413          	addi	s0,gp,1504 # 20001908 <sysparam>
    1c92:	00007597          	auipc	a1,0x7
    1c96:	ce258593          	addi	a1,a1,-798 # 8974 <cmdtable+0x42c>
    1c9a:	5e218513          	addi	a0,gp,1506 # 2000190a <sysparam+0x2>
    1c9e:	c606                	sw	ra,12(sp)
    1ca0:	00f40023          	sb	a5,0(s0)
    1ca4:	726030ef          	jal	ra,53ca <strcpy>
    1ca8:	00007597          	auipc	a1,0x7
    1cac:	cd458593          	addi	a1,a1,-812 # 897c <cmdtable+0x434>
    1cb0:	68c18513          	addi	a0,gp,1676 # 200019b4 <sysparam+0xac>
    1cb4:	02040a23          	sb	zero,52(s0)
    1cb8:	06040323          	sb	zero,102(s0)
    1cbc:	70e030ef          	jal	ra,53ca <strcpy>
    1cc0:	6789                	lui	a5,0x2
    1cc2:	70e78793          	addi	a5,a5,1806 # 270e <LogPrintf+0x3a>
    1cc6:	00007597          	auipc	a1,0x7
    1cca:	cc658593          	addi	a1,a1,-826 # 898c <cmdtable+0x444>
    1cce:	67818513          	addi	a0,gp,1656 # 200019a0 <sysparam+0x98>
    1cd2:	10f41823          	sh	a5,272(s0)
    1cd6:	6f4030ef          	jal	ra,53ca <strcpy>
    1cda:	00007597          	auipc	a1,0x7
    1cde:	cc258593          	addi	a1,a1,-830 # 899c <cmdtable+0x454>
    1ce2:	6be18513          	addi	a0,gp,1726 # 200019e6 <sysparam+0xde>
    1ce6:	000400a3          	sb	zero,1(s0)
    1cea:	6e0030ef          	jal	ra,53ca <strcpy>
    1cee:	3f99                	jal	1c44 <paramSaveAll>
    1cf0:	4422                	lw	s0,8(sp)
    1cf2:	40b2                	lw	ra,12(sp)
    1cf4:	00007597          	auipc	a1,0x7
    1cf8:	cb858593          	addi	a1,a1,-840 # 89ac <cmdtable+0x464>
    1cfc:	4525                	li	a0,9
    1cfe:	0141                	addi	sp,sp,16
    1d00:	0a90006f          	j	25a8 <LogMessage>

00001d04 <paramInit>:
    1d04:	1141                	addi	sp,sp,-16
    1d06:	c606                	sw	ra,12(sp)
    1d08:	37ad                	jal	1c72 <paramGetAll>
    1d0a:	5e01c703          	lbu	a4,1504(gp) # 20001908 <sysparam>
    1d0e:	0b000793          	li	a5,176
    1d12:	00f70663          	beq	a4,a5,1d1e <paramInit+0x1a>
    1d16:	40b2                	lw	ra,12(sp)
    1d18:	4501                	li	a0,0
    1d1a:	0141                	addi	sp,sp,16
    1d1c:	b7ad                	j	1c86 <paramDefaultInit>
    1d1e:	40b2                	lw	ra,12(sp)
    1d20:	0141                	addi	sp,sp,16
    1d22:	8082                	ret

00001d24 <paramGetCodeVersion>:
    1d24:	6be18593          	addi	a1,gp,1726 # 200019e6 <sysparam+0xde>
    1d28:	6a20306f          	j	53ca <strcpy>

00001d2c <paramSaveUpdateStatus>:
    1d2c:	5ea180a3          	sb	a0,1505(gp) # 20001909 <sysparam+0x1>
    1d30:	bf11                	j	1c44 <paramSaveAll>

00001d32 <postUartRxData>:
    1d32:	00855703          	lhu	a4,8(a0)
    1d36:	00a55783          	lhu	a5,10(a0)
    1d3a:	07c2                	slli	a5,a5,0x10
    1d3c:	83c1                	srli	a5,a5,0x10
    1d3e:	06e78c63          	beq	a5,a4,1db6 <postUartRxData+0x84>
    1d42:	1141                	addi	sp,sp,-16
    1d44:	c226                	sw	s1,4(sp)
    1d46:	00a55483          	lhu	s1,10(a0)
    1d4a:	00855703          	lhu	a4,8(a0)
    1d4e:	00855583          	lhu	a1,8(a0)
    1d52:	04c2                	slli	s1,s1,0x10
    1d54:	c422                	sw	s0,8(sp)
    1d56:	c606                	sw	ra,12(sp)
    1d58:	80c1                	srli	s1,s1,0x10
    1d5a:	842a                	mv	s0,a0
    1d5c:	455c                	lw	a5,12(a0)
    1d5e:	02977563          	bgeu	a4,s1,1d88 <postUartRxData+0x56>
    1d62:	05c2                	slli	a1,a1,0x10
    1d64:	81c1                	srli	a1,a1,0x10
    1d66:	cb91                	beqz	a5,1d7a <postUartRxData+0x48>
    1d68:	00855703          	lhu	a4,8(a0)
    1d6c:	40b485b3          	sub	a1,s1,a1
    1d70:	4108                	lw	a0,0(a0)
    1d72:	05c2                	slli	a1,a1,0x10
    1d74:	81c1                	srli	a1,a1,0x10
    1d76:	953a                	add	a0,a0,a4
    1d78:	9782                	jalr	a5
    1d7a:	00941423          	sh	s1,8(s0)
    1d7e:	40b2                	lw	ra,12(sp)
    1d80:	4422                	lw	s0,8(sp)
    1d82:	4492                	lw	s1,4(sp)
    1d84:	0141                	addi	sp,sp,16
    1d86:	8082                	ret
    1d88:	01059713          	slli	a4,a1,0x10
    1d8c:	8341                	srli	a4,a4,0x10
    1d8e:	cb99                	beqz	a5,1da4 <postUartRxData+0x72>
    1d90:	00655583          	lhu	a1,6(a0)
    1d94:	00855683          	lhu	a3,8(a0)
    1d98:	4108                	lw	a0,0(a0)
    1d9a:	8d99                	sub	a1,a1,a4
    1d9c:	05c2                	slli	a1,a1,0x10
    1d9e:	81c1                	srli	a1,a1,0x10
    1da0:	9536                	add	a0,a0,a3
    1da2:	9782                	jalr	a5
    1da4:	445c                	lw	a5,12(s0)
    1da6:	00041423          	sh	zero,8(s0)
    1daa:	dbe1                	beqz	a5,1d7a <postUartRxData+0x48>
    1dac:	00845703          	lhu	a4,8(s0)
    1db0:	4008                	lw	a0,0(s0)
    1db2:	85a6                	mv	a1,s1
    1db4:	b7c9                	j	1d76 <postUartRxData+0x44>
    1db6:	8082                	ret

00001db8 <pushUartRxData>:
    1db8:	00a55783          	lhu	a5,10(a0)
    1dbc:	00855703          	lhu	a4,8(a0)
    1dc0:	1101                	addi	sp,sp,-32
    1dc2:	cc22                	sw	s0,24(sp)
    1dc4:	ce06                	sw	ra,28(sp)
    1dc6:	ca26                	sw	s1,20(sp)
    1dc8:	c84a                	sw	s2,16(sp)
    1dca:	c64e                	sw	s3,12(sp)
    1dcc:	c452                	sw	s4,8(sp)
    1dce:	c256                	sw	s5,4(sp)
    1dd0:	842a                	mv	s0,a0
    1dd2:	06f77e63          	bgeu	a4,a5,1e4e <pushUartRxData+0x96>
    1dd6:	00855783          	lhu	a5,8(a0)
    1dda:	00655683          	lhu	a3,6(a0)
    1dde:	00a55703          	lhu	a4,10(a0)
    1de2:	97b6                	add	a5,a5,a3
    1de4:	8f99                	sub	a5,a5,a4
    1de6:	07c2                	slli	a5,a5,0x10
    1de8:	83c1                	srli	a5,a5,0x10
    1dea:	557d                	li	a0,-1
    1dec:	04f67863          	bgeu	a2,a5,1e3c <pushUartRxData+0x84>
    1df0:	00a45703          	lhu	a4,10(s0)
    1df4:	00845683          	lhu	a3,8(s0)
    1df8:	84b2                	mv	s1,a2
    1dfa:	8a2e                	mv	s4,a1
    1dfc:	401c                	lw	a5,0(s0)
    1dfe:	0ad76663          	bltu	a4,a3,1eaa <pushUartRxData+0xf2>
    1e02:	00a45903          	lhu	s2,10(s0)
    1e06:	00645a83          	lhu	s5,6(s0)
    1e0a:	00a45503          	lhu	a0,10(s0)
    1e0e:	0942                	slli	s2,s2,0x10
    1e10:	01095913          	srli	s2,s2,0x10
    1e14:	412a89b3          	sub	s3,s5,s2
    1e18:	09c2                	slli	s3,s3,0x10
    1e1a:	0109d993          	srli	s3,s3,0x10
    1e1e:	05367663          	bgeu	a2,s3,1e6a <pushUartRxData+0xb2>
    1e22:	953e                	add	a0,a0,a5
    1e24:	091020ef          	jal	ra,46b4 <memcpy>
    1e28:	00a45603          	lhu	a2,10(s0)
    1e2c:	94b2                	add	s1,s1,a2
    1e2e:	00645603          	lhu	a2,6(s0)
    1e32:	02c4e4b3          	rem	s1,s1,a2
    1e36:	00941523          	sh	s1,10(s0)
    1e3a:	4501                	li	a0,0
    1e3c:	40f2                	lw	ra,28(sp)
    1e3e:	4462                	lw	s0,24(sp)
    1e40:	44d2                	lw	s1,20(sp)
    1e42:	4942                	lw	s2,16(sp)
    1e44:	49b2                	lw	s3,12(sp)
    1e46:	4a22                	lw	s4,8(sp)
    1e48:	4a92                	lw	s5,4(sp)
    1e4a:	6105                	addi	sp,sp,32
    1e4c:	8082                	ret
    1e4e:	00855783          	lhu	a5,8(a0)
    1e52:	00a55703          	lhu	a4,10(a0)
    1e56:	00f77763          	bgeu	a4,a5,1e64 <pushUartRxData+0xac>
    1e5a:	00855783          	lhu	a5,8(a0)
    1e5e:	00a55703          	lhu	a4,10(a0)
    1e62:	b749                	j	1de4 <pushUartRxData+0x2c>
    1e64:	00655783          	lhu	a5,6(a0)
    1e68:	b749                	j	1dea <pushUartRxData+0x32>
    1e6a:	864e                	mv	a2,s3
    1e6c:	953e                	add	a0,a0,a5
    1e6e:	047020ef          	jal	ra,46b4 <memcpy>
    1e72:	00a45783          	lhu	a5,10(s0)
    1e76:	00645703          	lhu	a4,6(s0)
    1e7a:	4008                	lw	a0,0(s0)
    1e7c:	97ce                	add	a5,a5,s3
    1e7e:	02e7e7b3          	rem	a5,a5,a4
    1e82:	41348633          	sub	a2,s1,s3
    1e86:	013a05b3          	add	a1,s4,s3
    1e8a:	00f41523          	sh	a5,10(s0)
    1e8e:	00a45783          	lhu	a5,10(s0)
    1e92:	953e                	add	a0,a0,a5
    1e94:	021020ef          	jal	ra,46b4 <memcpy>
    1e98:	00a45603          	lhu	a2,10(s0)
    1e9c:	9932                	add	s2,s2,a2
    1e9e:	94ca                	add	s1,s1,s2
    1ea0:	415484b3          	sub	s1,s1,s5
    1ea4:	04c2                	slli	s1,s1,0x10
    1ea6:	80c1                	srli	s1,s1,0x10
    1ea8:	b779                	j	1e36 <pushUartRxData+0x7e>
    1eaa:	00a45503          	lhu	a0,10(s0)
    1eae:	953e                	add	a0,a0,a5
    1eb0:	005020ef          	jal	ra,46b4 <memcpy>
    1eb4:	00a45603          	lhu	a2,10(s0)
    1eb8:	94b2                	add	s1,s1,a2
    1eba:	b7ed                	j	1ea4 <pushUartRxData+0xec>

00001ebc <pollUartData>:
    1ebc:	1141                	addi	sp,sp,-16
    1ebe:	70818513          	addi	a0,gp,1800 # 20001a30 <usart0_ctl>
    1ec2:	c606                	sw	ra,12(sp)
    1ec4:	35bd                	jal	1d32 <postUartRxData>
    1ec6:	73018513          	addi	a0,gp,1840 # 20001a58 <usart1_ctl>
    1eca:	35a5                	jal	1d32 <postUartRxData>
    1ecc:	6f418513          	addi	a0,gp,1780 # 20001a1c <usart2_ctl>
    1ed0:	358d                	jal	1d32 <postUartRxData>
    1ed2:	40b2                	lw	ra,12(sp)
    1ed4:	71c18513          	addi	a0,gp,1820 # 20001a44 <usart3_ctl>
    1ed8:	0141                	addi	sp,sp,16
    1eda:	bda1                	j	1d32 <postUartRxData>

00001edc <portUartCfg>:
    1edc:	1141                	addi	sp,sp,-16
    1ede:	c422                	sw	s0,8(sp)
    1ee0:	c226                	sw	s1,4(sp)
    1ee2:	c04a                	sw	s2,0(sp)
    1ee4:	c606                	sw	ra,12(sp)
    1ee6:	4785                	li	a5,1
    1ee8:	84aa                	mv	s1,a0
    1eea:	8932                	mv	s2,a2
    1eec:	8436                	mv	s0,a3
    1eee:	0ef50263          	beq	a0,a5,1fd2 <portUartCfg+0xf6>
    1ef2:	cd09                	beqz	a0,1f0c <portUartCfg+0x30>
    1ef4:	4709                	li	a4,2
    1ef6:	18e50863          	beq	a0,a4,2086 <portUartCfg+0x1aa>
    1efa:	470d                	li	a4,3
    1efc:	24e50163          	beq	a0,a4,213e <portUartCfg+0x262>
    1f00:	40b2                	lw	ra,12(sp)
    1f02:	4422                	lw	s0,8(sp)
    1f04:	4492                	lw	s1,4(sp)
    1f06:	4902                	lw	s2,0(sp)
    1f08:	0141                	addi	sp,sp,16
    1f0a:	8082                	ret
    1f0c:	7001a623          	sw	zero,1804(gp) # 20001a34 <usart0_ctl+0x4>
    1f10:	7001a823          	sw	zero,1808(gp) # 20001a38 <usart0_ctl+0x8>
    1f14:	05c18713          	addi	a4,gp,92 # 20001384 <uart0RxBuff>
    1f18:	70e1a423          	sw	a4,1800(gp) # 20001a30 <usart0_ctl>
    1f1c:	4729                	li	a4,10
    1f1e:	70e19723          	sh	a4,1806(gp) # 20001a36 <usart0_ctl+0x6>
    1f22:	7081aa23          	sw	s0,1812(gp) # 20001a3c <usart0_ctl+0xc>
    1f26:	00002717          	auipc	a4,0x2
    1f2a:	89070713          	addi	a4,a4,-1904 # 37b6 <UART0_SendString>
    1f2e:	70e1ac23          	sw	a4,1816(gp) # 20001a40 <usart0_ctl+0x10>
    1f32:	c9a5                	beqz	a1,1fa2 <portUartCfg+0xc6>
    1f34:	70f18623          	sb	a5,1804(gp) # 20001a34 <usart0_ctl+0x4>
    1f38:	40001737          	lui	a4,0x40001
    1f3c:	0c872783          	lw	a5,200(a4) # 400010c8 <_eusrstack+0x1fff90c8>
    1f40:	4585                	li	a1,1
    1f42:	4541                	li	a0,16
    1f44:	0807e793          	ori	a5,a5,128
    1f48:	0cf72423          	sw	a5,200(a4)
    1f4c:	6a0010ef          	jal	ra,35ec <GPIOB_ModeCfg>
    1f50:	08000513          	li	a0,128
    1f54:	458d                	li	a1,3
    1f56:	696010ef          	jal	ra,35ec <GPIOB_ModeCfg>
    1f5a:	7d8010ef          	jal	ra,3732 <UART0_DefInit>
    1f5e:	854a                	mv	a0,s2
    1f60:	7a2010ef          	jal	ra,3702 <UART0_BaudRateCfg>
    1f64:	c00d                	beqz	s0,1f86 <portUartCfg+0xaa>
    1f66:	450d                	li	a0,3
    1f68:	7fc010ef          	jal	ra,3764 <UART0_ByteTrigCfg>
    1f6c:	479d                	li	a5,7
    1f6e:	4595                	li	a1,5
    1f70:	4505                	li	a0,1
    1f72:	82f18223          	sb	a5,-2012(gp) # 20000b4c <uart0trigB>
    1f76:	009010ef          	jal	ra,377e <UART0_INTCfg>
    1f7a:	e000e7b7          	lui	a5,0xe000e
    1f7e:	04000737          	lui	a4,0x4000
    1f82:	10e7a023          	sw	a4,256(a5) # e000e100 <_eusrstack+0xc0006100>
    1f86:	4422                	lw	s0,8(sp)
    1f88:	40b2                	lw	ra,12(sp)
    1f8a:	4492                	lw	s1,4(sp)
    1f8c:	86ca                	mv	a3,s2
    1f8e:	4902                	lw	s2,0(sp)
    1f90:	4601                	li	a2,0
    1f92:	00007597          	auipc	a1,0x7
    1f96:	a3a58593          	addi	a1,a1,-1478 # 89cc <cmdtable+0x484>
    1f9a:	4525                	li	a0,9
    1f9c:	0141                	addi	sp,sp,16
    1f9e:	7360006f          	j	26d4 <LogPrintf>
    1fa2:	007010ef          	jal	ra,37a8 <UART0_Reset>
    1fa6:	4581                	li	a1,0
    1fa8:	4541                	li	a0,16
    1faa:	642010ef          	jal	ra,35ec <GPIOB_ModeCfg>
    1fae:	4581                	li	a1,0
    1fb0:	08000513          	li	a0,128
    1fb4:	638010ef          	jal	ra,35ec <GPIOB_ModeCfg>
    1fb8:	4595                	li	a1,5
    1fba:	4501                	li	a0,0
    1fbc:	7c2010ef          	jal	ra,377e <UART0_INTCfg>
    1fc0:	e000e7b7          	lui	a5,0xe000e
    1fc4:	04000737          	lui	a4,0x4000
    1fc8:	18e7a023          	sw	a4,384(a5) # e000e180 <_eusrstack+0xc0006180>
    1fcc:	0001                	nop
    1fce:	0001                	nop
    1fd0:	bf05                	j	1f00 <portUartCfg+0x24>
    1fd2:	72019c23          	sh	zero,1848(gp) # 20001a60 <usart1_ctl+0x8>
    1fd6:	72019d23          	sh	zero,1850(gp) # 20001a62 <usart1_ctl+0xa>
    1fda:	06818793          	addi	a5,gp,104 # 20001390 <uart1RxBuff>
    1fde:	72f1a823          	sw	a5,1840(gp) # 20001a58 <usart1_ctl>
    1fe2:	47a9                	li	a5,10
    1fe4:	72f19b23          	sh	a5,1846(gp) # 20001a5e <usart1_ctl+0x6>
    1fe8:	72d1ae23          	sw	a3,1852(gp) # 20001a64 <usart1_ctl+0xc>
    1fec:	00002797          	auipc	a5,0x2
    1ff0:	8e278793          	addi	a5,a5,-1822 # 38ce <UART1_SendString>
    1ff4:	74f1a023          	sw	a5,1856(gp) # 20001a68 <usart1_ctl+0x10>
    1ff8:	c1a5                	beqz	a1,2058 <portUartCfg+0x17c>
    1ffa:	40001737          	lui	a4,0x40001
    1ffe:	72a18a23          	sb	a0,1844(gp) # 20001a5c <usart1_ctl+0x4>
    2002:	0c872783          	lw	a5,200(a4) # 400010c8 <_eusrstack+0x1fff90c8>
    2006:	6689                	lui	a3,0x2
    2008:	4585                	li	a1,1
    200a:	8fd5                	or	a5,a5,a3
    200c:	0cf72423          	sw	a5,200(a4)
    2010:	6505                	lui	a0,0x1
    2012:	5da010ef          	jal	ra,35ec <GPIOB_ModeCfg>
    2016:	458d                	li	a1,3
    2018:	6509                	lui	a0,0x2
    201a:	5d2010ef          	jal	ra,35ec <GPIOB_ModeCfg>
    201e:	4505                	li	a0,1
    2020:	02000593          	li	a1,32
    2024:	66e010ef          	jal	ra,3692 <GPIOPinRemap>
    2028:	023010ef          	jal	ra,384a <UART1_DefInit>
    202c:	854a                	mv	a0,s2
    202e:	7ec010ef          	jal	ra,381a <UART1_BaudRateCfg>
    2032:	ec0407e3          	beqz	s0,1f00 <portUartCfg+0x24>
    2036:	450d                	li	a0,3
    2038:	045010ef          	jal	ra,387c <UART1_ByteTrigCfg>
    203c:	479d                	li	a5,7
    203e:	4595                	li	a1,5
    2040:	4505                	li	a0,1
    2042:	82f182a3          	sb	a5,-2011(gp) # 20000b4d <uart1trigB>
    2046:	051010ef          	jal	ra,3896 <UART1_INTCfg>
    204a:	e000e7b7          	lui	a5,0xe000e
    204e:	08000737          	lui	a4,0x8000
    2052:	10e7a023          	sw	a4,256(a5) # e000e100 <_eusrstack+0xc0006100>
    2056:	b56d                	j	1f00 <portUartCfg+0x24>
    2058:	72018a23          	sb	zero,1844(gp) # 20001a5c <usart1_ctl+0x4>
    205c:	065010ef          	jal	ra,38c0 <UART1_Reset>
    2060:	4581                	li	a1,0
    2062:	10000513          	li	a0,256
    2066:	4e0010ef          	jal	ra,3546 <GPIOA_ModeCfg>
    206a:	4581                	li	a1,0
    206c:	20000513          	li	a0,512
    2070:	4d6010ef          	jal	ra,3546 <GPIOA_ModeCfg>
    2074:	4595                	li	a1,5
    2076:	4501                	li	a0,0
    2078:	01f010ef          	jal	ra,3896 <UART1_INTCfg>
    207c:	e000e7b7          	lui	a5,0xe000e
    2080:	08000737          	lui	a4,0x8000
    2084:	b791                	j	1fc8 <portUartCfg+0xec>
    2086:	6e019e23          	sh	zero,1788(gp) # 20001a24 <usart2_ctl+0x8>
    208a:	6e019f23          	sh	zero,1790(gp) # 20001a26 <usart2_ctl+0xa>
    208e:	07418713          	addi	a4,gp,116 # 2000139c <uart2RxBuff>
    2092:	6ee1aa23          	sw	a4,1780(gp) # 20001a1c <usart2_ctl>
    2096:	08000713          	li	a4,128
    209a:	6ee19d23          	sh	a4,1786(gp) # 20001a22 <usart2_ctl+0x6>
    209e:	7081a023          	sw	s0,1792(gp) # 20001a28 <usart2_ctl+0xc>
    20a2:	00002717          	auipc	a4,0x2
    20a6:	94670713          	addi	a4,a4,-1722 # 39e8 <UART2_SendString>
    20aa:	70e1a223          	sw	a4,1796(gp) # 20001a2c <usart2_ctl+0x10>
    20ae:	c1ad                	beqz	a1,2110 <portUartCfg+0x234>
    20b0:	04000593          	li	a1,64
    20b4:	4505                	li	a0,1
    20b6:	6ef18c23          	sb	a5,1784(gp) # 20001a20 <usart2_ctl+0x4>
    20ba:	5d8010ef          	jal	ra,3692 <GPIOPinRemap>
    20be:	40001737          	lui	a4,0x40001
    20c2:	0c872783          	lw	a5,200(a4) # 400010c8 <_eusrstack+0x1fff90c8>
    20c6:	008006b7          	lui	a3,0x800
    20ca:	4585                	li	a1,1
    20cc:	8fd5                	or	a5,a5,a3
    20ce:	0cf72423          	sw	a5,200(a4)
    20d2:	00400537          	lui	a0,0x400
    20d6:	516010ef          	jal	ra,35ec <GPIOB_ModeCfg>
    20da:	00800537          	lui	a0,0x800
    20de:	458d                	li	a1,3
    20e0:	50c010ef          	jal	ra,35ec <GPIOB_ModeCfg>
    20e4:	081010ef          	jal	ra,3964 <UART2_DefInit>
    20e8:	854a                	mv	a0,s2
    20ea:	049010ef          	jal	ra,3932 <UART2_BaudRateCfg>
    20ee:	e00409e3          	beqz	s0,1f00 <portUartCfg+0x24>
    20f2:	450d                	li	a0,3
    20f4:	0a3010ef          	jal	ra,3996 <UART2_ByteTrigCfg>
    20f8:	479d                	li	a5,7
    20fa:	4595                	li	a1,5
    20fc:	4505                	li	a0,1
    20fe:	82f18323          	sb	a5,-2010(gp) # 20000b4e <uart2trigB>
    2102:	0af010ef          	jal	ra,39b0 <UART2_INTCfg>
    2106:	e000e7b7          	lui	a5,0xe000e
    210a:	1097a223          	sw	s1,260(a5) # e000e104 <_eusrstack+0xc0006104>
    210e:	bbcd                	j	1f00 <portUartCfg+0x24>
    2110:	6e018c23          	sb	zero,1784(gp) # 20001a20 <usart2_ctl+0x4>
    2114:	0c7010ef          	jal	ra,39da <UART2_Reset>
    2118:	4581                	li	a1,0
    211a:	00400537          	lui	a0,0x400
    211e:	4ce010ef          	jal	ra,35ec <GPIOB_ModeCfg>
    2122:	4581                	li	a1,0
    2124:	00800537          	lui	a0,0x800
    2128:	4c4010ef          	jal	ra,35ec <GPIOB_ModeCfg>
    212c:	4595                	li	a1,5
    212e:	4501                	li	a0,0
    2130:	081010ef          	jal	ra,39b0 <UART2_INTCfg>
    2134:	e000e7b7          	lui	a5,0xe000e
    2138:	1897a223          	sw	s1,388(a5) # e000e184 <_eusrstack+0xc0006184>
    213c:	bd41                	j	1fcc <portUartCfg+0xf0>
    213e:	72019223          	sh	zero,1828(gp) # 20001a4c <usart3_ctl+0x8>
    2142:	72019323          	sh	zero,1830(gp) # 20001a4e <usart3_ctl+0xa>
    2146:	0f418713          	addi	a4,gp,244 # 2000141c <uart3RxBuff>
    214a:	70e1ae23          	sw	a4,1820(gp) # 20001a44 <usart3_ctl>
    214e:	30000713          	li	a4,768
    2152:	72e19123          	sh	a4,1826(gp) # 20001a4a <usart3_ctl+0x6>
    2156:	7281a423          	sw	s0,1832(gp) # 20001a50 <usart3_ctl+0xc>
    215a:	00002717          	auipc	a4,0x2
    215e:	9a870713          	addi	a4,a4,-1624 # 3b02 <UART3_SendString>
    2162:	72e1a623          	sw	a4,1836(gp) # 20001a54 <usart3_ctl+0x10>
    2166:	c9b9                	beqz	a1,21bc <portUartCfg+0x2e0>
    2168:	72f18023          	sb	a5,1824(gp) # 20001a48 <usart3_ctl+0x4>
    216c:	40001737          	lui	a4,0x40001
    2170:	0a872783          	lw	a5,168(a4) # 400010a8 <_eusrstack+0x1fff90a8>
    2174:	4585                	li	a1,1
    2176:	4541                	li	a0,16
    2178:	0207e793          	ori	a5,a5,32
    217c:	0af72423          	sw	a5,168(a4)
    2180:	3c6010ef          	jal	ra,3546 <GPIOA_ModeCfg>
    2184:	02000513          	li	a0,32
    2188:	458d                	li	a1,3
    218a:	3bc010ef          	jal	ra,3546 <GPIOA_ModeCfg>
    218e:	0f1010ef          	jal	ra,3a7e <UART3_DefInit>
    2192:	854a                	mv	a0,s2
    2194:	0b9010ef          	jal	ra,3a4c <UART3_BaudRateCfg>
    2198:	d60404e3          	beqz	s0,1f00 <portUartCfg+0x24>
    219c:	450d                	li	a0,3
    219e:	113010ef          	jal	ra,3ab0 <UART3_ByteTrigCfg>
    21a2:	479d                	li	a5,7
    21a4:	4595                	li	a1,5
    21a6:	4505                	li	a0,1
    21a8:	82f183a3          	sb	a5,-2009(gp) # 20000b4f <uart3trigB>
    21ac:	11f010ef          	jal	ra,3aca <UART3_INTCfg>
    21b0:	e000e7b7          	lui	a5,0xe000e
    21b4:	4711                	li	a4,4
    21b6:	10e7a223          	sw	a4,260(a5) # e000e104 <_eusrstack+0xc0006104>
    21ba:	b399                	j	1f00 <portUartCfg+0x24>
    21bc:	72018023          	sb	zero,1824(gp) # 20001a48 <usart3_ctl+0x4>
    21c0:	135010ef          	jal	ra,3af4 <UART3_Reset>
    21c4:	4581                	li	a1,0
    21c6:	4541                	li	a0,16
    21c8:	37e010ef          	jal	ra,3546 <GPIOA_ModeCfg>
    21cc:	4581                	li	a1,0
    21ce:	02000513          	li	a0,32
    21d2:	374010ef          	jal	ra,3546 <GPIOA_ModeCfg>
    21d6:	4595                	li	a1,5
    21d8:	4501                	li	a0,0
    21da:	0f1010ef          	jal	ra,3aca <UART3_INTCfg>
    21de:	e000e7b7          	lui	a5,0xe000e
    21e2:	4711                	li	a4,4
    21e4:	18e7a223          	sw	a4,388(a5) # e000e184 <_eusrstack+0xc0006184>
    21e8:	b3d5                	j	1fcc <portUartCfg+0xf0>

000021ea <portUartSend>:
    21ea:	87aa                	mv	a5,a0
    21ec:	0107a303          	lw	t1,16(a5)
    21f0:	852e                	mv	a0,a1
    21f2:	00030963          	beqz	t1,2204 <portUartSend+0x1a>
    21f6:	0047c703          	lbu	a4,4(a5)
    21fa:	4785                	li	a5,1
    21fc:	00f71463          	bne	a4,a5,2204 <portUartSend+0x1a>
    2200:	85b2                	mv	a1,a2
    2202:	8302                	jr	t1
    2204:	8082                	ret

00002206 <portTimerCfg>:
    2206:	1141                	addi	sp,sp,-16
    2208:	c606                	sw	ra,12(sp)
    220a:	4a2010ef          	jal	ra,36ac <GetSysClock>
    220e:	3e800793          	li	a5,1000
    2212:	02f55533          	divu	a0,a0,a5
    2216:	4d8010ef          	jal	ra,36ee <TMR0_TimerInit>
    221a:	40002737          	lui	a4,0x40002
    221e:	00274783          	lbu	a5,2(a4) # 40002002 <_eusrstack+0x1fffa002>
    2222:	0017e793          	ori	a5,a5,1
    2226:	00f70123          	sb	a5,2(a4)
    222a:	40b2                	lw	ra,12(sp)
    222c:	e000e7b7          	lui	a5,0xe000e
    2230:	6741                	lui	a4,0x10
    2232:	10e7a023          	sw	a4,256(a5) # e000e100 <_eusrstack+0xc0006100>
    2236:	0141                	addi	sp,sp,16
    2238:	8082                	ret

0000223a <portGpioSetDefCfg>:
    223a:	1141                	addi	sp,sp,-16
    223c:	4581                	li	a1,0
    223e:	557d                	li	a0,-1
    2240:	c606                	sw	ra,12(sp)
    2242:	304010ef          	jal	ra,3546 <GPIOA_ModeCfg>
    2246:	40b2                	lw	ra,12(sp)
    2248:	4581                	li	a1,0
    224a:	557d                	li	a0,-1
    224c:	0141                	addi	sp,sp,16
    224e:	39e0106f          	j	35ec <GPIOB_ModeCfg>

00002252 <portModuleGpioCfg>:
    2252:	1141                	addi	sp,sp,-16
    2254:	458d                	li	a1,3
    2256:	6509                	lui	a0,0x2
    2258:	c606                	sw	ra,12(sp)
    225a:	392010ef          	jal	ra,35ec <GPIOB_ModeCfg>
    225e:	458d                	li	a1,3
    2260:	40000513          	li	a0,1024
    2264:	2e2010ef          	jal	ra,3546 <GPIOA_ModeCfg>
    2268:	458d                	li	a1,3
    226a:	6521                	lui	a0,0x8
    226c:	2da010ef          	jal	ra,3546 <GPIOA_ModeCfg>
    2270:	400017b7          	lui	a5,0x40001
    2274:	0cc7a703          	lw	a4,204(a5) # 400010cc <_eusrstack+0x1fff90cc>
    2278:	6689                	lui	a3,0x2
    227a:	40b2                	lw	ra,12(sp)
    227c:	8f55                	or	a4,a4,a3
    227e:	0ce7a623          	sw	a4,204(a5)
    2282:	0ac7a703          	lw	a4,172(a5)
    2286:	40076713          	ori	a4,a4,1024
    228a:	0ae7a623          	sw	a4,172(a5)
    228e:	0141                	addi	sp,sp,16
    2290:	8082                	ret

00002292 <portLedCfg>:
    2292:	1141                	addi	sp,sp,-16
    2294:	458d                	li	a1,3
    2296:	40000513          	li	a0,1024
    229a:	c606                	sw	ra,12(sp)
    229c:	350010ef          	jal	ra,35ec <GPIOB_ModeCfg>
    22a0:	40001737          	lui	a4,0x40001
    22a4:	0cc72783          	lw	a5,204(a4) # 400010cc <_eusrstack+0x1fff90cc>
    22a8:	40b2                	lw	ra,12(sp)
    22aa:	4007e793          	ori	a5,a5,1024
    22ae:	0cf72623          	sw	a5,204(a4)
    22b2:	0141                	addi	sp,sp,16
    22b4:	8082                	ret

000022b6 <portSysReset>:
    22b6:	1141                	addi	sp,sp,-16
    22b8:	00006597          	auipc	a1,0x6
    22bc:	70458593          	addi	a1,a1,1796 # 89bc <cmdtable+0x474>
    22c0:	4525                	li	a0,9
    22c2:	c606                	sw	ra,12(sp)
    22c4:	24d5                	jal	25a8 <LogMessage>
    22c6:	40b2                	lw	ra,12(sp)
    22c8:	0141                	addi	sp,sp,16
    22ca:	1fffe317          	auipc	t1,0x1fffe
    22ce:	1ba30067          	jr	442(t1) # 20000484 <SYS_ResetExecute>

000022d2 <socketAdd>:
    22d2:	e52d                	bnez	a0,233c <socketAdd+0x6a>
    22d4:	1101                	addi	sp,sp,-32
    22d6:	c84a                	sw	s2,16(sp)
    22d8:	74418913          	addi	s2,gp,1860 # 20001a6c <socketList>
    22dc:	00092783          	lw	a5,0(s2)
    22e0:	ce06                	sw	ra,28(sp)
    22e2:	cc22                	sw	s0,24(sp)
    22e4:	ca26                	sw	s1,20(sp)
    22e6:	c64e                	sw	s3,12(sp)
    22e8:	8b85                	andi	a5,a5,1
    22ea:	5579                	li	a0,-2
    22ec:	e3a9                	bnez	a5,232e <socketAdd+0x5c>
    22ee:	5575                	li	a0,-3
    22f0:	cd9d                	beqz	a1,232e <socketAdd+0x5c>
    22f2:	ce15                	beqz	a2,232e <socketAdd+0x5c>
    22f4:	00058783          	lb	a5,0(a1)
    22f8:	5571                	li	a0,-4
    22fa:	cb95                	beqz	a5,232e <socketAdd+0x5c>
    22fc:	84b2                	mv	s1,a2
    22fe:	842e                	mv	s0,a1
    2300:	03400613          	li	a2,52
    2304:	4581                	li	a1,0
    2306:	854a                	mv	a0,s2
    2308:	89b6                	mv	s3,a3
    230a:	f04fe0ef          	jal	ra,a0e <memset>
    230e:	85a2                	mv	a1,s0
    2310:	74718513          	addi	a0,gp,1863 # 20001a6f <socketList+0x3>
    2314:	0b6030ef          	jal	ra,53ca <strcpy>
    2318:	76919823          	sh	s1,1904(gp) # 20001a98 <socketList+0x2c>
    231c:	7731aa23          	sw	s3,1908(gp) # 20001a9c <socketList+0x30>
    2320:	00094783          	lbu	a5,0(s2)
    2324:	4505                	li	a0,1
    2326:	0017e793          	ori	a5,a5,1
    232a:	74f18223          	sb	a5,1860(gp) # 20001a6c <socketList>
    232e:	40f2                	lw	ra,28(sp)
    2330:	4462                	lw	s0,24(sp)
    2332:	44d2                	lw	s1,20(sp)
    2334:	4942                	lw	s2,16(sp)
    2336:	49b2                	lw	s3,12(sp)
    2338:	6105                	addi	sp,sp,32
    233a:	8082                	ret
    233c:	557d                	li	a0,-1
    233e:	8082                	ret

00002340 <socketDel>:
    2340:	e91d                	bnez	a0,2376 <socketDel+0x36>
    2342:	74418713          	addi	a4,gp,1860 # 20001a6c <socketList>
    2346:	431c                	lw	a5,0(a4)
    2348:	8b85                	andi	a5,a5,1
    234a:	c795                	beqz	a5,2376 <socketDel+0x36>
    234c:	00074783          	lbu	a5,0(a4)
    2350:	1141                	addi	sp,sp,-16
    2352:	4525                	li	a0,9
    2354:	9bf9                	andi	a5,a5,-2
    2356:	7461c603          	lbu	a2,1862(gp) # 20001a6e <socketList+0x2>
    235a:	00006597          	auipc	a1,0x6
    235e:	68658593          	addi	a1,a1,1670 # 89e0 <cmdtable+0x498>
    2362:	c606                	sw	ra,12(sp)
    2364:	74f18223          	sb	a5,1860(gp) # 20001a6c <socketList>
    2368:	26b5                	jal	26d4 <LogPrintf>
    236a:	40b2                	lw	ra,12(sp)
    236c:	7461c503          	lbu	a0,1862(gp) # 20001a6e <socketList+0x2>
    2370:	0141                	addi	sp,sp,16
    2372:	ec1fe06f          	j	1232 <closeSocket>
    2376:	8082                	ret

00002378 <socketDelAll>:
    2378:	4501                	li	a0,0
    237a:	b7d9                	j	2340 <socketDel>

0000237c <socketGetUsedFlag>:
    237c:	e511                	bnez	a0,2388 <socketGetUsedFlag+0xc>
    237e:	74418793          	addi	a5,gp,1860 # 20001a6c <socketList>
    2382:	4388                	lw	a0,0(a5)
    2384:	8905                	andi	a0,a0,1
    2386:	8082                	ret
    2388:	4501                	li	a0,0
    238a:	8082                	ret

0000238c <socketGetConnStatus>:
    238c:	e501                	bnez	a0,2394 <socketGetConnStatus+0x8>
    238e:	7451c503          	lbu	a0,1861(gp) # 20001a6d <socketList+0x1>
    2392:	8082                	ret
    2394:	4501                	li	a0,0
    2396:	8082                	ret

00002398 <socketSetConnState>:
    2398:	e119                	bnez	a0,239e <socketSetConnState+0x6>
    239a:	74b182a3          	sb	a1,1861(gp) # 20001a6d <socketList+0x1>
    239e:	8082                	ret

000023a0 <socketRecv>:
    23a0:	87ae                	mv	a5,a1
    23a2:	e911                	bnez	a0,23b6 <socketRecv+0x16>
    23a4:	74418713          	addi	a4,gp,1860 # 20001a6c <socketList>
    23a8:	03072303          	lw	t1,48(a4)
    23ac:	00030563          	beqz	t1,23b6 <socketRecv+0x16>
    23b0:	85b2                	mv	a1,a2
    23b2:	853e                	mv	a0,a5
    23b4:	8302                	jr	t1
    23b6:	8082                	ret

000023b8 <socketSchedule>:
    23b8:	1141                	addi	sp,sp,-16
    23ba:	c226                	sw	s1,4(sp)
    23bc:	77818493          	addi	s1,gp,1912 # 20001aa0 <sockSchInfo>
    23c0:	409c                	lw	a5,0(s1)
    23c2:	c606                	sw	ra,12(sp)
    23c4:	c422                	sw	s0,8(sp)
    23c6:	c04a                	sw	s2,0(sp)
    23c8:	4705                	li	a4,1
    23ca:	04e78563          	beq	a5,a4,2414 <socketSchedule+0x5c>
    23ce:	cb91                	beqz	a5,23e2 <socketSchedule+0x2a>
    23d0:	4709                	li	a4,2
    23d2:	0ae78563          	beq	a5,a4,247c <socketSchedule+0xc4>
    23d6:	40b2                	lw	ra,12(sp)
    23d8:	4422                	lw	s0,8(sp)
    23da:	4492                	lw	s1,4(sp)
    23dc:	4902                	lw	s2,0(sp)
    23de:	0141                	addi	sp,sp,16
    23e0:	8082                	ret
    23e2:	74418693          	addi	a3,gp,1860 # 20001a6c <socketList>
    23e6:	4280                	lw	s0,0(a3)
    23e8:	76018ea3          	sb	zero,1917(gp) # 20001aa5 <sockSchInfo+0x5>
    23ec:	7451c783          	lbu	a5,1861(gp) # 20001a6d <socketList+0x1>
    23f0:	8805                	andi	s0,s0,1
    23f2:	10e41063          	bne	s0,a4,24f2 <socketSchedule+0x13a>
    23f6:	0e878e63          	beq	a5,s0,24f2 <socketSchedule+0x13a>
    23fa:	74718693          	addi	a3,gp,1863 # 20001a6f <socketList+0x3>
    23fe:	4601                	li	a2,0
    2400:	00006597          	auipc	a1,0x6
    2404:	64458593          	addi	a1,a1,1604 # 8a44 <cmdtable+0x4fc>
    2408:	4525                	li	a0,9
    240a:	24e9                	jal	26d4 <LogPrintf>
    240c:	7681ac23          	sw	s0,1912(gp) # 20001aa0 <sockSchInfo>
    2410:	76018e23          	sb	zero,1916(gp) # 20001aa4 <sockSchInfo+0x4>
    2414:	77c1c783          	lbu	a5,1916(gp) # 20001aa4 <sockSchInfo+0x4>
    2418:	00178713          	addi	a4,a5,1
    241c:	76e18e23          	sb	a4,1916(gp) # 20001aa4 <sockSchInfo+0x4>
    2420:	74418413          	addi	s0,gp,1860 # 20001a6c <socketList>
    2424:	e39d                	bnez	a5,244a <socketSchedule+0x92>
    2426:	03400793          	li	a5,52
    242a:	77d1c583          	lbu	a1,1917(gp) # 20001aa5 <sockSchInfo+0x5>
    242e:	02f585b3          	mul	a1,a1,a5
    2432:	00b407b3          	add	a5,s0,a1
    2436:	02c7d603          	lhu	a2,44(a5)
    243a:	0027c503          	lbu	a0,2(a5)
    243e:	058d                	addi	a1,a1,3
    2440:	000780a3          	sb	zero,1(a5)
    2444:	95a2                	add	a1,a1,s0
    2446:	dc3fe0ef          	jal	ra,1208 <openSocket>
    244a:	77d1c603          	lbu	a2,1917(gp) # 20001aa5 <sockSchInfo+0x5>
    244e:	03400793          	li	a5,52
    2452:	02f607b3          	mul	a5,a2,a5
    2456:	943e                	add	s0,s0,a5
    2458:	00144403          	lbu	s0,1(s0)
    245c:	4785                	li	a5,1
    245e:	04f41b63          	bne	s0,a5,24b4 <socketSchedule+0xfc>
    2462:	00006597          	auipc	a1,0x6
    2466:	59258593          	addi	a1,a1,1426 # 89f4 <cmdtable+0x4ac>
    246a:	4525                	li	a0,9
    246c:	24a5                	jal	26d4 <LogPrintf>
    246e:	777000ef          	jal	ra,33e4 <upgradeSocketSuccess>
    2472:	4789                	li	a5,2
    2474:	76f1ac23          	sw	a5,1912(gp) # 20001aa0 <sockSchInfo>
    2478:	76018e23          	sb	zero,1916(gp) # 20001aa4 <sockSchInfo+0x4>
    247c:	77d1c783          	lbu	a5,1917(gp) # 20001aa5 <sockSchInfo+0x5>
    2480:	03400713          	li	a4,52
    2484:	02e78733          	mul	a4,a5,a4
    2488:	74418793          	addi	a5,gp,1860 # 20001a6c <socketList>
    248c:	97ba                	add	a5,a5,a4
    248e:	0017c683          	lbu	a3,1(a5)
    2492:	4705                	li	a4,1
    2494:	00e68663          	beq	a3,a4,24a0 <socketSchedule+0xe8>
    2498:	0027c503          	lbu	a0,2(a5)
    249c:	d97fe0ef          	jal	ra,1232 <closeSocket>
    24a0:	0054c783          	lbu	a5,5(s1) # 10005 <_data_lma+0x6c01>
    24a4:	0785                	addi	a5,a5,1
    24a6:	76f18ea3          	sb	a5,1917(gp) # 20001aa5 <sockSchInfo+0x5>
    24aa:	7601ac23          	sw	zero,1912(gp) # 20001aa0 <sockSchInfo>
    24ae:	76018e23          	sb	zero,1916(gp) # 20001aa4 <sockSchInfo+0x4>
    24b2:	b715                	j	23d6 <socketSchedule+0x1e>
    24b4:	4909                	li	s2,2
    24b6:	01241d63          	bne	s0,s2,24d0 <socketSchedule+0x118>
    24ba:	00006597          	auipc	a1,0x6
    24be:	55658593          	addi	a1,a1,1366 # 8a10 <cmdtable+0x4c8>
    24c2:	4525                	li	a0,9
    24c4:	2c01                	jal	26d4 <LogPrintf>
    24c6:	6cb000ef          	jal	ra,3390 <upgradeSocketErr>
    24ca:	7681ac23          	sw	s0,1912(gp) # 20001aa0 <sockSchInfo>
    24ce:	b76d                	j	2478 <socketSchedule+0xc0>
    24d0:	77c1c703          	lbu	a4,1916(gp) # 20001aa4 <sockSchInfo+0x4>
    24d4:	05a00793          	li	a5,90
    24d8:	eee7ffe3          	bgeu	a5,a4,23d6 <socketSchedule+0x1e>
    24dc:	00006597          	auipc	a1,0x6
    24e0:	54c58593          	addi	a1,a1,1356 # 8a28 <cmdtable+0x4e0>
    24e4:	4525                	li	a0,9
    24e6:	22fd                	jal	26d4 <LogPrintf>
    24e8:	6a9000ef          	jal	ra,3390 <upgradeSocketErr>
    24ec:	7721ac23          	sw	s2,1912(gp) # 20001aa0 <sockSchInfo>
    24f0:	b761                	j	2478 <socketSchedule+0xc0>
    24f2:	76018ea3          	sb	zero,1917(gp) # 20001aa5 <sockSchInfo+0x5>
    24f6:	b5c5                	j	23d6 <socketSchedule+0x1e>

000024f8 <GetCrc16>:
    24f8:	67c1                	lui	a5,0x10
    24fa:	17fd                	addi	a5,a5,-1
    24fc:	95aa                	add	a1,a1,a0
    24fe:	00006697          	auipc	a3,0x6
    2502:	58268693          	addi	a3,a3,1410 # 8a80 <ztvm_crctab16>
    2506:	40a58733          	sub	a4,a1,a0
    250a:	00e04763          	bgtz	a4,2518 <GetCrc16+0x20>
    250e:	fff7c513          	not	a0,a5
    2512:	0542                	slli	a0,a0,0x10
    2514:	8141                	srli	a0,a0,0x10
    2516:	8082                	ret
    2518:	00050703          	lb	a4,0(a0) # 8000 <__subdf3+0x670>
    251c:	0087d613          	srli	a2,a5,0x8
    2520:	0505                	addi	a0,a0,1
    2522:	8fb9                	xor	a5,a5,a4
    2524:	0ff7f793          	andi	a5,a5,255
    2528:	0786                	slli	a5,a5,0x1
    252a:	97b6                	add	a5,a5,a3
    252c:	0007d783          	lhu	a5,0(a5) # 10000 <_data_lma+0x6bfc>
    2530:	8fb1                	xor	a5,a5,a2
    2532:	bfd1                	j	2506 <GetCrc16+0xe>

00002534 <portGetRtcDateTime>:
    2534:	7179                	addi	sp,sp,-48
    2536:	d422                	sw	s0,40(sp)
    2538:	d226                	sw	s1,36(sp)
    253a:	d04a                	sw	s2,32(sp)
    253c:	ce4e                	sw	s3,28(sp)
    253e:	cc52                	sw	s4,24(sp)
    2540:	ca56                	sw	s5,20(sp)
    2542:	8a2e                	mv	s4,a1
    2544:	8aaa                	mv	s5,a0
    2546:	89b2                	mv	s3,a2
    2548:	8936                	mv	s2,a3
    254a:	84ba                	mv	s1,a4
    254c:	843e                	mv	s0,a5
    254e:	0078                	addi	a4,sp,12
    2550:	00e10793          	addi	a5,sp,14
    2554:	00a10693          	addi	a3,sp,10
    2558:	0030                	addi	a2,sp,8
    255a:	00610593          	addi	a1,sp,6
    255e:	0048                	addi	a0,sp,4
    2560:	d606                	sw	ra,44(sp)
    2562:	689000ef          	jal	ra,33ea <RTC_GetTime>
    2566:	00415783          	lhu	a5,4(sp)
    256a:	50b2                	lw	ra,44(sp)
    256c:	00fa9023          	sh	a5,0(s5)
    2570:	00615783          	lhu	a5,6(sp)
    2574:	4ad2                	lw	s5,20(sp)
    2576:	00fa0023          	sb	a5,0(s4) # 10000 <_data_lma+0x6bfc>
    257a:	00815783          	lhu	a5,8(sp)
    257e:	4a62                	lw	s4,24(sp)
    2580:	00f98023          	sb	a5,0(s3)
    2584:	00a15783          	lhu	a5,10(sp)
    2588:	49f2                	lw	s3,28(sp)
    258a:	00f90023          	sb	a5,0(s2)
    258e:	00c15783          	lhu	a5,12(sp)
    2592:	5902                	lw	s2,32(sp)
    2594:	00f48023          	sb	a5,0(s1)
    2598:	00e15783          	lhu	a5,14(sp)
    259c:	5492                	lw	s1,36(sp)
    259e:	00f40023          	sb	a5,0(s0)
    25a2:	5422                	lw	s0,40(sp)
    25a4:	6145                	addi	sp,sp,48
    25a6:	8082                	ret

000025a8 <LogMessage>:
    25a8:	7179                	addi	sp,sp,-48
    25aa:	00910793          	addi	a5,sp,9
    25ae:	d422                	sw	s0,40(sp)
    25b0:	0038                	addi	a4,sp,8
    25b2:	842e                	mv	s0,a1
    25b4:	00710693          	addi	a3,sp,7
    25b8:	00610613          	addi	a2,sp,6
    25bc:	00510593          	addi	a1,sp,5
    25c0:	00a10513          	addi	a0,sp,10
    25c4:	d606                	sw	ra,44(sp)
    25c6:	00011523          	sh	zero,10(sp)
    25ca:	000102a3          	sb	zero,5(sp)
    25ce:	00010323          	sb	zero,6(sp)
    25d2:	000103a3          	sb	zero,7(sp)
    25d6:	00010423          	sb	zero,8(sp)
    25da:	000104a3          	sb	zero,9(sp)
    25de:	3f99                	jal	2534 <portGetRtcDateTime>
    25e0:	00914703          	lbu	a4,9(sp)
    25e4:	00814683          	lbu	a3,8(sp)
    25e8:	00714603          	lbu	a2,7(sp)
    25ec:	00006597          	auipc	a1,0x6
    25f0:	47058593          	addi	a1,a1,1136 # 8a5c <cmdtable+0x514>
    25f4:	0068                	addi	a0,sp,12
    25f6:	58b020ef          	jal	ra,5380 <siprintf>
    25fa:	0068                	addi	a0,sp,12
    25fc:	5e1020ef          	jal	ra,53dc <strlen>
    2600:	01051613          	slli	a2,a0,0x10
    2604:	006c                	addi	a1,sp,12
    2606:	8241                	srli	a2,a2,0x10
    2608:	6f418513          	addi	a0,gp,1780 # 20001a1c <usart2_ctl>
    260c:	bdfff0ef          	jal	ra,21ea <portUartSend>
    2610:	8522                	mv	a0,s0
    2612:	5cb020ef          	jal	ra,53dc <strlen>
    2616:	01051613          	slli	a2,a0,0x10
    261a:	85a2                	mv	a1,s0
    261c:	8241                	srli	a2,a2,0x10
    261e:	6f418513          	addi	a0,gp,1780 # 20001a1c <usart2_ctl>
    2622:	bc9ff0ef          	jal	ra,21ea <portUartSend>
    2626:	4609                	li	a2,2
    2628:	00006597          	auipc	a1,0x6
    262c:	17458593          	addi	a1,a1,372 # 879c <cmdtable+0x254>
    2630:	6f418513          	addi	a0,gp,1780 # 20001a1c <usart2_ctl>
    2634:	bb7ff0ef          	jal	ra,21ea <portUartSend>
    2638:	50b2                	lw	ra,44(sp)
    263a:	5422                	lw	s0,40(sp)
    263c:	6145                	addi	sp,sp,48
    263e:	8082                	ret

00002640 <LogMessageWL>:
    2640:	7179                	addi	sp,sp,-48
    2642:	d422                	sw	s0,40(sp)
    2644:	d226                	sw	s1,36(sp)
    2646:	00910793          	addi	a5,sp,9
    264a:	842e                	mv	s0,a1
    264c:	84b2                	mv	s1,a2
    264e:	0038                	addi	a4,sp,8
    2650:	00710693          	addi	a3,sp,7
    2654:	00610613          	addi	a2,sp,6
    2658:	00510593          	addi	a1,sp,5
    265c:	00a10513          	addi	a0,sp,10
    2660:	d606                	sw	ra,44(sp)
    2662:	00011523          	sh	zero,10(sp)
    2666:	000102a3          	sb	zero,5(sp)
    266a:	00010323          	sb	zero,6(sp)
    266e:	000103a3          	sb	zero,7(sp)
    2672:	00010423          	sb	zero,8(sp)
    2676:	000104a3          	sb	zero,9(sp)
    267a:	3d6d                	jal	2534 <portGetRtcDateTime>
    267c:	00914703          	lbu	a4,9(sp)
    2680:	00814683          	lbu	a3,8(sp)
    2684:	00714603          	lbu	a2,7(sp)
    2688:	00006597          	auipc	a1,0x6
    268c:	3d458593          	addi	a1,a1,980 # 8a5c <cmdtable+0x514>
    2690:	0068                	addi	a0,sp,12
    2692:	4ef020ef          	jal	ra,5380 <siprintf>
    2696:	0068                	addi	a0,sp,12
    2698:	545020ef          	jal	ra,53dc <strlen>
    269c:	01051613          	slli	a2,a0,0x10
    26a0:	006c                	addi	a1,sp,12
    26a2:	8241                	srli	a2,a2,0x10
    26a4:	6f418513          	addi	a0,gp,1780 # 20001a1c <usart2_ctl>
    26a8:	b43ff0ef          	jal	ra,21ea <portUartSend>
    26ac:	8626                	mv	a2,s1
    26ae:	85a2                	mv	a1,s0
    26b0:	6f418513          	addi	a0,gp,1780 # 20001a1c <usart2_ctl>
    26b4:	b37ff0ef          	jal	ra,21ea <portUartSend>
    26b8:	4609                	li	a2,2
    26ba:	00006597          	auipc	a1,0x6
    26be:	0e258593          	addi	a1,a1,226 # 879c <cmdtable+0x254>
    26c2:	6f418513          	addi	a0,gp,1780 # 20001a1c <usart2_ctl>
    26c6:	b25ff0ef          	jal	ra,21ea <portUartSend>
    26ca:	50b2                	lw	ra,44(sp)
    26cc:	5422                	lw	s0,40(sp)
    26ce:	5492                	lw	s1,36(sp)
    26d0:	6145                	addi	sp,sp,48
    26d2:	8082                	ret

000026d4 <LogPrintf>:
    26d4:	7139                	addi	sp,sp,-64
    26d6:	cc22                	sw	s0,24(sp)
    26d8:	3f418413          	addi	s0,gp,1012 # 2000171c <LOGDEBUG.4052>
    26dc:	ca26                	sw	s1,20(sp)
    26de:	d432                	sw	a2,40(sp)
    26e0:	84aa                	mv	s1,a0
    26e2:	862e                	mv	a2,a1
    26e4:	d636                	sw	a3,44(sp)
    26e6:	10000593          	li	a1,256
    26ea:	1034                	addi	a3,sp,40
    26ec:	8522                	mv	a0,s0
    26ee:	ce06                	sw	ra,28(sp)
    26f0:	d83a                	sw	a4,48(sp)
    26f2:	da3e                	sw	a5,52(sp)
    26f4:	dc42                	sw	a6,56(sp)
    26f6:	de46                	sw	a7,60(sp)
    26f8:	c636                	sw	a3,12(sp)
    26fa:	078030ef          	jal	ra,5772 <vsniprintf>
    26fe:	8522                	mv	a0,s0
    2700:	0e040fa3          	sb	zero,255(s0)
    2704:	4d9020ef          	jal	ra,53dc <strlen>
    2708:	01051613          	slli	a2,a0,0x10
    270c:	85a2                	mv	a1,s0
    270e:	8526                	mv	a0,s1
    2710:	8241                	srli	a2,a2,0x10
    2712:	373d                	jal	2640 <LogMessageWL>
    2714:	40f2                	lw	ra,28(sp)
    2716:	4462                	lw	s0,24(sp)
    2718:	44d2                	lw	s1,20(sp)
    271a:	6121                	addi	sp,sp,64
    271c:	8082                	ret

0000271e <getCharIndex>:
    271e:	4781                	li	a5,0
    2720:	00b7c563          	blt	a5,a1,272a <getCharIndex+0xc>
    2724:	57fd                	li	a5,-1
    2726:	853e                	mv	a0,a5
    2728:	8082                	ret
    272a:	00f50733          	add	a4,a0,a5
    272e:	00074703          	lbu	a4,0(a4)
    2732:	fec70ae3          	beq	a4,a2,2726 <getCharIndex+0x8>
    2736:	0785                	addi	a5,a5,1
    2738:	b7e5                	j	2720 <getCharIndex+0x2>

0000273a <my_strpach>:
    273a:	4781                	li	a5,0
    273c:	c139                	beqz	a0,2782 <my_strpach+0x48>
    273e:	c1b1                	beqz	a1,2782 <my_strpach+0x48>
    2740:	1141                	addi	sp,sp,-16
    2742:	c226                	sw	s1,4(sp)
    2744:	84aa                	mv	s1,a0
    2746:	852e                	mv	a0,a1
    2748:	c422                	sw	s0,8(sp)
    274a:	c606                	sw	ra,12(sp)
    274c:	842e                	mv	s0,a1
    274e:	48f020ef          	jal	ra,53dc <strlen>
    2752:	4781                	li	a5,0
    2754:	00a7c963          	blt	a5,a0,2766 <my_strpach+0x2c>
    2758:	4785                	li	a5,1
    275a:	40b2                	lw	ra,12(sp)
    275c:	4422                	lw	s0,8(sp)
    275e:	4492                	lw	s1,4(sp)
    2760:	853e                	mv	a0,a5
    2762:	0141                	addi	sp,sp,16
    2764:	8082                	ret
    2766:	00f486b3          	add	a3,s1,a5
    276a:	00f40733          	add	a4,s0,a5
    276e:	00068683          	lb	a3,0(a3)
    2772:	00070703          	lb	a4,0(a4)
    2776:	00e69463          	bne	a3,a4,277e <my_strpach+0x44>
    277a:	0785                	addi	a5,a5,1
    277c:	bfe1                	j	2754 <my_strpach+0x1a>
    277e:	4781                	li	a5,0
    2780:	bfe9                	j	275a <my_strpach+0x20>
    2782:	853e                	mv	a0,a5
    2784:	8082                	ret

00002786 <my_getstrindex>:
    2786:	1101                	addi	sp,sp,-32
    2788:	cc22                	sw	s0,24(sp)
    278a:	ce06                	sw	ra,28(sp)
    278c:	ca26                	sw	s1,20(sp)
    278e:	c84a                	sw	s2,16(sp)
    2790:	c64e                	sw	s3,12(sp)
    2792:	c452                	sw	s4,8(sp)
    2794:	547d                	li	s0,-1
    2796:	c50d                	beqz	a0,27c0 <my_getstrindex+0x3a>
    2798:	c585                	beqz	a1,27c0 <my_getstrindex+0x3a>
    279a:	02c05363          	blez	a2,27c0 <my_getstrindex+0x3a>
    279e:	8a2a                	mv	s4,a0
    27a0:	852e                	mv	a0,a1
    27a2:	84b2                	mv	s1,a2
    27a4:	89ae                	mv	s3,a1
    27a6:	437020ef          	jal	ra,53dc <strlen>
    27aa:	0542                	slli	a0,a0,0x10
    27ac:	8141                	srli	a0,a0,0x10
    27ae:	5479                	li	s0,-2
    27b0:	00a4c863          	blt	s1,a0,27c0 <my_getstrindex+0x3a>
    27b4:	4901                	li	s2,0
    27b6:	8c89                	sub	s1,s1,a0
    27b8:	844a                	mv	s0,s2
    27ba:	0124dc63          	bge	s1,s2,27d2 <my_getstrindex+0x4c>
    27be:	5475                	li	s0,-3
    27c0:	8522                	mv	a0,s0
    27c2:	40f2                	lw	ra,28(sp)
    27c4:	4462                	lw	s0,24(sp)
    27c6:	44d2                	lw	s1,20(sp)
    27c8:	4942                	lw	s2,16(sp)
    27ca:	49b2                	lw	s3,12(sp)
    27cc:	4a22                	lw	s4,8(sp)
    27ce:	6105                	addi	sp,sp,32
    27d0:	8082                	ret
    27d2:	012a0533          	add	a0,s4,s2
    27d6:	00050703          	lb	a4,0(a0)
    27da:	00098783          	lb	a5,0(s3)
    27de:	00f71563          	bne	a4,a5,27e8 <my_getstrindex+0x62>
    27e2:	85ce                	mv	a1,s3
    27e4:	3f99                	jal	273a <my_strpach>
    27e6:	fd69                	bnez	a0,27c0 <my_getstrindex+0x3a>
    27e8:	0905                	addi	s2,s2,1
    27ea:	0942                	slli	s2,s2,0x10
    27ec:	01095913          	srli	s2,s2,0x10
    27f0:	b7e1                	j	27b8 <my_getstrindex+0x32>

000027f2 <my_strstr>:
    27f2:	1101                	addi	sp,sp,-32
    27f4:	c64e                	sw	s3,12(sp)
    27f6:	89aa                	mv	s3,a0
    27f8:	852e                	mv	a0,a1
    27fa:	cc22                	sw	s0,24(sp)
    27fc:	ca26                	sw	s1,20(sp)
    27fe:	c84a                	sw	s2,16(sp)
    2800:	84b2                	mv	s1,a2
    2802:	ce06                	sw	ra,28(sp)
    2804:	892e                	mv	s2,a1
    2806:	3d7020ef          	jal	ra,53dc <strlen>
    280a:	4401                	li	s0,0
    280c:	8c89                	sub	s1,s1,a0
    280e:	0084da63          	bge	s1,s0,2822 <my_strstr+0x30>
    2812:	4501                	li	a0,0
    2814:	40f2                	lw	ra,28(sp)
    2816:	4462                	lw	s0,24(sp)
    2818:	44d2                	lw	s1,20(sp)
    281a:	4942                	lw	s2,16(sp)
    281c:	49b2                	lw	s3,12(sp)
    281e:	6105                	addi	sp,sp,32
    2820:	8082                	ret
    2822:	00898533          	add	a0,s3,s0
    2826:	00050703          	lb	a4,0(a0)
    282a:	00090783          	lb	a5,0(s2)
    282e:	00f71563          	bne	a4,a5,2838 <my_strstr+0x46>
    2832:	85ca                	mv	a1,s2
    2834:	3719                	jal	273a <my_strpach>
    2836:	e119                	bnez	a0,283c <my_strstr+0x4a>
    2838:	0405                	addi	s0,s0,1
    283a:	bfd1                	j	280e <my_strstr+0x1c>
    283c:	4505                	li	a0,1
    283e:	bfd9                	j	2814 <my_strstr+0x22>

00002840 <distinguishOK>:
    2840:	1141                	addi	sp,sp,-16
    2842:	00006597          	auipc	a1,0x6
    2846:	22e58593          	addi	a1,a1,558 # 8a70 <cmdtable+0x528>
    284a:	c606                	sw	ra,12(sp)
    284c:	3c7020ef          	jal	ra,5412 <strstr>
    2850:	40b2                	lw	ra,12(sp)
    2852:	00a03533          	snez	a0,a0
    2856:	0141                	addi	sp,sp,16
    2858:	8082                	ret

0000285a <byteToHexString>:
    285a:	4681                	li	a3,0
    285c:	4825                	li	a6,9
    285e:	01069793          	slli	a5,a3,0x10
    2862:	83c1                	srli	a5,a5,0x10
    2864:	00c7e363          	bltu	a5,a2,286a <byteToHexString+0x10>
    2868:	8082                	ret
    286a:	00d507b3          	add	a5,a0,a3
    286e:	0007c783          	lbu	a5,0(a5)
    2872:	0047d713          	srli	a4,a5,0x4
    2876:	8bbd                	andi	a5,a5,15
    2878:	00e86f63          	bltu	a6,a4,2896 <byteToHexString+0x3c>
    287c:	03070713          	addi	a4,a4,48
    2880:	00e58023          	sb	a4,0(a1)
    2884:	00f86c63          	bltu	a6,a5,289c <byteToHexString+0x42>
    2888:	03078793          	addi	a5,a5,48
    288c:	00f580a3          	sb	a5,1(a1)
    2890:	0685                	addi	a3,a3,1
    2892:	0589                	addi	a1,a1,2
    2894:	b7e9                	j	285e <byteToHexString+0x4>
    2896:	03770713          	addi	a4,a4,55
    289a:	b7dd                	j	2880 <byteToHexString+0x26>
    289c:	03778793          	addi	a5,a5,55
    28a0:	b7f5                	j	288c <byteToHexString+0x32>

000028a2 <stringToItem>:
    28a2:	715d                	addi	sp,sp,-80
    28a4:	c4a2                	sw	s0,72(sp)
    28a6:	c2a6                	sw	s1,68(sp)
    28a8:	8432                	mv	s0,a2
    28aa:	84ae                	mv	s1,a1
    28ac:	1e100613          	li	a2,481
    28b0:	4581                	li	a1,0
    28b2:	c686                	sw	ra,76(sp)
    28b4:	95afe0ef          	jal	ra,a0e <memset>
    28b8:	02000837          	lui	a6,0x2000
    28bc:	872a                	mv	a4,a0
    28be:	4581                	li	a1,0
    28c0:	4681                	li	a3,0
    28c2:	02c00893          	li	a7,44
    28c6:	03c00513          	li	a0,60
    28ca:	431d                	li	t1,7
    28cc:	4e65                	li	t3,25
    28ce:	03b00e93          	li	t4,59
    28d2:	0825                	addi	a6,a6,9
    28d4:	03d00f13          	li	t5,61
    28d8:	01059793          	slli	a5,a1,0x10
    28dc:	83c1                	srli	a5,a5,0x10
    28de:	0287ff63          	bgeu	a5,s0,291c <stringToItem+0x7a>
    28e2:	00b487b3          	add	a5,s1,a1
    28e6:	0007cf83          	lbu	t6,0(a5)
    28ea:	00074783          	lbu	a5,0(a4)
    28ee:	011f8a63          	beq	t6,a7,2902 <stringToItem+0x60>
    28f2:	ff6f8613          	addi	a2,t6,-10
    28f6:	0ff67613          	andi	a2,a2,255
    28fa:	04ce7563          	bgeu	t3,a2,2944 <stringToItem+0xa2>
    28fe:	05ef9763          	bne	t6,t5,294c <stringToItem+0xaa>
    2902:	02a78633          	mul	a2,a5,a0
    2906:	963a                	add	a2,a2,a4
    2908:	00160603          	lb	a2,1(a2)
    290c:	ca35                	beqz	a2,2980 <stringToItem+0xde>
    290e:	0785                	addi	a5,a5,1
    2910:	0ff7f793          	andi	a5,a5,255
    2914:	00f70023          	sb	a5,0(a4)
    2918:	06f37663          	bgeu	t1,a5,2984 <stringToItem+0xe2>
    291c:	00074683          	lbu	a3,0(a4)
    2920:	03200593          	li	a1,50
    2924:	00006617          	auipc	a2,0x6
    2928:	15060613          	addi	a2,a2,336 # 8a74 <cmdtable+0x52c>
    292c:	0068                	addi	a0,sp,12
    292e:	1df020ef          	jal	ra,530c <sniprintf>
    2932:	006c                	addi	a1,sp,12
    2934:	4525                	li	a0,9
    2936:	c73ff0ef          	jal	ra,25a8 <LogMessage>
    293a:	40b6                	lw	ra,76(sp)
    293c:	4426                	lw	s0,72(sp)
    293e:	4496                	lw	s1,68(sp)
    2940:	6161                	addi	sp,sp,80
    2942:	8082                	ret
    2944:	00c85633          	srl	a2,a6,a2
    2948:	8a05                	andi	a2,a2,1
    294a:	fe45                	bnez	a2,2902 <stringToItem+0x60>
    294c:	02a78633          	mul	a2,a5,a0
    2950:	963a                	add	a2,a2,a4
    2952:	9636                	add	a2,a2,a3
    2954:	0685                	addi	a3,a3,1
    2956:	01f600a3          	sb	t6,1(a2)
    295a:	06c2                	slli	a3,a3,0x10
    295c:	00158613          	addi	a2,a1,1
    2960:	82c1                	srli	a3,a3,0x10
    2962:	00c41563          	bne	s0,a2,296c <stringToItem+0xca>
    2966:	0785                	addi	a5,a5,1
    2968:	00f70023          	sb	a5,0(a4)
    296c:	fcdee7e3          	bltu	t4,a3,293a <stringToItem+0x98>
    2970:	00074783          	lbu	a5,0(a4)
    2974:	02a787b3          	mul	a5,a5,a0
    2978:	97ba                	add	a5,a5,a4
    297a:	97b6                	add	a5,a5,a3
    297c:	000780a3          	sb	zero,1(a5)
    2980:	0585                	addi	a1,a1,1
    2982:	bf99                	j	28d8 <stringToItem+0x36>
    2984:	4681                	li	a3,0
    2986:	bfed                	j	2980 <stringToItem+0xde>

00002988 <getCharIndexWithNum>:
    2988:	c509                	beqz	a0,2992 <getCharIndexWithNum+0xa>
    298a:	4701                	li	a4,0
    298c:	4781                	li	a5,0
    298e:	00b7c563          	blt	a5,a1,2998 <getCharIndexWithNum+0x10>
    2992:	57fd                	li	a5,-1
    2994:	853e                	mv	a0,a5
    2996:	8082                	ret
    2998:	00f50833          	add	a6,a0,a5
    299c:	00084803          	lbu	a6,0(a6) # 2000000 <_data_lma+0x1ff6bfc>
    29a0:	00c81563          	bne	a6,a2,29aa <getCharIndexWithNum+0x22>
    29a4:	0705                	addi	a4,a4,1
    29a6:	fee687e3          	beq	a3,a4,2994 <getCharIndexWithNum+0xc>
    29aa:	0785                	addi	a5,a5,1
    29ac:	b7cd                	j	298e <getCharIndexWithNum+0x6>

000029ae <moduleRspTimeout>:
    29ae:	57fd                	li	a5,-1
    29b0:	1fffe717          	auipc	a4,0x1fffe
    29b4:	16f70ca3          	sb	a5,377(a4) # 20000b29 <timeOutId>
    29b8:	ffefe06f          	j	11b6 <moduleReset>

000029bc <timeOutCheck>:
    29bc:	1fffe797          	auipc	a5,0x1fffe
    29c0:	16d78793          	addi	a5,a5,365 # 20000b29 <timeOutId>
    29c4:	00078703          	lb	a4,0(a5)
    29c8:	57fd                	li	a5,-1
    29ca:	02f71563          	bne	a4,a5,29f4 <timeOutCheck+0x38>
    29ce:	6509                	lui	a0,0x2
    29d0:	1141                	addi	sp,sp,-16
    29d2:	4601                	li	a2,0
    29d4:	00000597          	auipc	a1,0x0
    29d8:	fda58593          	addi	a1,a1,-38 # 29ae <moduleRspTimeout>
    29dc:	71050513          	addi	a0,a0,1808 # 2710 <LogPrintf+0x3c>
    29e0:	c606                	sw	ra,12(sp)
    29e2:	988fe0ef          	jal	ra,b6a <startTimer>
    29e6:	40b2                	lw	ra,12(sp)
    29e8:	1fffe797          	auipc	a5,0x1fffe
    29ec:	14a780a3          	sb	a0,321(a5) # 20000b29 <timeOutId>
    29f0:	0141                	addi	sp,sp,16
    29f2:	8082                	ret
    29f4:	8082                	ret

000029f6 <protocolRecvParser>:
    29f6:	00050783          	lb	a5,0(a0)
    29fa:	07800713          	li	a4,120
    29fe:	02e79863          	bne	a5,a4,2a2e <protocolRecvParser+0x38>
    2a02:	00150703          	lb	a4,1(a0)
    2a06:	38f71163          	bne	a4,a5,2d88 <protocolRecvParser+0x392>
    2a0a:	00350703          	lb	a4,3(a0)
    2a0e:	4785                	li	a5,1
    2a10:	38f71163          	bne	a4,a5,2d92 <protocolRecvParser+0x39c>
    2a14:	4e018e23          	sb	zero,1276(gp) # 20001824 <netconnect+0x8>
    2a18:	4789                	li	a5,2
    2a1a:	4ef1aa23          	sw	a5,1268(gp) # 2000181c <netconnect>
    2a1e:	00006597          	auipc	a1,0x6
    2a22:	28a58593          	addi	a1,a1,650 # 8ca8 <ztvm_crctab16+0x228>
    2a26:	4e019d23          	sh	zero,1274(gp) # 20001822 <netconnect+0x6>
    2a2a:	4525                	li	a0,9
    2a2c:	aa5d                	j	2be2 <protocolRecvParser+0x1ec>
    2a2e:	07900713          	li	a4,121
    2a32:	34e79b63          	bne	a5,a4,2d88 <protocolRecvParser+0x392>
    2a36:	00150703          	lb	a4,1(a0)
    2a3a:	34f71763          	bne	a4,a5,2d88 <protocolRecvParser+0x392>
    2a3e:	00450703          	lb	a4,4(a0)
    2a42:	57cd                	li	a5,-13
    2a44:	34f71763          	bne	a4,a5,2d92 <protocolRecvParser+0x39c>
    2a48:	1101                	addi	sp,sp,-32
    2a4a:	cc22                	sw	s0,24(sp)
    2a4c:	ce06                	sw	ra,28(sp)
    2a4e:	ca26                	sw	s1,20(sp)
    2a50:	c84a                	sw	s2,16(sp)
    2a52:	c64e                	sw	s3,12(sp)
    2a54:	c452                	sw	s4,8(sp)
    2a56:	c256                	sw	s5,4(sp)
    2a58:	00554783          	lbu	a5,5(a0)
    2a5c:	4705                	li	a4,1
    2a5e:	842a                	mv	s0,a0
    2a60:	1ce79063          	bne	a5,a4,2c20 <protocolRecvParser+0x22a>
    2a64:	00654703          	lbu	a4,6(a0)
    2a68:	16f71f63          	bne	a4,a5,2be6 <protocolRecvParser+0x1f0>
    2a6c:	00754783          	lbu	a5,7(a0)
    2a70:	00854703          	lbu	a4,8(a0)
    2a74:	50018a13          	addi	s4,gp,1280 # 20001828 <uis>
    2a78:	07e2                	slli	a5,a5,0x18
    2a7a:	0742                	slli	a4,a4,0x10
    2a7c:	8fd9                	or	a5,a5,a4
    2a7e:	00a54703          	lbu	a4,10(a0)
    2a82:	03100a93          	li	s5,49
    2a86:	89d2                	mv	s3,s4
    2a88:	8fd9                	or	a5,a5,a4
    2a8a:	00954703          	lbu	a4,9(a0)
    2a8e:	00006597          	auipc	a1,0x6
    2a92:	22658593          	addi	a1,a1,550 # 8cb4 <ztvm_crctab16+0x234>
    2a96:	0722                	slli	a4,a4,0x8
    2a98:	8fd9                	or	a5,a5,a4
    2a9a:	5cf1a423          	sw	a5,1480(gp) # 200018f0 <uis+0xc8>
    2a9e:	00b54783          	lbu	a5,11(a0)
    2aa2:	00c54703          	lbu	a4,12(a0)
    2aa6:	07e2                	slli	a5,a5,0x18
    2aa8:	0742                	slli	a4,a4,0x10
    2aaa:	8fd9                	or	a5,a5,a4
    2aac:	00e54703          	lbu	a4,14(a0)
    2ab0:	8fd9                	or	a5,a5,a4
    2ab2:	00d54703          	lbu	a4,13(a0)
    2ab6:	0722                	slli	a4,a4,0x8
    2ab8:	8fd9                	or	a5,a5,a4
    2aba:	5cf1aa23          	sw	a5,1492(gp) # 200018fc <uis+0xd4>
    2abe:	00f54483          	lbu	s1,15(a0)
    2ac2:	8626                	mv	a2,s1
    2ac4:	029ae963          	bltu	s5,s1,2af6 <protocolRecvParser+0x100>
    2ac8:	01050593          	addi	a1,a0,16
    2acc:	56418513          	addi	a0,gp,1380 # 2000188c <uis+0x64>
    2ad0:	11f020ef          	jal	ra,53ee <strncpy>
    2ad4:	009a07b3          	add	a5,s4,s1
    2ad8:	04c2                	slli	s1,s1,0x10
    2ada:	80c1                	srli	s1,s1,0x10
    2adc:	06078223          	sb	zero,100(a5)
    2ae0:	009407b3          	add	a5,s0,s1
    2ae4:	0107c903          	lbu	s2,16(a5)
    2ae8:	032af263          	bgeu	s5,s2,2b0c <protocolRecvParser+0x116>
    2aec:	864a                	mv	a2,s2
    2aee:	00006597          	auipc	a1,0x6
    2af2:	1d658593          	addi	a1,a1,470 # 8cc4 <ztvm_crctab16+0x244>
    2af6:	4462                	lw	s0,24(sp)
    2af8:	40f2                	lw	ra,28(sp)
    2afa:	44d2                	lw	s1,20(sp)
    2afc:	4942                	lw	s2,16(sp)
    2afe:	49b2                	lw	s3,12(sp)
    2b00:	4a22                	lw	s4,8(sp)
    2b02:	4a92                	lw	s5,4(sp)
    2b04:	4525                	li	a0,9
    2b06:	6105                	addi	sp,sp,32
    2b08:	bcdff06f          	j	26d4 <LogPrintf>
    2b0c:	04c5                	addi	s1,s1,17
    2b0e:	864a                	mv	a2,s2
    2b10:	009405b3          	add	a1,s0,s1
    2b14:	59618513          	addi	a0,gp,1430 # 200018be <uis+0x96>
    2b18:	0d7020ef          	jal	ra,53ee <strncpy>
    2b1c:	9a4a                	add	s4,s4,s2
    2b1e:	94ca                	add	s1,s1,s2
    2b20:	080a0b23          	sb	zero,150(s4)
    2b24:	009407b3          	add	a5,s0,s1
    2b28:	0007c903          	lbu	s2,0(a5)
    2b2c:	012af863          	bgeu	s5,s2,2b3c <protocolRecvParser+0x146>
    2b30:	864a                	mv	a2,s2
    2b32:	00006597          	auipc	a1,0x6
    2b36:	1aa58593          	addi	a1,a1,426 # 8cdc <ztvm_crctab16+0x25c>
    2b3a:	bf75                	j	2af6 <protocolRecvParser+0x100>
    2b3c:	0485                	addi	s1,s1,1
    2b3e:	864a                	mv	a2,s2
    2b40:	009405b3          	add	a1,s0,s1
    2b44:	53218513          	addi	a0,gp,1330 # 2000185a <uis+0x32>
    2b48:	0a7020ef          	jal	ra,53ee <strncpy>
    2b4c:	0d49a683          	lw	a3,212(s3)
    2b50:	0c89a603          	lw	a2,200(s3)
    2b54:	00006597          	auipc	a1,0x6
    2b58:	1a058593          	addi	a1,a1,416 # 8cf4 <ztvm_crctab16+0x274>
    2b5c:	4525                	li	a0,9
    2b5e:	994e                	add	s2,s2,s3
    2b60:	02090923          	sb	zero,50(s2)
    2b64:	b71ff0ef          	jal	ra,26d4 <LogPrintf>
    2b68:	56418613          	addi	a2,gp,1380 # 2000188c <uis+0x64>
    2b6c:	00006597          	auipc	a1,0x6
    2b70:	1a858593          	addi	a1,a1,424 # 8d14 <ztvm_crctab16+0x294>
    2b74:	4525                	li	a0,9
    2b76:	b5fff0ef          	jal	ra,26d4 <LogPrintf>
    2b7a:	59618613          	addi	a2,gp,1430 # 200018be <uis+0x96>
    2b7e:	00006597          	auipc	a1,0x6
    2b82:	1a258593          	addi	a1,a1,418 # 8d20 <ztvm_crctab16+0x2a0>
    2b86:	4525                	li	a0,9
    2b88:	b4dff0ef          	jal	ra,26d4 <LogPrintf>
    2b8c:	53218613          	addi	a2,gp,1330 # 2000185a <uis+0x32>
    2b90:	00006597          	auipc	a1,0x6
    2b94:	19c58593          	addi	a1,a1,412 # 8d2c <ztvm_crctab16+0x2ac>
    2b98:	4525                	li	a0,9
    2b9a:	b3bff0ef          	jal	ra,26d4 <LogPrintf>
    2b9e:	478d                	li	a5,3
    2ba0:	4ef1aa23          	sw	a5,1268(gp) # 2000181c <netconnect>
    2ba4:	4e019d23          	sh	zero,1274(gp) # 20001822 <netconnect+0x6>
    2ba8:	0d89a783          	lw	a5,216(s3)
    2bac:	ef91                	bnez	a5,2bc8 <protocolRecvParser+0x1d2>
    2bae:	4462                	lw	s0,24(sp)
    2bb0:	0d49a583          	lw	a1,212(s3)
    2bb4:	40f2                	lw	ra,28(sp)
    2bb6:	44d2                	lw	s1,20(sp)
    2bb8:	4942                	lw	s2,16(sp)
    2bba:	49b2                	lw	s3,12(sp)
    2bbc:	4a22                	lw	s4,8(sp)
    2bbe:	4a92                	lw	s5,4(sp)
    2bc0:	6531                	lui	a0,0xc
    2bc2:	6105                	addi	sp,sp,32
    2bc4:	ef3fd06f          	j	ab6 <flashEarseByFileSize>
    2bc8:	00006597          	auipc	a1,0x6
    2bcc:	17458593          	addi	a1,a1,372 # 8d3c <ztvm_crctab16+0x2bc>
    2bd0:	4462                	lw	s0,24(sp)
    2bd2:	40f2                	lw	ra,28(sp)
    2bd4:	44d2                	lw	s1,20(sp)
    2bd6:	4942                	lw	s2,16(sp)
    2bd8:	49b2                	lw	s3,12(sp)
    2bda:	4a22                	lw	s4,8(sp)
    2bdc:	4a92                	lw	s5,4(sp)
    2bde:	4525                	li	a0,9
    2be0:	6105                	addi	sp,sp,32
    2be2:	9c7ff06f          	j	25a8 <LogMessage>
    2be6:	00006597          	auipc	a1,0x6
    2bea:	17258593          	addi	a1,a1,370 # 8d58 <ztvm_crctab16+0x2d8>
    2bee:	4525                	li	a0,9
    2bf0:	9b9ff0ef          	jal	ra,25a8 <LogMessage>
    2bf4:	4501                	li	a0,0
    2bf6:	936ff0ef          	jal	ra,1d2c <paramSaveUpdateStatus>
    2bfa:	b72fe0ef          	jal	ra,f6c <modulePowerOff>
    2bfe:	4462                	lw	s0,24(sp)
    2c00:	40f2                	lw	ra,28(sp)
    2c02:	44d2                	lw	s1,20(sp)
    2c04:	4942                	lw	s2,16(sp)
    2c06:	49b2                	lw	s3,12(sp)
    2c08:	4a22                	lw	s4,8(sp)
    2c0a:	4a92                	lw	s5,4(sp)
    2c0c:	4605                	li	a2,1
    2c0e:	00000597          	auipc	a1,0x0
    2c12:	6e858593          	addi	a1,a1,1768 # 32f6 <startJumpToApp>
    2c16:	3e800513          	li	a0,1000
    2c1a:	6105                	addi	sp,sp,32
    2c1c:	f4ffd06f          	j	b6a <startTimer>
    2c20:	4689                	li	a3,2
    2c22:	12d79363          	bne	a5,a3,2d48 <protocolRecvParser+0x352>
    2c26:	00654a03          	lbu	s4,6(a0) # c006 <_data_lma+0x2c02>
    2c2a:	14ea1a63          	bne	s4,a4,2d7e <protocolRecvParser+0x388>
    2c2e:	00754483          	lbu	s1,7(a0)
    2c32:	00854503          	lbu	a0,8(a0)
    2c36:	00b44903          	lbu	s2,11(s0)
    2c3a:	04e2                	slli	s1,s1,0x18
    2c3c:	0542                	slli	a0,a0,0x10
    2c3e:	8cc9                	or	s1,s1,a0
    2c40:	00a44503          	lbu	a0,10(s0)
    2c44:	0962                	slli	s2,s2,0x18
    2c46:	15e9                	addi	a1,a1,-6
    2c48:	8cc9                	or	s1,s1,a0
    2c4a:	00944503          	lbu	a0,9(s0)
    2c4e:	50018993          	addi	s3,gp,1280 # 20001828 <uis>
    2c52:	0522                	slli	a0,a0,0x8
    2c54:	8cc9                	or	s1,s1,a0
    2c56:	00c44503          	lbu	a0,12(s0)
    2c5a:	0542                	slli	a0,a0,0x10
    2c5c:	00a96933          	or	s2,s2,a0
    2c60:	00e44503          	lbu	a0,14(s0)
    2c64:	00a96933          	or	s2,s2,a0
    2c68:	00d44503          	lbu	a0,13(s0)
    2c6c:	0522                	slli	a0,a0,0x8
    2c6e:	00a96933          	or	s2,s2,a0
    2c72:	00240513          	addi	a0,s0,2
    2c76:	883ff0ef          	jal	ra,24f8 <GetCrc16>
    2c7a:	01240733          	add	a4,s0,s2
    2c7e:	01174783          	lbu	a5,17(a4)
    2c82:	01274703          	lbu	a4,18(a4)
    2c86:	00006597          	auipc	a1,0x6
    2c8a:	0e258593          	addi	a1,a1,226 # 8d68 <ztvm_crctab16+0x2e8>
    2c8e:	07a2                	slli	a5,a5,0x8
    2c90:	8fd9                	or	a5,a5,a4
    2c92:	0d89a703          	lw	a4,216(s3)
    2c96:	0ce4ef63          	bltu	s1,a4,2d74 <protocolRecvParser+0x37e>
    2c9a:	00006597          	auipc	a1,0x6
    2c9e:	19658593          	addi	a1,a1,406 # 8e30 <ztvm_crctab16+0x3b0>
    2ca2:	0cf51963          	bne	a0,a5,2d74 <protocolRecvParser+0x37e>
    2ca6:	00006597          	auipc	a1,0x6
    2caa:	0de58593          	addi	a1,a1,222 # 8d84 <ztvm_crctab16+0x304>
    2cae:	4525                	li	a0,9
    2cb0:	8f9ff0ef          	jal	ra,25a8 <LogMessage>
    2cb4:	01091613          	slli	a2,s2,0x10
    2cb8:	6531                	lui	a0,0xc
    2cba:	8241                	srli	a2,a2,0x10
    2cbc:	00f40593          	addi	a1,s0,15
    2cc0:	9526                	add	a0,a0,s1
    2cc2:	e31fd0ef          	jal	ra,af2 <flashWriteCode>
    2cc6:	09451a63          	bne	a0,s4,2d5a <protocolRecvParser+0x364>
    2cca:	01248533          	add	a0,s1,s2
    2cce:	5ca1ac23          	sw	a0,1496(gp) # 20001900 <uis+0xd8>
    2cd2:	0e3010ef          	jal	ra,45b4 <__floatunsidf>
    2cd6:	00006797          	auipc	a5,0x6
    2cda:	fca78793          	addi	a5,a5,-54 # 8ca0 <ztvm_crctab16+0x220>
    2cde:	4390                	lw	a2,0(a5)
    2ce0:	43d4                	lw	a3,4(a5)
    2ce2:	422010ef          	jal	ra,4104 <__muldf3>
    2ce6:	842a                	mv	s0,a0
    2ce8:	0d49a503          	lw	a0,212(s3)
    2cec:	84ae                	mv	s1,a1
    2cee:	0c7010ef          	jal	ra,45b4 <__floatunsidf>
    2cf2:	862a                	mv	a2,a0
    2cf4:	86ae                	mv	a3,a1
    2cf6:	8522                	mv	a0,s0
    2cf8:	85a6                	mv	a1,s1
    2cfa:	65b000ef          	jal	ra,3b54 <__divdf3>
    2cfe:	862a                	mv	a2,a0
    2d00:	86ae                	mv	a3,a1
    2d02:	4525                	li	a0,9
    2d04:	00006597          	auipc	a1,0x6
    2d08:	0a058593          	addi	a1,a1,160 # 8da4 <ztvm_crctab16+0x324>
    2d0c:	9c9ff0ef          	jal	ra,26d4 <LogPrintf>
    2d10:	0d89a703          	lw	a4,216(s3)
    2d14:	0d49a783          	lw	a5,212(s3)
    2d18:	00f71963          	bne	a4,a5,2d2a <protocolRecvParser+0x334>
    2d1c:	4785                	li	a5,1
    2d1e:	5cf18e23          	sb	a5,1500(gp) # 20001904 <uis+0xdc>
    2d22:	4795                	li	a5,5
    2d24:	4ef1aa23          	sw	a5,1268(gp) # 2000181c <netconnect>
    2d28:	a831                	j	2d44 <protocolRecvParser+0x34e>
    2d2a:	04e7f863          	bgeu	a5,a4,2d7a <protocolRecvParser+0x384>
    2d2e:	00006597          	auipc	a1,0x6
    2d32:	0a658593          	addi	a1,a1,166 # 8dd4 <ztvm_crctab16+0x354>
    2d36:	4525                	li	a0,9
    2d38:	871ff0ef          	jal	ra,25a8 <LogMessage>
    2d3c:	5c01ac23          	sw	zero,1496(gp) # 20001900 <uis+0xd8>
    2d40:	4e01aa23          	sw	zero,1268(gp) # 2000181c <netconnect>
    2d44:	4e019d23          	sh	zero,1274(gp) # 20001822 <netconnect+0x6>
    2d48:	40f2                	lw	ra,28(sp)
    2d4a:	4462                	lw	s0,24(sp)
    2d4c:	44d2                	lw	s1,20(sp)
    2d4e:	4942                	lw	s2,16(sp)
    2d50:	49b2                	lw	s3,12(sp)
    2d52:	4a22                	lw	s4,8(sp)
    2d54:	4a92                	lw	s5,4(sp)
    2d56:	6105                	addi	sp,sp,32
    2d58:	8082                	ret
    2d5a:	0d89a783          	lw	a5,216(s3)
    2d5e:	6631                	lui	a2,0xc
    2d60:	00006597          	auipc	a1,0x6
    2d64:	0b058593          	addi	a1,a1,176 # 8e10 <ztvm_crctab16+0x390>
    2d68:	963e                	add	a2,a2,a5
    2d6a:	4525                	li	a0,9
    2d6c:	969ff0ef          	jal	ra,26d4 <LogPrintf>
    2d70:	4799                	li	a5,6
    2d72:	bf4d                	j	2d24 <protocolRecvParser+0x32e>
    2d74:	4525                	li	a0,9
    2d76:	833ff0ef          	jal	ra,25a8 <LogMessage>
    2d7a:	478d                	li	a5,3
    2d7c:	b765                	j	2d24 <protocolRecvParser+0x32e>
    2d7e:	00006597          	auipc	a1,0x6
    2d82:	0ca58593          	addi	a1,a1,202 # 8e48 <ztvm_crctab16+0x3c8>
    2d86:	b5a9                	j	2bd0 <protocolRecvParser+0x1da>
    2d88:	00006597          	auipc	a1,0x6
    2d8c:	0c858593          	addi	a1,a1,200 # 8e50 <ztvm_crctab16+0x3d0>
    2d90:	b969                	j	2a2a <protocolRecvParser+0x34>
    2d92:	8082                	ret

00002d94 <upgradeServerRecv>:
    2d94:	c63ff06f          	j	29f6 <protocolRecvParser>

00002d98 <protocolSend>:
    2d98:	b6010113          	addi	sp,sp,-1184
    2d9c:	48112e23          	sw	ra,1180(sp)
    2da0:	48812c23          	sw	s0,1176(sp)
    2da4:	48912a23          	sw	s1,1172(sp)
    2da8:	49212823          	sw	s2,1168(sp)
    2dac:	49312623          	sw	s3,1164(sp)
    2db0:	cd31                	beqz	a0,2e0c <protocolSend+0x74>
    2db2:	4785                	li	a5,1
    2db4:	14f50263          	beq	a0,a5,2ef8 <protocolSend+0x160>
    2db8:	0442                	slli	s0,s0,0x10
    2dba:	8041                	srli	s0,s0,0x10
    2dbc:	8622                	mv	a2,s0
    2dbe:	858a                	mv	a1,sp
    2dc0:	4501                	li	a0,0
    2dc2:	e23fe0ef          	jal	ra,1be4 <socketSendData>
    2dc6:	30000613          	li	a2,768
    2dca:	4581                	li	a1,0
    2dcc:	0308                	addi	a0,sp,384
    2dce:	c41fd0ef          	jal	ra,a0e <memset>
    2dd2:	8622                	mv	a2,s0
    2dd4:	030c                	addi	a1,sp,384
    2dd6:	850a                	mv	a0,sp
    2dd8:	a83ff0ef          	jal	ra,285a <byteToHexString>
    2ddc:	00006597          	auipc	a1,0x6
    2de0:	09058593          	addi	a1,a1,144 # 8e6c <ztvm_crctab16+0x3ec>
    2de4:	4525                	li	a0,9
    2de6:	fc2ff0ef          	jal	ra,25a8 <LogMessage>
    2dea:	030c                	addi	a1,sp,384
    2dec:	4525                	li	a0,9
    2dee:	fbaff0ef          	jal	ra,25a8 <LogMessage>
    2df2:	49c12083          	lw	ra,1180(sp)
    2df6:	49812403          	lw	s0,1176(sp)
    2dfa:	49412483          	lw	s1,1172(sp)
    2dfe:	49012903          	lw	s2,1168(sp)
    2e02:	48c12983          	lw	s3,1164(sp)
    2e06:	4a010113          	addi	sp,sp,1184
    2e0a:	8082                	ret
    2e0c:	4f81d983          	lhu	s3,1272(gp) # 20001820 <netconnect+0x4>
    2e10:	00198793          	addi	a5,s3,1
    2e14:	4ef19c23          	sh	a5,1272(gp) # 20001820 <netconnect+0x4>
    2e18:	010087b7          	lui	a5,0x1008
    2e1c:	87878793          	addi	a5,a5,-1928 # 1007878 <_data_lma+0xffe474>
    2e20:	67818513          	addi	a0,gp,1656 # 200019a0 <sysparam+0x98>
    2e24:	c03e                	sw	a5,0(sp)
    2e26:	5b6020ef          	jal	ra,53dc <strlen>
    2e2a:	547d                	li	s0,-1
    2e2c:	d551                	beqz	a0,2db8 <protocolSend+0x20>
    2e2e:	00157713          	andi	a4,a0,1
    2e32:	40155893          	srai	a7,a0,0x1
    2e36:	5e018793          	addi	a5,gp,1504 # 20001908 <sysparam>
    2e3a:	cf19                	beqz	a4,2e58 <protocolSend+0xc0>
    2e3c:	86be                	mv	a3,a5
    2e3e:	858a                	mv	a1,sp
    2e40:	4601                	li	a2,0
    2e42:	0689                	addi	a3,a3,2
    2e44:	0585                	addi	a1,a1,1
    2e46:	09164a63          	blt	a2,a7,2eda <protocolSend+0x142>
    2e4a:	0987c783          	lbu	a5,152(a5)
    2e4e:	fd078793          	addi	a5,a5,-48
    2e52:	00f10223          	sb	a5,4(sp)
    2e56:	a039                	j	2e64 <protocolSend+0xcc>
    2e58:	860a                	mv	a2,sp
    2e5a:	4681                	li	a3,0
    2e5c:	0789                	addi	a5,a5,2
    2e5e:	0605                	addi	a2,a2,1
    2e60:	0516cf63          	blt	a3,a7,2ebe <protocolSend+0x126>
    2e64:	00150413          	addi	s0,a0,1 # c001 <_data_lma+0x2bfd>
    2e68:	8405                	srai	s0,s0,0x1
    2e6a:	00440593          	addi	a1,s0,4
    2e6e:	48010793          	addi	a5,sp,1152
    2e72:	97ae                	add	a5,a5,a1
    2e74:	4089d713          	srai	a4,s3,0x8
    2e78:	b8e78023          	sb	a4,-1152(a5)
    2e7c:	48010793          	addi	a5,sp,1152
    2e80:	008784b3          	add	s1,a5,s0
    2e84:	b93482a3          	sb	s3,-1147(s1)
    2e88:	00540793          	addi	a5,s0,5
    2e8c:	00210513          	addi	a0,sp,2
    2e90:	00f10123          	sb	a5,2(sp)
    2e94:	e64ff0ef          	jal	ra,24f8 <GetCrc16>
    2e98:	00640913          	addi	s2,s0,6
    2e9c:	48010793          	addi	a5,sp,1152
    2ea0:	993e                	add	s2,s2,a5
    2ea2:	00855793          	srli	a5,a0,0x8
    2ea6:	b8f90023          	sb	a5,-1152(s2)
    2eaa:	47b5                	li	a5,13
    2eac:	b8f48423          	sb	a5,-1144(s1)
    2eb0:	47a9                	li	a5,10
    2eb2:	b8a483a3          	sb	a0,-1145(s1)
    2eb6:	0429                	addi	s0,s0,10
    2eb8:	b8f484a3          	sb	a5,-1143(s1)
    2ebc:	bdf5                	j	2db8 <protocolSend+0x20>
    2ebe:	09678703          	lb	a4,150(a5)
    2ec2:	0977c583          	lbu	a1,151(a5)
    2ec6:	0685                	addi	a3,a3,1
    2ec8:	fd070713          	addi	a4,a4,-48
    2ecc:	0712                	slli	a4,a4,0x4
    2ece:	fd058593          	addi	a1,a1,-48
    2ed2:	8f4d                	or	a4,a4,a1
    2ed4:	00e601a3          	sb	a4,3(a2) # c003 <_data_lma+0x2bff>
    2ed8:	b751                	j	2e5c <protocolSend+0xc4>
    2eda:	09768703          	lb	a4,151(a3)
    2ede:	0986c803          	lbu	a6,152(a3)
    2ee2:	0605                	addi	a2,a2,1
    2ee4:	fd070713          	addi	a4,a4,-48
    2ee8:	0712                	slli	a4,a4,0x4
    2eea:	fd080813          	addi	a6,a6,-48
    2eee:	01076733          	or	a4,a4,a6
    2ef2:	00e58223          	sb	a4,4(a1)
    2ef6:	b7b1                	j	2e42 <protocolSend+0xaa>
    2ef8:	4f81d903          	lhu	s2,1272(gp) # 20001820 <netconnect+0x4>
    2efc:	00190793          	addi	a5,s2,1
    2f00:	4ef19c23          	sh	a5,1272(gp) # 20001820 <netconnect+0x4>
    2f04:	6721                	lui	a4,0x8
    2f06:	0005c783          	lbu	a5,0(a1)
    2f0a:	97970713          	addi	a4,a4,-1671 # 7979 <__ledf2+0x9f>
    2f0e:	c03a                	sw	a4,0(sp)
    2f10:	574d                	li	a4,-13
    2f12:	00e10223          	sb	a4,4(sp)
    2f16:	00f102a3          	sb	a5,5(sp)
    2f1a:	06a79463          	bne	a5,a0,2f82 <protocolSend+0x1ea>
    2f1e:	67818513          	addi	a0,gp,1656 # 200019a0 <sysparam+0x98>
    2f22:	4ba020ef          	jal	ra,53dc <strlen>
    2f26:	00a10323          	sb	a0,6(sp)
    2f2a:	67818513          	addi	a0,gp,1656 # 200019a0 <sysparam+0x98>
    2f2e:	4ae020ef          	jal	ra,53dc <strlen>
    2f32:	862a                	mv	a2,a0
    2f34:	67818593          	addi	a1,gp,1656 # 200019a0 <sysparam+0x98>
    2f38:	00710513          	addi	a0,sp,7
    2f3c:	778010ef          	jal	ra,46b4 <memcpy>
    2f40:	67818513          	addi	a0,gp,1656 # 200019a0 <sysparam+0x98>
    2f44:	498020ef          	jal	ra,53dc <strlen>
    2f48:	84aa                	mv	s1,a0
    2f4a:	50018513          	addi	a0,gp,1280 # 20001828 <uis>
    2f4e:	48e020ef          	jal	ra,53dc <strlen>
    2f52:	48010793          	addi	a5,sp,1152
    2f56:	00848413          	addi	s0,s1,8
    2f5a:	94be                	add	s1,s1,a5
    2f5c:	b8a483a3          	sb	a0,-1145(s1)
    2f60:	50018513          	addi	a0,gp,1280 # 20001828 <uis>
    2f64:	478020ef          	jal	ra,53dc <strlen>
    2f68:	862a                	mv	a2,a0
    2f6a:	50018593          	addi	a1,gp,1280 # 20001828 <uis>
    2f6e:	00810533          	add	a0,sp,s0
    2f72:	742010ef          	jal	ra,46b4 <memcpy>
    2f76:	50018513          	addi	a0,gp,1280 # 20001828 <uis>
    2f7a:	462020ef          	jal	ra,53dc <strlen>
    2f7e:	942a                	add	s0,s0,a0
    2f80:	a051                	j	3004 <protocolSend+0x26c>
    2f82:	4709                	li	a4,2
    2f84:	0ce79663          	bne	a5,a4,3050 <protocolSend+0x2b8>
    2f88:	50018793          	addi	a5,gp,1280 # 20001828 <uis>
    2f8c:	0c87d703          	lhu	a4,200(a5)
    2f90:	00871693          	slli	a3,a4,0x8
    2f94:	8321                	srli	a4,a4,0x8
    2f96:	8ed9                	or	a3,a3,a4
    2f98:	0c87a703          	lw	a4,200(a5)
    2f9c:	00d11423          	sh	a3,8(sp)
    2fa0:	01875613          	srli	a2,a4,0x18
    2fa4:	8341                	srli	a4,a4,0x10
    2fa6:	00e103a3          	sb	a4,7(sp)
    2faa:	0d87d703          	lhu	a4,216(a5)
    2fae:	00c10323          	sb	a2,6(sp)
    2fb2:	00871693          	slli	a3,a4,0x8
    2fb6:	8321                	srli	a4,a4,0x8
    2fb8:	8f55                	or	a4,a4,a3
    2fba:	0d87a683          	lw	a3,216(a5)
    2fbe:	00e11623          	sh	a4,12(sp)
    2fc2:	0d47a703          	lw	a4,212(a5)
    2fc6:	0186d613          	srli	a2,a3,0x18
    2fca:	0d07a783          	lw	a5,208(a5)
    2fce:	00c10523          	sb	a2,10(sp)
    2fd2:	0106d613          	srli	a2,a3,0x10
    2fd6:	00c105a3          	sb	a2,11(sp)
    2fda:	8f15                	sub	a4,a4,a3
    2fdc:	00f77363          	bgeu	a4,a5,2fe2 <protocolSend+0x24a>
    2fe0:	87ba                	mv	a5,a4
    2fe2:	0187d713          	srli	a4,a5,0x18
    2fe6:	00e10723          	sb	a4,14(sp)
    2fea:	0107d713          	srli	a4,a5,0x10
    2fee:	00e107a3          	sb	a4,15(sp)
    2ff2:	00879713          	slli	a4,a5,0x8
    2ff6:	07c2                	slli	a5,a5,0x10
    2ff8:	83c1                	srli	a5,a5,0x10
    2ffa:	83a1                	srli	a5,a5,0x8
    2ffc:	8fd9                	or	a5,a5,a4
    2ffe:	00f11823          	sh	a5,16(sp)
    3002:	4449                	li	s0,18
    3004:	48010793          	addi	a5,sp,1152
    3008:	008784b3          	add	s1,a5,s0
    300c:	40895793          	srai	a5,s2,0x8
    3010:	b8f48023          	sb	a5,-1152(s1)
    3014:	b92480a3          	sb	s2,-1151(s1)
    3018:	85a2                	mv	a1,s0
    301a:	00210513          	addi	a0,sp,2
    301e:	008101a3          	sb	s0,3(sp)
    3022:	00010123          	sb	zero,2(sp)
    3026:	cd2ff0ef          	jal	ra,24f8 <GetCrc16>
    302a:	00240993          	addi	s3,s0,2
    302e:	48010793          	addi	a5,sp,1152
    3032:	99be                	add	s3,s3,a5
    3034:	00855793          	srli	a5,a0,0x8
    3038:	b8f98023          	sb	a5,-1152(s3)
    303c:	47b5                	li	a5,13
    303e:	b8f48223          	sb	a5,-1148(s1)
    3042:	47a9                	li	a5,10
    3044:	b8a481a3          	sb	a0,-1149(s1)
    3048:	0419                	addi	s0,s0,6
    304a:	b8f482a3          	sb	a5,-1147(s1)
    304e:	b3ad                	j	2db8 <protocolSend+0x20>
    3050:	470d                	li	a4,3
    3052:	4401                	li	s0,0
    3054:	d6e792e3          	bne	a5,a4,2db8 <protocolSend+0x20>
    3058:	50018493          	addi	s1,gp,1280 # 20001828 <uis>
    305c:	0dc4c783          	lbu	a5,220(s1)
    3060:	67818513          	addi	a0,gp,1656 # 200019a0 <sysparam+0x98>
    3064:	00f10323          	sb	a5,6(sp)
    3068:	374020ef          	jal	ra,53dc <strlen>
    306c:	00a103a3          	sb	a0,7(sp)
    3070:	67818513          	addi	a0,gp,1656 # 200019a0 <sysparam+0x98>
    3074:	368020ef          	jal	ra,53dc <strlen>
    3078:	862a                	mv	a2,a0
    307a:	67818593          	addi	a1,gp,1656 # 200019a0 <sysparam+0x98>
    307e:	0028                	addi	a0,sp,8
    3080:	634010ef          	jal	ra,46b4 <memcpy>
    3084:	67818513          	addi	a0,gp,1656 # 200019a0 <sysparam+0x98>
    3088:	354020ef          	jal	ra,53dc <strlen>
    308c:	0c84a783          	lw	a5,200(s1)
    3090:	48010713          	addi	a4,sp,1152
    3094:	00a704b3          	add	s1,a4,a0
    3098:	0187d713          	srli	a4,a5,0x18
    309c:	b8e48423          	sb	a4,-1144(s1)
    30a0:	0107d713          	srli	a4,a5,0x10
    30a4:	b8e484a3          	sb	a4,-1143(s1)
    30a8:	0087d713          	srli	a4,a5,0x8
    30ac:	b8e48523          	sb	a4,-1142(s1)
    30b0:	b8f485a3          	sb	a5,-1141(s1)
    30b4:	842a                	mv	s0,a0
    30b6:	53218513          	addi	a0,gp,1330 # 2000185a <uis+0x32>
    30ba:	322020ef          	jal	ra,53dc <strlen>
    30be:	b8a48623          	sb	a0,-1140(s1)
    30c2:	53218513          	addi	a0,gp,1330 # 2000185a <uis+0x32>
    30c6:	316020ef          	jal	ra,53dc <strlen>
    30ca:	0435                	addi	s0,s0,13
    30cc:	862a                	mv	a2,a0
    30ce:	53218593          	addi	a1,gp,1330 # 2000185a <uis+0x32>
    30d2:	00810533          	add	a0,sp,s0
    30d6:	5de010ef          	jal	ra,46b4 <memcpy>
    30da:	53218513          	addi	a0,gp,1330 # 2000185a <uis+0x32>
    30de:	bd71                	j	2f7a <protocolSend+0x1e2>

000030e0 <upgradeReconnect>:
    30e0:	4501                	li	a0,0
    30e2:	a5eff06f          	j	2340 <socketDel>

000030e6 <moduleRspSuccess>:
    30e6:	1141                	addi	sp,sp,-16
    30e8:	c422                	sw	s0,8(sp)
    30ea:	c606                	sw	ra,12(sp)
    30ec:	1fffe797          	auipc	a5,0x1fffe
    30f0:	a3d78793          	addi	a5,a5,-1475 # 20000b29 <timeOutId>
    30f4:	00078503          	lb	a0,0(a5)
    30f8:	547d                	li	s0,-1
    30fa:	00850a63          	beq	a0,s0,310e <moduleRspSuccess+0x28>
    30fe:	0ff57513          	andi	a0,a0,255
    3102:	b6ffd0ef          	jal	ra,c70 <stopTimer>
    3106:	1fffe797          	auipc	a5,0x1fffe
    310a:	a28781a3          	sb	s0,-1501(a5) # 20000b29 <timeOutId>
    310e:	40b2                	lw	ra,12(sp)
    3110:	4422                	lw	s0,8(sp)
    3112:	0141                	addi	sp,sp,16
    3114:	8082                	ret

00003116 <upgradeRunTask>:
    3116:	1101                	addi	sp,sp,-32
    3118:	ce06                	sw	ra,28(sp)
    311a:	cc22                	sw	s0,24(sp)
    311c:	ca26                	sw	s1,20(sp)
    311e:	b1bfe0ef          	jal	ra,1c38 <isModuleRunNormal>
    3122:	cd1d                	beqz	a0,3160 <upgradeRunTask+0x4a>
    3124:	4501                	li	a0,0
    3126:	a56ff0ef          	jal	ra,237c <socketGetUsedFlag>
    312a:	4485                	li	s1,1
    312c:	842a                	mv	s0,a0
    312e:	02950e63          	beq	a0,s1,316a <upgradeRunTask+0x54>
    3132:	00000697          	auipc	a3,0x0
    3136:	c6268693          	addi	a3,a3,-926 # 2d94 <upgradeServerRecv>
    313a:	6f01d603          	lhu	a2,1776(gp) # 20001a18 <sysparam+0x110>
    313e:	68c18593          	addi	a1,gp,1676 # 200019b4 <sysparam+0xac>
    3142:	4501                	li	a0,0
    3144:	4e01aa23          	sw	zero,1268(gp) # 2000181c <netconnect>
    3148:	4e019d23          	sh	zero,1274(gp) # 20001822 <netconnect+0x6>
    314c:	986ff0ef          	jal	ra,22d2 <socketAdd>
    3150:	00950863          	beq	a0,s1,3160 <upgradeRunTask+0x4a>
    3154:	5e0180a3          	sb	zero,1505(gp) # 20001909 <sysparam+0x1>
    3158:	aedfe0ef          	jal	ra,1c44 <paramSaveAll>
    315c:	95aff0ef          	jal	ra,22b6 <portSysReset>
    3160:	40f2                	lw	ra,28(sp)
    3162:	4462                	lw	s0,24(sp)
    3164:	44d2                	lw	s1,20(sp)
    3166:	6105                	addi	sp,sp,32
    3168:	8082                	ret
    316a:	4501                	li	a0,0
    316c:	a20ff0ef          	jal	ra,238c <socketGetConnStatus>
    3170:	00850763          	beq	a0,s0,317e <upgradeRunTask+0x68>
    3174:	4e01aa23          	sw	zero,1268(gp) # 2000181c <netconnect>
    3178:	4e019d23          	sh	zero,1274(gp) # 20001822 <netconnect+0x6>
    317c:	b7d5                	j	3160 <upgradeRunTask+0x4a>
    317e:	4f418413          	addi	s0,gp,1268 # 2000181c <netconnect>
    3182:	401c                	lw	a5,0(s0)
    3184:	471d                	li	a4,7
    3186:	08f76863          	bltu	a4,a5,3216 <upgradeRunTask+0x100>
    318a:	00006717          	auipc	a4,0x6
    318e:	af670713          	addi	a4,a4,-1290 # 8c80 <ztvm_crctab16+0x200>
    3192:	078a                	slli	a5,a5,0x2
    3194:	97ba                	add	a5,a5,a4
    3196:	439c                	lw	a5,0(a5)
    3198:	97ba                	add	a5,a5,a4
    319a:	8782                	jr	a5
    319c:	4581                	li	a1,0
    319e:	4501                	li	a0,0
    31a0:	bf9ff0ef          	jal	ra,2d98 <protocolSend>
    31a4:	819ff0ef          	jal	ra,29bc <timeOutCheck>
    31a8:	4785                	li	a5,1
    31aa:	4ef1aa23          	sw	a5,1268(gp) # 2000181c <netconnect>
    31ae:	4e019d23          	sh	zero,1274(gp) # 20001822 <netconnect+0x6>
    31b2:	a095                	j	3216 <upgradeRunTask+0x100>
    31b4:	4fa1d703          	lhu	a4,1274(gp) # 20001822 <netconnect+0x6>
    31b8:	47f9                	li	a5,30
    31ba:	04e7fe63          	bgeu	a5,a4,3216 <upgradeRunTask+0x100>
    31be:	00844783          	lbu	a5,8(s0)
    31c2:	4e01aa23          	sw	zero,1268(gp) # 2000181c <netconnect>
    31c6:	4e019d23          	sh	zero,1274(gp) # 20001822 <netconnect+0x6>
    31ca:	0785                	addi	a5,a5,1
    31cc:	0ff7f793          	andi	a5,a5,255
    31d0:	4ef18e23          	sb	a5,1276(gp) # 20001824 <netconnect+0x8>
    31d4:	4709                	li	a4,2
    31d6:	04f77063          	bgeu	a4,a5,3216 <upgradeRunTask+0x100>
    31da:	4e018e23          	sb	zero,1276(gp) # 20001824 <netconnect+0x8>
    31de:	3709                	jal	30e0 <upgradeReconnect>
    31e0:	a81d                	j	3216 <upgradeRunTask+0x100>
    31e2:	4fa1d783          	lhu	a5,1274(gp) # 20001822 <netconnect+0x6>
    31e6:	4779                	li	a4,30
    31e8:	02e7f7b3          	remu	a5,a5,a4
    31ec:	e78d                	bnez	a5,3216 <upgradeRunTask+0x100>
    31ee:	4785                	li	a5,1
    31f0:	00f10593          	addi	a1,sp,15
    31f4:	4505                	li	a0,1
    31f6:	00f107a3          	sb	a5,15(sp)
    31fa:	b9fff0ef          	jal	ra,2d98 <protocolSend>
    31fe:	fbeff0ef          	jal	ra,29bc <timeOutCheck>
    3202:	00944783          	lbu	a5,9(s0)
    3206:	4709                	li	a4,2
    3208:	0785                	addi	a5,a5,1
    320a:	0ff7f793          	andi	a5,a5,255
    320e:	00f76a63          	bltu	a4,a5,3222 <upgradeRunTask+0x10c>
    3212:	4ef18ea3          	sb	a5,1277(gp) # 20001825 <netconnect+0x9>
    3216:	00645783          	lhu	a5,6(s0)
    321a:	0785                	addi	a5,a5,1
    321c:	4ef19d23          	sh	a5,1274(gp) # 20001822 <netconnect+0x6>
    3220:	b781                	j	3160 <upgradeRunTask+0x4a>
    3222:	4e018ea3          	sb	zero,1277(gp) # 20001825 <netconnect+0x9>
    3226:	bf65                	j	31de <upgradeRunTask+0xc8>
    3228:	4789                	li	a5,2
    322a:	00f10593          	addi	a1,sp,15
    322e:	4505                	li	a0,1
    3230:	00f107a3          	sb	a5,15(sp)
    3234:	b65ff0ef          	jal	ra,2d98 <protocolSend>
    3238:	f84ff0ef          	jal	ra,29bc <timeOutCheck>
    323c:	4791                	li	a5,4
    323e:	b7b5                	j	31aa <upgradeRunTask+0x94>
    3240:	00006597          	auipc	a1,0x6
    3244:	c7858593          	addi	a1,a1,-904 # 8eb8 <ztvm_crctab16+0x438>
    3248:	4525                	li	a0,9
    324a:	b5eff0ef          	jal	ra,25a8 <LogMessage>
    324e:	4fa1d703          	lhu	a4,1274(gp) # 20001822 <netconnect+0x6>
    3252:	02d00793          	li	a5,45
    3256:	fce7f0e3          	bgeu	a5,a4,3216 <upgradeRunTask+0x100>
    325a:	478d                	li	a5,3
    325c:	b7b9                	j	31aa <upgradeRunTask+0x94>
    325e:	478d                	li	a5,3
    3260:	00f10593          	addi	a1,sp,15
    3264:	4505                	li	a0,1
    3266:	00f107a3          	sb	a5,15(sp)
    326a:	b2fff0ef          	jal	ra,2d98 <protocolSend>
    326e:	00006597          	auipc	a1,0x6
    3272:	c6658593          	addi	a1,a1,-922 # 8ed4 <ztvm_crctab16+0x454>
    3276:	4525                	li	a0,9
    3278:	b30ff0ef          	jal	ra,25a8 <LogMessage>
    327c:	479d                	li	a5,7
    327e:	4501                	li	a0,0
    3280:	4ef1aa23          	sw	a5,1268(gp) # 2000181c <netconnect>
    3284:	4e019d23          	sh	zero,1274(gp) # 20001822 <netconnect+0x6>
    3288:	aa5fe0ef          	jal	ra,1d2c <paramSaveUpdateStatus>
    328c:	ce1fd0ef          	jal	ra,f6c <modulePowerOff>
    3290:	4605                	li	a2,1
    3292:	00000597          	auipc	a1,0x0
    3296:	06458593          	addi	a1,a1,100 # 32f6 <startJumpToApp>
    329a:	3e800513          	li	a0,1000
    329e:	8cdfd0ef          	jal	ra,b6a <startTimer>
    32a2:	bf95                	j	3216 <upgradeRunTask+0x100>
    32a4:	00006597          	auipc	a1,0x6
    32a8:	c4c58593          	addi	a1,a1,-948 # 8ef0 <ztvm_crctab16+0x470>
    32ac:	4525                	li	a0,9
    32ae:	afaff0ef          	jal	ra,25a8 <LogMessage>
    32b2:	50018793          	addi	a5,gp,1280 # 20001828 <uis>
    32b6:	0d87a703          	lw	a4,216(a5)
    32ba:	0d07a583          	lw	a1,208(a5)
    32be:	6531                	lui	a0,0xc
    32c0:	953a                	add	a0,a0,a4
    32c2:	ff4fd0ef          	jal	ra,ab6 <flashEarseByFileSize>
    32c6:	bf51                	j	325a <upgradeRunTask+0x144>
    32c8:	4fa1d703          	lhu	a4,1274(gp) # 20001822 <netconnect+0x6>
    32cc:	47a9                	li	a5,10
    32ce:	f4e7f4e3          	bgeu	a5,a4,3216 <upgradeRunTask+0x100>
    32d2:	4e01aa23          	sw	zero,1268(gp) # 2000181c <netconnect>
    32d6:	bde1                	j	31ae <upgradeRunTask+0x98>

000032d8 <JumpToApp>:
    32d8:	1141                	addi	sp,sp,-16
    32da:	c606                	sw	ra,12(sp)
    32dc:	e000e7b7          	lui	a5,0xe000e
    32e0:	6741                	lui	a4,0x10
    32e2:	18e7a023          	sw	a4,384(a5) # e000e180 <_eusrstack+0xc0006180>
    32e6:	0001                	nop
    32e8:	0001                	nop
    32ea:	67b1                	lui	a5,0xc
    32ec:	9782                	jalr	a5
    32ee:	40b2                	lw	ra,12(sp)
    32f0:	4501                	li	a0,0
    32f2:	0141                	addi	sp,sp,16
    32f4:	8082                	ret

000032f6 <startJumpToApp>:
    32f6:	1141                	addi	sp,sp,-16
    32f8:	1fffe617          	auipc	a2,0x1fffe
    32fc:	83064603          	lbu	a2,-2000(a2) # 20000b28 <tick.4414>
    3300:	00006597          	auipc	a1,0x6
    3304:	b7858593          	addi	a1,a1,-1160 # 8e78 <ztvm_crctab16+0x3f8>
    3308:	4525                	li	a0,9
    330a:	c606                	sw	ra,12(sp)
    330c:	bc8ff0ef          	jal	ra,26d4 <LogPrintf>
    3310:	1fffe797          	auipc	a5,0x1fffe
    3314:	8187c783          	lbu	a5,-2024(a5) # 20000b28 <tick.4414>
    3318:	17fd                	addi	a5,a5,-1
    331a:	0ff7f793          	andi	a5,a5,255
    331e:	1fffe717          	auipc	a4,0x1fffe
    3322:	80f70523          	sb	a5,-2038(a4) # 20000b28 <tick.4414>
    3326:	e385                	bnez	a5,3346 <startJumpToApp+0x50>
    3328:	6531                	lui	a0,0xc
    332a:	377d                	jal	32d8 <JumpToApp>
    332c:	ed09                	bnez	a0,3346 <startJumpToApp+0x50>
    332e:	4525                	li	a0,9
    3330:	00006597          	auipc	a1,0x6
    3334:	b6058593          	addi	a1,a1,-1184 # 8e90 <ztvm_crctab16+0x410>
    3338:	a70ff0ef          	jal	ra,25a8 <LogMessage>
    333c:	40b2                	lw	ra,12(sp)
    333e:	4505                	li	a0,1
    3340:	0141                	addi	sp,sp,16
    3342:	9ebfe06f          	j	1d2c <paramSaveUpdateStatus>
    3346:	40b2                	lw	ra,12(sp)
    3348:	0141                	addi	sp,sp,16
    334a:	8082                	ret

0000334c <upgradeInfoInit>:
    334c:	715d                	addi	sp,sp,-80
    334e:	c4a2                	sw	s0,72(sp)
    3350:	50018413          	addi	s0,gp,1280 # 20001828 <uis>
    3354:	0e000613          	li	a2,224
    3358:	4581                	li	a1,0
    335a:	8522                	mv	a0,s0
    335c:	c686                	sw	ra,76(sp)
    335e:	eb0fd0ef          	jal	ra,a0e <memset>
    3362:	0068                	addi	a0,sp,12
    3364:	9c1fe0ef          	jal	ra,1d24 <paramGetCodeVersion>
    3368:	006c                	addi	a1,sp,12
    336a:	8522                	mv	a0,s0
    336c:	05e020ef          	jal	ra,53ca <strcpy>
    3370:	40000793          	li	a5,1024
    3374:	8622                	mv	a2,s0
    3376:	00006597          	auipc	a1,0x6
    337a:	b2e58593          	addi	a1,a1,-1234 # 8ea4 <ztvm_crctab16+0x424>
    337e:	4525                	li	a0,9
    3380:	0cf42823          	sw	a5,208(s0)
    3384:	b50ff0ef          	jal	ra,26d4 <LogPrintf>
    3388:	40b6                	lw	ra,76(sp)
    338a:	4426                	lw	s0,72(sp)
    338c:	6161                	addi	sp,sp,80
    338e:	8082                	ret

00003390 <upgradeSocketErr>:
    3390:	4fe1c783          	lbu	a5,1278(gp) # 20001826 <netconnect+0xa>
    3394:	0785                	addi	a5,a5,1
    3396:	1141                	addi	sp,sp,-16
    3398:	00006597          	auipc	a1,0x6
    339c:	b7c58593          	addi	a1,a1,-1156 # 8f14 <ztvm_crctab16+0x494>
    33a0:	4525                	li	a0,9
    33a2:	4ef18f23          	sb	a5,1278(gp) # 20001826 <netconnect+0xa>
    33a6:	c606                	sw	ra,12(sp)
    33a8:	a00ff0ef          	jal	ra,25a8 <LogMessage>
    33ac:	4fe1c703          	lbu	a4,1278(gp) # 20001826 <netconnect+0xa>
    33b0:	4785                	li	a5,1
    33b2:	02e7f663          	bgeu	a5,a4,33de <upgradeSocketErr+0x4e>
    33b6:	50018793          	addi	a5,gp,1280 # 20001828 <uis>
    33ba:	0d87a783          	lw	a5,216(a5)
    33be:	e385                	bnez	a5,33de <upgradeSocketErr+0x4e>
    33c0:	00006597          	auipc	a1,0x6
    33c4:	b7058593          	addi	a1,a1,-1168 # 8f30 <ztvm_crctab16+0x4b0>
    33c8:	4525                	li	a0,9
    33ca:	9deff0ef          	jal	ra,25a8 <LogMessage>
    33ce:	5e0180a3          	sb	zero,1505(gp) # 20001909 <sysparam+0x1>
    33d2:	873fe0ef          	jal	ra,1c44 <paramSaveAll>
    33d6:	40b2                	lw	ra,12(sp)
    33d8:	0141                	addi	sp,sp,16
    33da:	eddfe06f          	j	22b6 <portSysReset>
    33de:	40b2                	lw	ra,12(sp)
    33e0:	0141                	addi	sp,sp,16
    33e2:	8082                	ret

000033e4 <upgradeSocketSuccess>:
    33e4:	4e018f23          	sb	zero,1278(gp) # 20001826 <netconnect+0xa>
    33e8:	8082                	ret

000033ea <RTC_GetTime>:
    33ea:	400018b7          	lui	a7,0x40001
    33ee:	03c8a803          	lw	a6,60(a7) # 4000103c <_eusrstack+0x1fff903c>
    33f2:	03a8d303          	lhu	t1,58(a7)
    33f6:	0388d883          	lhu	a7,56(a7)
    33fa:	1141                	addi	sp,sp,-16
    33fc:	0306                	slli	t1,t1,0x1
    33fe:	00f8d893          	srli	a7,a7,0xf
    3402:	084a                	slli	a6,a6,0x12
    3404:	01130eb3          	add	t4,t1,a7
    3408:	7e400893          	li	a7,2020
    340c:	c622                	sw	s0,12(sp)
    340e:	c426                	sw	s1,8(sp)
    3410:	c24a                	sw	s2,4(sp)
    3412:	01285813          	srli	a6,a6,0x12
    3416:	01151023          	sh	a7,0(a0) # c000 <_data_lma+0x2bfc>
    341a:	19000f93          	li	t6,400
    341e:	16d00293          	li	t0,365
    3422:	06400393          	li	t2,100
    3426:	16c00f13          	li	t5,364
    342a:	00055303          	lhu	t1,0(a0)
    342e:	03f378b3          	remu	a7,t1,t6
    3432:	10088063          	beqz	a7,3532 <RTC_GetTime+0x148>
    3436:	027378b3          	remu	a7,t1,t2
    343a:	10088163          	beqz	a7,353c <RTC_GetTime+0x152>
    343e:	00337893          	andi	a7,t1,3
    3442:	0018be13          	seqz	t3,a7
    3446:	16de0e13          	addi	t3,t3,365
    344a:	09c85063          	bge	a6,t3,34ca <RTC_GetTime+0xe0>
    344e:	00059023          	sh	zero,0(a1)
    3452:	4405                	li	s0,1
    3454:	4499                	li	s1,6
    3456:	4ff9                	li	t6,30
    3458:	42f5                	li	t0,29
    345a:	19000913          	li	s2,400
    345e:	06400393          	li	t2,100
    3462:	0005d883          	lhu	a7,0(a1)
    3466:	00188f13          	addi	t5,a7,1
    346a:	0a889463          	bne	a7,s0,3512 <RTC_GetTime+0x128>
    346e:	00055303          	lhu	t1,0(a0)
    3472:	03237e33          	remu	t3,t1,s2
    3476:	080e0c63          	beqz	t3,350e <RTC_GetTime+0x124>
    347a:	027378b3          	remu	a7,t1,t2
    347e:	00088663          	beqz	a7,348a <RTC_GetTime+0xa0>
    3482:	00337893          	andi	a7,t1,3
    3486:	08088463          	beqz	a7,350e <RTC_GetTime+0x124>
    348a:	48f1                	li	a7,28
    348c:	05185c63          	bge	a6,a7,34e4 <RTC_GetTime+0xfa>
    3490:	01e59023          	sh	t5,0(a1)
    3494:	0805                	addi	a6,a6,1
    3496:	01061023          	sh	a6,0(a2)
    349a:	6605                	lui	a2,0x1
    349c:	e1060613          	addi	a2,a2,-496 # e10 <main+0x22>
    34a0:	02ced5b3          	divu	a1,t4,a2
    34a4:	4432                	lw	s0,12(sp)
    34a6:	44a2                	lw	s1,8(sp)
    34a8:	4912                	lw	s2,4(sp)
    34aa:	02cef633          	remu	a2,t4,a2
    34ae:	00b69023          	sh	a1,0(a3)
    34b2:	03c00693          	li	a3,60
    34b6:	02d65633          	divu	a2,a2,a3
    34ba:	02def6b3          	remu	a3,t4,a3
    34be:	00c71023          	sh	a2,0(a4)
    34c2:	00d79023          	sh	a3,0(a5)
    34c6:	0141                	addi	sp,sp,16
    34c8:	8082                	ret
    34ca:	0018b893          	seqz	a7,a7
    34ce:	16d88893          	addi	a7,a7,365
    34d2:	41180833          	sub	a6,a6,a7
    34d6:	0842                	slli	a6,a6,0x10
    34d8:	0305                	addi	t1,t1,1
    34da:	01085813          	srli	a6,a6,0x10
    34de:	00651023          	sh	t1,0(a0)
    34e2:	b7a1                	j	342a <RTC_GetTime+0x40>
    34e4:	4885                	li	a7,1
    34e6:	000e0b63          	beqz	t3,34fc <RTC_GetTime+0x112>
    34ea:	02737e33          	remu	t3,t1,t2
    34ee:	4881                	li	a7,0
    34f0:	000e0663          	beqz	t3,34fc <RTC_GetTime+0x112>
    34f4:	00337893          	andi	a7,t1,3
    34f8:	0018b893          	seqz	a7,a7
    34fc:	08f1                	addi	a7,a7,28
    34fe:	41180833          	sub	a6,a6,a7
    3502:	0842                	slli	a6,a6,0x10
    3504:	01085813          	srli	a6,a6,0x10
    3508:	01e59023          	sh	t5,0(a1)
    350c:	bf99                	j	3462 <RTC_GetTime+0x78>
    350e:	48f5                	li	a7,29
    3510:	bfb5                	j	348c <RTC_GetTime+0xa2>
    3512:	0018f313          	andi	t1,a7,1
    3516:	0114f863          	bgeu	s1,a7,3526 <RTC_GetTime+0x13c>
    351a:	00031863          	bnez	t1,352a <RTC_GetTime+0x140>
    351e:	f702d9e3          	bge	t0,a6,3490 <RTC_GetTime+0xa6>
    3522:	48f9                	li	a7,30
    3524:	bfe9                	j	34fe <RTC_GetTime+0x114>
    3526:	fe031ce3          	bnez	t1,351e <RTC_GetTime+0x134>
    352a:	f70fd3e3          	bge	t6,a6,3490 <RTC_GetTime+0xa6>
    352e:	48fd                	li	a7,31
    3530:	b7f9                	j	34fe <RTC_GetTime+0x114>
    3532:	f102dee3          	bge	t0,a6,344e <RTC_GetTime+0x64>
    3536:	16e00893          	li	a7,366
    353a:	bf61                	j	34d2 <RTC_GetTime+0xe8>
    353c:	f10f59e3          	bge	t5,a6,344e <RTC_GetTime+0x64>
    3540:	16d00893          	li	a7,365
    3544:	b779                	j	34d2 <RTC_GetTime+0xe8>

00003546 <GPIOA_ModeCfg>:
    3546:	4791                	li	a5,4
    3548:	02b7ee63          	bltu	a5,a1,3584 <GPIOA_ModeCfg+0x3e>
    354c:	00006717          	auipc	a4,0x6
    3550:	9f470713          	addi	a4,a4,-1548 # 8f40 <ztvm_crctab16+0x4c0>
    3554:	058a                	slli	a1,a1,0x2
    3556:	95ba                	add	a1,a1,a4
    3558:	419c                	lw	a5,0(a1)
    355a:	97ba                	add	a5,a5,a4
    355c:	8782                	jr	a5
    355e:	400017b7          	lui	a5,0x40001
    3562:	0b47a703          	lw	a4,180(a5) # 400010b4 <_eusrstack+0x1fff90b4>
    3566:	fff54513          	not	a0,a0
    356a:	8f69                	and	a4,a4,a0
    356c:	0ae7aa23          	sw	a4,180(a5)
    3570:	0b07a703          	lw	a4,176(a5)
    3574:	8f69                	and	a4,a4,a0
    3576:	0ae7a823          	sw	a4,176(a5)
    357a:	0a07a703          	lw	a4,160(a5)
    357e:	8d79                	and	a0,a0,a4
    3580:	0aa7a023          	sw	a0,160(a5)
    3584:	8082                	ret
    3586:	400017b7          	lui	a5,0x40001
    358a:	0b47a683          	lw	a3,180(a5) # 400010b4 <_eusrstack+0x1fff90b4>
    358e:	fff54713          	not	a4,a0
    3592:	8ef9                	and	a3,a3,a4
    3594:	0ad7aa23          	sw	a3,180(a5)
    3598:	0b07a683          	lw	a3,176(a5)
    359c:	8d55                	or	a0,a0,a3
    359e:	0aa7a823          	sw	a0,176(a5)
    35a2:	0a07a683          	lw	a3,160(a5)
    35a6:	8f75                	and	a4,a4,a3
    35a8:	0ae7a023          	sw	a4,160(a5)
    35ac:	8082                	ret
    35ae:	400017b7          	lui	a5,0x40001
    35b2:	0b47a703          	lw	a4,180(a5) # 400010b4 <_eusrstack+0x1fff90b4>
    35b6:	8f49                	or	a4,a4,a0
    35b8:	0ae7aa23          	sw	a4,180(a5)
    35bc:	0b07a703          	lw	a4,176(a5)
    35c0:	fff54513          	not	a0,a0
    35c4:	bf45                	j	3574 <GPIOA_ModeCfg+0x2e>
    35c6:	400017b7          	lui	a5,0x40001
    35ca:	0b47a683          	lw	a3,180(a5) # 400010b4 <_eusrstack+0x1fff90b4>
    35ce:	fff54713          	not	a4,a0
    35d2:	8f75                	and	a4,a4,a3
    35d4:	0ae7aa23          	sw	a4,180(a5)
    35d8:	0a07a703          	lw	a4,160(a5)
    35dc:	8d59                	or	a0,a0,a4
    35de:	b74d                	j	3580 <GPIOA_ModeCfg+0x3a>
    35e0:	400017b7          	lui	a5,0x40001
    35e4:	0b47a703          	lw	a4,180(a5) # 400010b4 <_eusrstack+0x1fff90b4>
    35e8:	8f49                	or	a4,a4,a0
    35ea:	b7ed                	j	35d4 <GPIOA_ModeCfg+0x8e>

000035ec <GPIOB_ModeCfg>:
    35ec:	4791                	li	a5,4
    35ee:	02b7ee63          	bltu	a5,a1,362a <GPIOB_ModeCfg+0x3e>
    35f2:	00006717          	auipc	a4,0x6
    35f6:	96270713          	addi	a4,a4,-1694 # 8f54 <ztvm_crctab16+0x4d4>
    35fa:	058a                	slli	a1,a1,0x2
    35fc:	95ba                	add	a1,a1,a4
    35fe:	419c                	lw	a5,0(a1)
    3600:	97ba                	add	a5,a5,a4
    3602:	8782                	jr	a5
    3604:	400017b7          	lui	a5,0x40001
    3608:	0d47a703          	lw	a4,212(a5) # 400010d4 <_eusrstack+0x1fff90d4>
    360c:	fff54513          	not	a0,a0
    3610:	8f69                	and	a4,a4,a0
    3612:	0ce7aa23          	sw	a4,212(a5)
    3616:	0d07a703          	lw	a4,208(a5)
    361a:	8f69                	and	a4,a4,a0
    361c:	0ce7a823          	sw	a4,208(a5)
    3620:	0c07a703          	lw	a4,192(a5)
    3624:	8d79                	and	a0,a0,a4
    3626:	0ca7a023          	sw	a0,192(a5)
    362a:	8082                	ret
    362c:	400017b7          	lui	a5,0x40001
    3630:	0d47a683          	lw	a3,212(a5) # 400010d4 <_eusrstack+0x1fff90d4>
    3634:	fff54713          	not	a4,a0
    3638:	8ef9                	and	a3,a3,a4
    363a:	0cd7aa23          	sw	a3,212(a5)
    363e:	0d07a683          	lw	a3,208(a5)
    3642:	8d55                	or	a0,a0,a3
    3644:	0ca7a823          	sw	a0,208(a5)
    3648:	0c07a683          	lw	a3,192(a5)
    364c:	8f75                	and	a4,a4,a3
    364e:	0ce7a023          	sw	a4,192(a5)
    3652:	8082                	ret
    3654:	400017b7          	lui	a5,0x40001
    3658:	0d47a703          	lw	a4,212(a5) # 400010d4 <_eusrstack+0x1fff90d4>
    365c:	8f49                	or	a4,a4,a0
    365e:	0ce7aa23          	sw	a4,212(a5)
    3662:	0d07a703          	lw	a4,208(a5)
    3666:	fff54513          	not	a0,a0
    366a:	bf45                	j	361a <GPIOB_ModeCfg+0x2e>
    366c:	400017b7          	lui	a5,0x40001
    3670:	0d47a683          	lw	a3,212(a5) # 400010d4 <_eusrstack+0x1fff90d4>
    3674:	fff54713          	not	a4,a0
    3678:	8f75                	and	a4,a4,a3
    367a:	0ce7aa23          	sw	a4,212(a5)
    367e:	0c07a703          	lw	a4,192(a5)
    3682:	8d59                	or	a0,a0,a4
    3684:	b74d                	j	3626 <GPIOB_ModeCfg+0x3a>
    3686:	400017b7          	lui	a5,0x40001
    368a:	0d47a703          	lw	a4,212(a5) # 400010d4 <_eusrstack+0x1fff90d4>
    368e:	8f49                	or	a4,a4,a0
    3690:	b7ed                	j	367a <GPIOB_ModeCfg+0x8e>

00003692 <GPIOPinRemap>:
    3692:	400017b7          	lui	a5,0x40001
    3696:	0187d703          	lhu	a4,24(a5) # 40001018 <_eusrstack+0x1fff9018>
    369a:	c509                	beqz	a0,36a4 <GPIOPinRemap+0x12>
    369c:	8dd9                	or	a1,a1,a4
    369e:	00b79c23          	sh	a1,24(a5)
    36a2:	8082                	ret
    36a4:	fff5c593          	not	a1,a1
    36a8:	8df9                	and	a1,a1,a4
    36aa:	bfd5                	j	369e <GPIOPinRemap+0xc>

000036ac <GetSysClock>:
    36ac:	400017b7          	lui	a5,0x40001
    36b0:	0087d503          	lhu	a0,8(a5) # 40001008 <_eusrstack+0x1fff9008>
    36b4:	0542                	slli	a0,a0,0x10
    36b6:	8141                	srli	a0,a0,0x10
    36b8:	04057793          	andi	a5,a0,64
    36bc:	eb91                	bnez	a5,36d0 <GetSysClock+0x24>
    36be:	01f57793          	andi	a5,a0,31
    36c2:	01e85537          	lui	a0,0x1e85
    36c6:	80050513          	addi	a0,a0,-2048 # 1e84800 <_data_lma+0x1e7b3fc>
    36ca:	02f54533          	div	a0,a0,a5
    36ce:	8082                	ret
    36d0:	0c057793          	andi	a5,a0,192
    36d4:	04000713          	li	a4,64
    36d8:	00e79763          	bne	a5,a4,36e6 <GetSysClock+0x3a>
    36dc:	01f57793          	andi	a5,a0,31
    36e0:	1c9c4537          	lui	a0,0x1c9c4
    36e4:	b7cd                	j	36c6 <GetSysClock+0x1a>
    36e6:	6521                	lui	a0,0x8
    36e8:	d0050513          	addi	a0,a0,-768 # 7d00 <__subdf3+0x370>
    36ec:	8082                	ret

000036ee <TMR0_TimerInit>:
    36ee:	400027b7          	lui	a5,0x40002
    36f2:	c7c8                	sw	a0,12(a5)
    36f4:	4709                	li	a4,2
    36f6:	00e78023          	sb	a4,0(a5) # 40002000 <_eusrstack+0x1fffa000>
    36fa:	4711                	li	a4,4
    36fc:	00e78023          	sb	a4,0(a5)
    3700:	8082                	ret

00003702 <UART0_BaudRateCfg>:
    3702:	1141                	addi	sp,sp,-16
    3704:	c422                	sw	s0,8(sp)
    3706:	c606                	sw	ra,12(sp)
    3708:	842a                	mv	s0,a0
    370a:	374d                	jal	36ac <GetSysClock>
    370c:	4729                	li	a4,10
    370e:	02e507b3          	mul	a5,a0,a4
    3712:	40b2                	lw	ra,12(sp)
    3714:	838d                	srli	a5,a5,0x3
    3716:	0287d7b3          	divu	a5,a5,s0
    371a:	4422                	lw	s0,8(sp)
    371c:	0795                	addi	a5,a5,5
    371e:	02e7d7b3          	divu	a5,a5,a4
    3722:	40003737          	lui	a4,0x40003
    3726:	07c2                	slli	a5,a5,0x10
    3728:	83c1                	srli	a5,a5,0x10
    372a:	00f71623          	sh	a5,12(a4) # 4000300c <_eusrstack+0x1fffb00c>
    372e:	0141                	addi	sp,sp,16
    3730:	8082                	ret

00003732 <UART0_DefInit>:
    3732:	6571                	lui	a0,0x1c
    3734:	1141                	addi	sp,sp,-16
    3736:	20050513          	addi	a0,a0,512 # 1c200 <_data_lma+0x12dfc>
    373a:	c606                	sw	ra,12(sp)
    373c:	37d9                	jal	3702 <UART0_BaudRateCfg>
    373e:	400037b7          	lui	a5,0x40003
    3742:	f8700713          	li	a4,-121
    3746:	00e78123          	sb	a4,2(a5) # 40003002 <_eusrstack+0x1fffb002>
    374a:	470d                	li	a4,3
    374c:	00e781a3          	sb	a4,3(a5)
    3750:	04000713          	li	a4,64
    3754:	00e780a3          	sb	a4,1(a5)
    3758:	4705                	li	a4,1
    375a:	00e78723          	sb	a4,14(a5)
    375e:	40b2                	lw	ra,12(sp)
    3760:	0141                	addi	sp,sp,16
    3762:	8082                	ret

00003764 <UART0_ByteTrigCfg>:
    3764:	40003737          	lui	a4,0x40003
    3768:	00274783          	lbu	a5,2(a4) # 40003002 <_eusrstack+0x1fffb002>
    376c:	051a                	slli	a0,a0,0x6
    376e:	03f7f793          	andi	a5,a5,63
    3772:	8fc9                	or	a5,a5,a0
    3774:	0ff7f793          	andi	a5,a5,255
    3778:	00f70123          	sb	a5,2(a4)
    377c:	8082                	ret

0000377e <UART0_INTCfg>:
    377e:	400037b7          	lui	a5,0x40003
    3782:	0017c703          	lbu	a4,1(a5) # 40003001 <_eusrstack+0x1fffb001>
    3786:	c919                	beqz	a0,379c <UART0_INTCfg+0x1e>
    3788:	8dd9                	or	a1,a1,a4
    378a:	00b780a3          	sb	a1,1(a5)
    378e:	0007c703          	lbu	a4,0(a5)
    3792:	00876713          	ori	a4,a4,8
    3796:	00e78023          	sb	a4,0(a5)
    379a:	8082                	ret
    379c:	fff5c593          	not	a1,a1
    37a0:	8df9                	and	a1,a1,a4
    37a2:	00b780a3          	sb	a1,1(a5)
    37a6:	8082                	ret

000037a8 <UART0_Reset>:
    37a8:	400037b7          	lui	a5,0x40003
    37ac:	f8000713          	li	a4,-128
    37b0:	00e780a3          	sb	a4,1(a5) # 40003001 <_eusrstack+0x1fffb001>
    37b4:	8082                	ret

000037b6 <UART0_SendString>:
    37b6:	400037b7          	lui	a5,0x40003
    37ba:	4721                	li	a4,8
    37bc:	400036b7          	lui	a3,0x40003
    37c0:	e989                	bnez	a1,37d2 <UART0_SendString+0x1c>
    37c2:	40003737          	lui	a4,0x40003
    37c6:	00574783          	lbu	a5,5(a4) # 40003005 <_eusrstack+0x1fffb005>
    37ca:	0407f793          	andi	a5,a5,64
    37ce:	cf99                	beqz	a5,37ec <UART0_SendString+0x36>
    37d0:	8082                	ret
    37d2:	00b7c603          	lbu	a2,11(a5) # 4000300b <_eusrstack+0x1fffb00b>
    37d6:	fec705e3          	beq	a4,a2,37c0 <UART0_SendString+0xa>
    37da:	0505                	addi	a0,a0,1
    37dc:	fff54603          	lbu	a2,-1(a0)
    37e0:	15fd                	addi	a1,a1,-1
    37e2:	05c2                	slli	a1,a1,0x10
    37e4:	00c68423          	sb	a2,8(a3) # 40003008 <_eusrstack+0x1fffb008>
    37e8:	81c1                	srli	a1,a1,0x10
    37ea:	bfd9                	j	37c0 <UART0_SendString+0xa>
    37ec:	0001                	nop
    37ee:	bfe1                	j	37c6 <UART0_SendString+0x10>

000037f0 <UART0_RecvString>:
    37f0:	4781                	li	a5,0
    37f2:	400036b7          	lui	a3,0x40003
    37f6:	00a6c703          	lbu	a4,10(a3) # 4000300a <_eusrstack+0x1fffb00a>
    37fa:	01079613          	slli	a2,a5,0x10
    37fe:	8241                	srli	a2,a2,0x10
    3800:	0ff77713          	andi	a4,a4,255
    3804:	e319                	bnez	a4,380a <UART0_RecvString+0x1a>
    3806:	8532                	mv	a0,a2
    3808:	8082                	ret
    380a:	0086c603          	lbu	a2,8(a3)
    380e:	00f50733          	add	a4,a0,a5
    3812:	0785                	addi	a5,a5,1
    3814:	00c70023          	sb	a2,0(a4)
    3818:	bff9                	j	37f6 <UART0_RecvString+0x6>

0000381a <UART1_BaudRateCfg>:
    381a:	1141                	addi	sp,sp,-16
    381c:	c422                	sw	s0,8(sp)
    381e:	c606                	sw	ra,12(sp)
    3820:	842a                	mv	s0,a0
    3822:	3569                	jal	36ac <GetSysClock>
    3824:	4729                	li	a4,10
    3826:	02e507b3          	mul	a5,a0,a4
    382a:	40b2                	lw	ra,12(sp)
    382c:	838d                	srli	a5,a5,0x3
    382e:	0287d7b3          	divu	a5,a5,s0
    3832:	4422                	lw	s0,8(sp)
    3834:	0795                	addi	a5,a5,5
    3836:	02e7d7b3          	divu	a5,a5,a4
    383a:	40003737          	lui	a4,0x40003
    383e:	07c2                	slli	a5,a5,0x10
    3840:	83c1                	srli	a5,a5,0x10
    3842:	40f71623          	sh	a5,1036(a4) # 4000340c <_eusrstack+0x1fffb40c>
    3846:	0141                	addi	sp,sp,16
    3848:	8082                	ret

0000384a <UART1_DefInit>:
    384a:	6571                	lui	a0,0x1c
    384c:	1141                	addi	sp,sp,-16
    384e:	20050513          	addi	a0,a0,512 # 1c200 <_data_lma+0x12dfc>
    3852:	c606                	sw	ra,12(sp)
    3854:	37d9                	jal	381a <UART1_BaudRateCfg>
    3856:	400037b7          	lui	a5,0x40003
    385a:	f8700713          	li	a4,-121
    385e:	40e78123          	sb	a4,1026(a5) # 40003402 <_eusrstack+0x1fffb402>
    3862:	470d                	li	a4,3
    3864:	40e781a3          	sb	a4,1027(a5)
    3868:	04000713          	li	a4,64
    386c:	40e780a3          	sb	a4,1025(a5)
    3870:	4705                	li	a4,1
    3872:	40e78723          	sb	a4,1038(a5)
    3876:	40b2                	lw	ra,12(sp)
    3878:	0141                	addi	sp,sp,16
    387a:	8082                	ret

0000387c <UART1_ByteTrigCfg>:
    387c:	40003737          	lui	a4,0x40003
    3880:	40274783          	lbu	a5,1026(a4) # 40003402 <_eusrstack+0x1fffb402>
    3884:	051a                	slli	a0,a0,0x6
    3886:	03f7f793          	andi	a5,a5,63
    388a:	8fc9                	or	a5,a5,a0
    388c:	0ff7f793          	andi	a5,a5,255
    3890:	40f70123          	sb	a5,1026(a4)
    3894:	8082                	ret

00003896 <UART1_INTCfg>:
    3896:	400037b7          	lui	a5,0x40003
    389a:	4017c703          	lbu	a4,1025(a5) # 40003401 <_eusrstack+0x1fffb401>
    389e:	c919                	beqz	a0,38b4 <UART1_INTCfg+0x1e>
    38a0:	8dd9                	or	a1,a1,a4
    38a2:	40b780a3          	sb	a1,1025(a5)
    38a6:	4007c703          	lbu	a4,1024(a5)
    38aa:	00876713          	ori	a4,a4,8
    38ae:	40e78023          	sb	a4,1024(a5)
    38b2:	8082                	ret
    38b4:	fff5c593          	not	a1,a1
    38b8:	8df9                	and	a1,a1,a4
    38ba:	40b780a3          	sb	a1,1025(a5)
    38be:	8082                	ret

000038c0 <UART1_Reset>:
    38c0:	400037b7          	lui	a5,0x40003
    38c4:	f8000713          	li	a4,-128
    38c8:	40e780a3          	sb	a4,1025(a5) # 40003401 <_eusrstack+0x1fffb401>
    38cc:	8082                	ret

000038ce <UART1_SendString>:
    38ce:	400037b7          	lui	a5,0x40003
    38d2:	4721                	li	a4,8
    38d4:	400036b7          	lui	a3,0x40003
    38d8:	e989                	bnez	a1,38ea <UART1_SendString+0x1c>
    38da:	40003737          	lui	a4,0x40003
    38de:	40574783          	lbu	a5,1029(a4) # 40003405 <_eusrstack+0x1fffb405>
    38e2:	0407f793          	andi	a5,a5,64
    38e6:	cf99                	beqz	a5,3904 <UART1_SendString+0x36>
    38e8:	8082                	ret
    38ea:	40b7c603          	lbu	a2,1035(a5) # 4000340b <_eusrstack+0x1fffb40b>
    38ee:	fec705e3          	beq	a4,a2,38d8 <UART1_SendString+0xa>
    38f2:	0505                	addi	a0,a0,1
    38f4:	fff54603          	lbu	a2,-1(a0)
    38f8:	15fd                	addi	a1,a1,-1
    38fa:	05c2                	slli	a1,a1,0x10
    38fc:	40c68423          	sb	a2,1032(a3) # 40003408 <_eusrstack+0x1fffb408>
    3900:	81c1                	srli	a1,a1,0x10
    3902:	bfd9                	j	38d8 <UART1_SendString+0xa>
    3904:	0001                	nop
    3906:	bfe1                	j	38de <UART1_SendString+0x10>

00003908 <UART1_RecvString>:
    3908:	4781                	li	a5,0
    390a:	400036b7          	lui	a3,0x40003
    390e:	40a6c703          	lbu	a4,1034(a3) # 4000340a <_eusrstack+0x1fffb40a>
    3912:	01079613          	slli	a2,a5,0x10
    3916:	8241                	srli	a2,a2,0x10
    3918:	0ff77713          	andi	a4,a4,255
    391c:	e319                	bnez	a4,3922 <UART1_RecvString+0x1a>
    391e:	8532                	mv	a0,a2
    3920:	8082                	ret
    3922:	4086c603          	lbu	a2,1032(a3)
    3926:	00f50733          	add	a4,a0,a5
    392a:	0785                	addi	a5,a5,1
    392c:	00c70023          	sb	a2,0(a4)
    3930:	bff9                	j	390e <UART1_RecvString+0x6>

00003932 <UART2_BaudRateCfg>:
    3932:	1141                	addi	sp,sp,-16
    3934:	c422                	sw	s0,8(sp)
    3936:	c606                	sw	ra,12(sp)
    3938:	842a                	mv	s0,a0
    393a:	d73ff0ef          	jal	ra,36ac <GetSysClock>
    393e:	4729                	li	a4,10
    3940:	02e507b3          	mul	a5,a0,a4
    3944:	40b2                	lw	ra,12(sp)
    3946:	838d                	srli	a5,a5,0x3
    3948:	0287d7b3          	divu	a5,a5,s0
    394c:	4422                	lw	s0,8(sp)
    394e:	0795                	addi	a5,a5,5
    3950:	02e7d7b3          	divu	a5,a5,a4
    3954:	40004737          	lui	a4,0x40004
    3958:	07c2                	slli	a5,a5,0x10
    395a:	83c1                	srli	a5,a5,0x10
    395c:	80f71623          	sh	a5,-2036(a4) # 4000380c <_eusrstack+0x1fffb80c>
    3960:	0141                	addi	sp,sp,16
    3962:	8082                	ret

00003964 <UART2_DefInit>:
    3964:	6571                	lui	a0,0x1c
    3966:	1141                	addi	sp,sp,-16
    3968:	20050513          	addi	a0,a0,512 # 1c200 <_data_lma+0x12dfc>
    396c:	c606                	sw	ra,12(sp)
    396e:	37d1                	jal	3932 <UART2_BaudRateCfg>
    3970:	400047b7          	lui	a5,0x40004
    3974:	f8700713          	li	a4,-121
    3978:	80e78123          	sb	a4,-2046(a5) # 40003802 <_eusrstack+0x1fffb802>
    397c:	470d                	li	a4,3
    397e:	80e781a3          	sb	a4,-2045(a5)
    3982:	04000713          	li	a4,64
    3986:	80e780a3          	sb	a4,-2047(a5)
    398a:	4705                	li	a4,1
    398c:	80e78723          	sb	a4,-2034(a5)
    3990:	40b2                	lw	ra,12(sp)
    3992:	0141                	addi	sp,sp,16
    3994:	8082                	ret

00003996 <UART2_ByteTrigCfg>:
    3996:	40004737          	lui	a4,0x40004
    399a:	80274783          	lbu	a5,-2046(a4) # 40003802 <_eusrstack+0x1fffb802>
    399e:	051a                	slli	a0,a0,0x6
    39a0:	03f7f793          	andi	a5,a5,63
    39a4:	8fc9                	or	a5,a5,a0
    39a6:	0ff7f793          	andi	a5,a5,255
    39aa:	80f70123          	sb	a5,-2046(a4)
    39ae:	8082                	ret

000039b0 <UART2_INTCfg>:
    39b0:	400047b7          	lui	a5,0x40004
    39b4:	8017c703          	lbu	a4,-2047(a5) # 40003801 <_eusrstack+0x1fffb801>
    39b8:	c919                	beqz	a0,39ce <UART2_INTCfg+0x1e>
    39ba:	8dd9                	or	a1,a1,a4
    39bc:	80b780a3          	sb	a1,-2047(a5)
    39c0:	8007c703          	lbu	a4,-2048(a5)
    39c4:	00876713          	ori	a4,a4,8
    39c8:	80e78023          	sb	a4,-2048(a5)
    39cc:	8082                	ret
    39ce:	fff5c593          	not	a1,a1
    39d2:	8df9                	and	a1,a1,a4
    39d4:	80b780a3          	sb	a1,-2047(a5)
    39d8:	8082                	ret

000039da <UART2_Reset>:
    39da:	400047b7          	lui	a5,0x40004
    39de:	f8000713          	li	a4,-128
    39e2:	80e780a3          	sb	a4,-2047(a5) # 40003801 <_eusrstack+0x1fffb801>
    39e6:	8082                	ret

000039e8 <UART2_SendString>:
    39e8:	400047b7          	lui	a5,0x40004
    39ec:	4721                	li	a4,8
    39ee:	400046b7          	lui	a3,0x40004
    39f2:	e989                	bnez	a1,3a04 <UART2_SendString+0x1c>
    39f4:	40004737          	lui	a4,0x40004
    39f8:	80574783          	lbu	a5,-2043(a4) # 40003805 <_eusrstack+0x1fffb805>
    39fc:	0407f793          	andi	a5,a5,64
    3a00:	cf99                	beqz	a5,3a1e <UART2_SendString+0x36>
    3a02:	8082                	ret
    3a04:	80b7c603          	lbu	a2,-2037(a5) # 4000380b <_eusrstack+0x1fffb80b>
    3a08:	fec705e3          	beq	a4,a2,39f2 <UART2_SendString+0xa>
    3a0c:	0505                	addi	a0,a0,1
    3a0e:	fff54603          	lbu	a2,-1(a0)
    3a12:	15fd                	addi	a1,a1,-1
    3a14:	05c2                	slli	a1,a1,0x10
    3a16:	80c68423          	sb	a2,-2040(a3) # 40003808 <_eusrstack+0x1fffb808>
    3a1a:	81c1                	srli	a1,a1,0x10
    3a1c:	bfd9                	j	39f2 <UART2_SendString+0xa>
    3a1e:	0001                	nop
    3a20:	bfe1                	j	39f8 <UART2_SendString+0x10>

00003a22 <UART2_RecvString>:
    3a22:	4781                	li	a5,0
    3a24:	400046b7          	lui	a3,0x40004
    3a28:	80a6c703          	lbu	a4,-2038(a3) # 4000380a <_eusrstack+0x1fffb80a>
    3a2c:	01079613          	slli	a2,a5,0x10
    3a30:	8241                	srli	a2,a2,0x10
    3a32:	0ff77713          	andi	a4,a4,255
    3a36:	e319                	bnez	a4,3a3c <UART2_RecvString+0x1a>
    3a38:	8532                	mv	a0,a2
    3a3a:	8082                	ret
    3a3c:	8086c603          	lbu	a2,-2040(a3)
    3a40:	00f50733          	add	a4,a0,a5
    3a44:	0785                	addi	a5,a5,1
    3a46:	00c70023          	sb	a2,0(a4)
    3a4a:	bff9                	j	3a28 <UART2_RecvString+0x6>

00003a4c <UART3_BaudRateCfg>:
    3a4c:	1141                	addi	sp,sp,-16
    3a4e:	c422                	sw	s0,8(sp)
    3a50:	c606                	sw	ra,12(sp)
    3a52:	842a                	mv	s0,a0
    3a54:	c59ff0ef          	jal	ra,36ac <GetSysClock>
    3a58:	4729                	li	a4,10
    3a5a:	02e507b3          	mul	a5,a0,a4
    3a5e:	40b2                	lw	ra,12(sp)
    3a60:	838d                	srli	a5,a5,0x3
    3a62:	0287d7b3          	divu	a5,a5,s0
    3a66:	4422                	lw	s0,8(sp)
    3a68:	0795                	addi	a5,a5,5
    3a6a:	02e7d7b3          	divu	a5,a5,a4
    3a6e:	40004737          	lui	a4,0x40004
    3a72:	07c2                	slli	a5,a5,0x10
    3a74:	83c1                	srli	a5,a5,0x10
    3a76:	c0f71623          	sh	a5,-1012(a4) # 40003c0c <_eusrstack+0x1fffbc0c>
    3a7a:	0141                	addi	sp,sp,16
    3a7c:	8082                	ret

00003a7e <UART3_DefInit>:
    3a7e:	6571                	lui	a0,0x1c
    3a80:	1141                	addi	sp,sp,-16
    3a82:	20050513          	addi	a0,a0,512 # 1c200 <_data_lma+0x12dfc>
    3a86:	c606                	sw	ra,12(sp)
    3a88:	37d1                	jal	3a4c <UART3_BaudRateCfg>
    3a8a:	400047b7          	lui	a5,0x40004
    3a8e:	f8700713          	li	a4,-121
    3a92:	c0e78123          	sb	a4,-1022(a5) # 40003c02 <_eusrstack+0x1fffbc02>
    3a96:	470d                	li	a4,3
    3a98:	c0e781a3          	sb	a4,-1021(a5)
    3a9c:	04000713          	li	a4,64
    3aa0:	c0e780a3          	sb	a4,-1023(a5)
    3aa4:	4705                	li	a4,1
    3aa6:	c0e78723          	sb	a4,-1010(a5)
    3aaa:	40b2                	lw	ra,12(sp)
    3aac:	0141                	addi	sp,sp,16
    3aae:	8082                	ret

00003ab0 <UART3_ByteTrigCfg>:
    3ab0:	40004737          	lui	a4,0x40004
    3ab4:	c0274783          	lbu	a5,-1022(a4) # 40003c02 <_eusrstack+0x1fffbc02>
    3ab8:	051a                	slli	a0,a0,0x6
    3aba:	03f7f793          	andi	a5,a5,63
    3abe:	8fc9                	or	a5,a5,a0
    3ac0:	0ff7f793          	andi	a5,a5,255
    3ac4:	c0f70123          	sb	a5,-1022(a4)
    3ac8:	8082                	ret

00003aca <UART3_INTCfg>:
    3aca:	400047b7          	lui	a5,0x40004
    3ace:	c017c703          	lbu	a4,-1023(a5) # 40003c01 <_eusrstack+0x1fffbc01>
    3ad2:	c919                	beqz	a0,3ae8 <UART3_INTCfg+0x1e>
    3ad4:	8dd9                	or	a1,a1,a4
    3ad6:	c0b780a3          	sb	a1,-1023(a5)
    3ada:	c007c703          	lbu	a4,-1024(a5)
    3ade:	00876713          	ori	a4,a4,8
    3ae2:	c0e78023          	sb	a4,-1024(a5)
    3ae6:	8082                	ret
    3ae8:	fff5c593          	not	a1,a1
    3aec:	8df9                	and	a1,a1,a4
    3aee:	c0b780a3          	sb	a1,-1023(a5)
    3af2:	8082                	ret

00003af4 <UART3_Reset>:
    3af4:	400047b7          	lui	a5,0x40004
    3af8:	f8000713          	li	a4,-128
    3afc:	c0e780a3          	sb	a4,-1023(a5) # 40003c01 <_eusrstack+0x1fffbc01>
    3b00:	8082                	ret

00003b02 <UART3_SendString>:
    3b02:	400047b7          	lui	a5,0x40004
    3b06:	4721                	li	a4,8
    3b08:	400046b7          	lui	a3,0x40004
    3b0c:	e191                	bnez	a1,3b10 <UART3_SendString+0xe>
    3b0e:	8082                	ret
    3b10:	c0b7c603          	lbu	a2,-1013(a5) # 40003c0b <_eusrstack+0x1fffbc0b>
    3b14:	fec70ce3          	beq	a4,a2,3b0c <UART3_SendString+0xa>
    3b18:	0505                	addi	a0,a0,1
    3b1a:	fff54603          	lbu	a2,-1(a0)
    3b1e:	15fd                	addi	a1,a1,-1
    3b20:	05c2                	slli	a1,a1,0x10
    3b22:	c0c68423          	sb	a2,-1016(a3) # 40003c08 <_eusrstack+0x1fffbc08>
    3b26:	81c1                	srli	a1,a1,0x10
    3b28:	b7d5                	j	3b0c <UART3_SendString+0xa>

00003b2a <UART3_RecvString>:
    3b2a:	4781                	li	a5,0
    3b2c:	400046b7          	lui	a3,0x40004
    3b30:	c0a6c703          	lbu	a4,-1014(a3) # 40003c0a <_eusrstack+0x1fffbc0a>
    3b34:	01079613          	slli	a2,a5,0x10
    3b38:	8241                	srli	a2,a2,0x10
    3b3a:	0ff77713          	andi	a4,a4,255
    3b3e:	e319                	bnez	a4,3b44 <UART3_RecvString+0x1a>
    3b40:	8532                	mv	a0,a2
    3b42:	8082                	ret
    3b44:	c086c603          	lbu	a2,-1016(a3)
    3b48:	00f50733          	add	a4,a0,a5
    3b4c:	0785                	addi	a5,a5,1
    3b4e:	00c70023          	sb	a2,0(a4)
    3b52:	bff9                	j	3b30 <UART3_RecvString+0x6>

00003b54 <__divdf3>:
    3b54:	7139                	addi	sp,sp,-64
    3b56:	0145d793          	srli	a5,a1,0x14
    3b5a:	dc22                	sw	s0,56(sp)
    3b5c:	d84a                	sw	s2,48(sp)
    3b5e:	d256                	sw	s5,36(sp)
    3b60:	892a                	mv	s2,a0
    3b62:	00c59413          	slli	s0,a1,0xc
    3b66:	de06                	sw	ra,60(sp)
    3b68:	da26                	sw	s1,52(sp)
    3b6a:	d64e                	sw	s3,44(sp)
    3b6c:	d452                	sw	s4,40(sp)
    3b6e:	d05a                	sw	s6,32(sp)
    3b70:	ce5e                	sw	s7,28(sp)
    3b72:	7ff7f513          	andi	a0,a5,2047
    3b76:	8031                	srli	s0,s0,0xc
    3b78:	01f5da93          	srli	s5,a1,0x1f
    3b7c:	10050b63          	beqz	a0,3c92 <__divdf3+0x13e>
    3b80:	7ff00793          	li	a5,2047
    3b84:	14f50b63          	beq	a0,a5,3cda <__divdf3+0x186>
    3b88:	01d95a13          	srli	s4,s2,0x1d
    3b8c:	040e                	slli	s0,s0,0x3
    3b8e:	008a6433          	or	s0,s4,s0
    3b92:	00800a37          	lui	s4,0x800
    3b96:	01446a33          	or	s4,s0,s4
    3b9a:	00391b13          	slli	s6,s2,0x3
    3b9e:	c0150493          	addi	s1,a0,-1023
    3ba2:	4401                	li	s0,0
    3ba4:	4b81                	li	s7,0
    3ba6:	0146d813          	srli	a6,a3,0x14
    3baa:	00c69913          	slli	s2,a3,0xc
    3bae:	7ff87813          	andi	a6,a6,2047
    3bb2:	88b2                	mv	a7,a2
    3bb4:	00c95913          	srli	s2,s2,0xc
    3bb8:	01f6d993          	srli	s3,a3,0x1f
    3bbc:	08080e63          	beqz	a6,3c58 <__divdf3+0x104>
    3bc0:	7ff00793          	li	a5,2047
    3bc4:	04f80063          	beq	a6,a5,3c04 <__divdf3+0xb0>
    3bc8:	01d65713          	srli	a4,a2,0x1d
    3bcc:	090e                	slli	s2,s2,0x3
    3bce:	01276933          	or	s2,a4,s2
    3bd2:	c0180813          	addi	a6,a6,-1023
    3bd6:	008007b7          	lui	a5,0x800
    3bda:	00f96733          	or	a4,s2,a5
    3bde:	00361893          	slli	a7,a2,0x3
    3be2:	410484b3          	sub	s1,s1,a6
    3be6:	4581                	li	a1,0
    3be8:	47bd                	li	a5,15
    3bea:	013ac833          	xor	a6,s5,s3
    3bee:	1a87e463          	bltu	a5,s0,3d96 <__divdf3+0x242>
    3bf2:	00005797          	auipc	a5,0x5
    3bf6:	37678793          	addi	a5,a5,886 # 8f68 <ztvm_crctab16+0x4e8>
    3bfa:	040a                	slli	s0,s0,0x2
    3bfc:	943e                	add	s0,s0,a5
    3bfe:	4010                	lw	a2,0(s0)
    3c00:	963e                	add	a2,a2,a5
    3c02:	8602                	jr	a2
    3c04:	00c96733          	or	a4,s2,a2
    3c08:	80148493          	addi	s1,s1,-2047
    3c0c:	10071263          	bnez	a4,3d10 <__divdf3+0x1bc>
    3c10:	00246413          	ori	s0,s0,2
    3c14:	4881                	li	a7,0
    3c16:	4589                	li	a1,2
    3c18:	bfc1                	j	3be8 <__divdf3+0x94>
    3c1a:	7ff00613          	li	a2,2047
    3c1e:	4781                	li	a5,0
    3c20:	4701                	li	a4,0
    3c22:	07b2                	slli	a5,a5,0xc
    3c24:	50f2                	lw	ra,60(sp)
    3c26:	5462                	lw	s0,56(sp)
    3c28:	0652                	slli	a2,a2,0x14
    3c2a:	83b1                	srli	a5,a5,0xc
    3c2c:	087e                	slli	a6,a6,0x1f
    3c2e:	8fd1                	or	a5,a5,a2
    3c30:	0107e7b3          	or	a5,a5,a6
    3c34:	54d2                	lw	s1,52(sp)
    3c36:	5942                	lw	s2,48(sp)
    3c38:	59b2                	lw	s3,44(sp)
    3c3a:	5a22                	lw	s4,40(sp)
    3c3c:	5a92                	lw	s5,36(sp)
    3c3e:	5b02                	lw	s6,32(sp)
    3c40:	4bf2                	lw	s7,28(sp)
    3c42:	853a                	mv	a0,a4
    3c44:	85be                	mv	a1,a5
    3c46:	6121                	addi	sp,sp,64
    3c48:	8082                	ret
    3c4a:	4801                	li	a6,0
    3c4c:	7ff00613          	li	a2,2047
    3c50:	000807b7          	lui	a5,0x80
    3c54:	4701                	li	a4,0
    3c56:	b7f1                	j	3c22 <__divdf3+0xce>
    3c58:	00c96733          	or	a4,s2,a2
    3c5c:	c74d                	beqz	a4,3d06 <__divdf3+0x1b2>
    3c5e:	30090763          	beqz	s2,3f6c <__divdf3+0x418>
    3c62:	854a                	mv	a0,s2
    3c64:	c432                	sw	a2,8(sp)
    3c66:	1b5000ef          	jal	ra,461a <__clzsi2>
    3c6a:	4622                	lw	a2,8(sp)
    3c6c:	ff550713          	addi	a4,a0,-11
    3c70:	47f5                	li	a5,29
    3c72:	ff850693          	addi	a3,a0,-8
    3c76:	8f99                	sub	a5,a5,a4
    3c78:	00d91933          	sll	s2,s2,a3
    3c7c:	00f657b3          	srl	a5,a2,a5
    3c80:	0127e733          	or	a4,a5,s2
    3c84:	00d618b3          	sll	a7,a2,a3
    3c88:	9526                	add	a0,a0,s1
    3c8a:	3f350493          	addi	s1,a0,1011
    3c8e:	4581                	li	a1,0
    3c90:	bfa1                	j	3be8 <__divdf3+0x94>
    3c92:	01246a33          	or	s4,s0,s2
    3c96:	060a0363          	beqz	s4,3cfc <__divdf3+0x1a8>
    3c9a:	c636                	sw	a3,12(sp)
    3c9c:	c432                	sw	a2,8(sp)
    3c9e:	2a040663          	beqz	s0,3f4a <__divdf3+0x3f6>
    3ca2:	8522                	mv	a0,s0
    3ca4:	177000ef          	jal	ra,461a <__clzsi2>
    3ca8:	4622                	lw	a2,8(sp)
    3caa:	46b2                	lw	a3,12(sp)
    3cac:	84aa                	mv	s1,a0
    3cae:	ff550713          	addi	a4,a0,-11
    3cb2:	4a75                	li	s4,29
    3cb4:	ff848b13          	addi	s6,s1,-8
    3cb8:	40ea0a33          	sub	s4,s4,a4
    3cbc:	01641433          	sll	s0,s0,s6
    3cc0:	01495a33          	srl	s4,s2,s4
    3cc4:	008a6a33          	or	s4,s4,s0
    3cc8:	01691b33          	sll	s6,s2,s6
    3ccc:	c0d00513          	li	a0,-1011
    3cd0:	409504b3          	sub	s1,a0,s1
    3cd4:	4401                	li	s0,0
    3cd6:	4b81                	li	s7,0
    3cd8:	b5f9                	j	3ba6 <__divdf3+0x52>
    3cda:	01246a33          	or	s4,s0,s2
    3cde:	000a1863          	bnez	s4,3cee <__divdf3+0x19a>
    3ce2:	4421                	li	s0,8
    3ce4:	4b01                	li	s6,0
    3ce6:	7ff00493          	li	s1,2047
    3cea:	4b89                	li	s7,2
    3cec:	bd6d                	j	3ba6 <__divdf3+0x52>
    3cee:	8a22                	mv	s4,s0
    3cf0:	8b4a                	mv	s6,s2
    3cf2:	4431                	li	s0,12
    3cf4:	7ff00493          	li	s1,2047
    3cf8:	4b8d                	li	s7,3
    3cfa:	b575                	j	3ba6 <__divdf3+0x52>
    3cfc:	4411                	li	s0,4
    3cfe:	4b01                	li	s6,0
    3d00:	4481                	li	s1,0
    3d02:	4b85                	li	s7,1
    3d04:	b54d                	j	3ba6 <__divdf3+0x52>
    3d06:	00146413          	ori	s0,s0,1
    3d0a:	4881                	li	a7,0
    3d0c:	4585                	li	a1,1
    3d0e:	bde9                	j	3be8 <__divdf3+0x94>
    3d10:	00346413          	ori	s0,s0,3
    3d14:	874a                	mv	a4,s2
    3d16:	458d                	li	a1,3
    3d18:	bdc1                	j	3be8 <__divdf3+0x94>
    3d1a:	2e050863          	beqz	a0,400a <__divdf3+0x4b6>
    3d1e:	4785                	li	a5,1
    3d20:	8f89                	sub	a5,a5,a0
    3d22:	03800693          	li	a3,56
    3d26:	32f6db63          	bge	a3,a5,405c <__divdf3+0x508>
    3d2a:	4601                	li	a2,0
    3d2c:	4781                	li	a5,0
    3d2e:	4701                	li	a4,0
    3d30:	bdcd                	j	3c22 <__divdf3+0xce>
    3d32:	86ce                	mv	a3,s3
    3d34:	4789                	li	a5,2
    3d36:	3af58b63          	beq	a1,a5,40ec <__divdf3+0x598>
    3d3a:	478d                	li	a5,3
    3d3c:	f0f587e3          	beq	a1,a5,3c4a <__divdf3+0xf6>
    3d40:	4785                	li	a5,1
    3d42:	8836                	mv	a6,a3
    3d44:	fef583e3          	beq	a1,a5,3d2a <__divdf3+0x1d6>
    3d48:	3ff48513          	addi	a0,s1,1023
    3d4c:	fca057e3          	blez	a0,3d1a <__divdf3+0x1c6>
    3d50:	0078f793          	andi	a5,a7,7
    3d54:	28079463          	bnez	a5,3fdc <__divdf3+0x488>
    3d58:	0038d693          	srli	a3,a7,0x3
    3d5c:	00771793          	slli	a5,a4,0x7
    3d60:	0007d863          	bgez	a5,3d70 <__divdf3+0x21c>
    3d64:	ff0007b7          	lui	a5,0xff000
    3d68:	17fd                	addi	a5,a5,-1
    3d6a:	8f7d                	and	a4,a4,a5
    3d6c:	40048513          	addi	a0,s1,1024
    3d70:	7fe00793          	li	a5,2046
    3d74:	eaa7c3e3          	blt	a5,a0,3c1a <__divdf3+0xc6>
    3d78:	01d71613          	slli	a2,a4,0x1d
    3d7c:	00971793          	slli	a5,a4,0x9
    3d80:	83b1                	srli	a5,a5,0xc
    3d82:	00d66733          	or	a4,a2,a3
    3d86:	7ff57613          	andi	a2,a0,2047
    3d8a:	bd61                	j	3c22 <__divdf3+0xce>
    3d8c:	86d6                	mv	a3,s5
    3d8e:	8752                	mv	a4,s4
    3d90:	88da                	mv	a7,s6
    3d92:	85de                	mv	a1,s7
    3d94:	b745                	j	3d34 <__divdf3+0x1e0>
    3d96:	21476f63          	bltu	a4,s4,3fb4 <__divdf3+0x460>
    3d9a:	20ea0b63          	beq	s4,a4,3fb0 <__divdf3+0x45c>
    3d9e:	86da                	mv	a3,s6
    3da0:	14fd                	addi	s1,s1,-1
    3da2:	8452                	mv	s0,s4
    3da4:	4b01                	li	s6,0
    3da6:	00871793          	slli	a5,a4,0x8
    3daa:	0188d313          	srli	t1,a7,0x18
    3dae:	00f36333          	or	t1,t1,a5
    3db2:	01035e93          	srli	t4,t1,0x10
    3db6:	03d457b3          	divu	a5,s0,t4
    3dba:	01031f13          	slli	t5,t1,0x10
    3dbe:	010f5f13          	srli	t5,t5,0x10
    3dc2:	0106d593          	srli	a1,a3,0x10
    3dc6:	00889e13          	slli	t3,a7,0x8
    3dca:	03d47433          	remu	s0,s0,t4
    3dce:	02ff0733          	mul	a4,t5,a5
    3dd2:	0442                	slli	s0,s0,0x10
    3dd4:	8dc1                	or	a1,a1,s0
    3dd6:	00e5fb63          	bgeu	a1,a4,3dec <__divdf3+0x298>
    3dda:	959a                	add	a1,a1,t1
    3ddc:	fff78613          	addi	a2,a5,-1 # feffffff <_eusrstack+0xdeff7fff>
    3de0:	2665ec63          	bltu	a1,t1,4058 <__divdf3+0x504>
    3de4:	26e5fa63          	bgeu	a1,a4,4058 <__divdf3+0x504>
    3de8:	17f9                	addi	a5,a5,-2
    3dea:	959a                	add	a1,a1,t1
    3dec:	8d99                	sub	a1,a1,a4
    3dee:	03d5d733          	divu	a4,a1,t4
    3df2:	06c2                	slli	a3,a3,0x10
    3df4:	82c1                	srli	a3,a3,0x10
    3df6:	03d5f5b3          	remu	a1,a1,t4
    3dfa:	02ef0633          	mul	a2,t5,a4
    3dfe:	05c2                	slli	a1,a1,0x10
    3e00:	8dd5                	or	a1,a1,a3
    3e02:	00c5fb63          	bgeu	a1,a2,3e18 <__divdf3+0x2c4>
    3e06:	959a                	add	a1,a1,t1
    3e08:	fff70693          	addi	a3,a4,-1
    3e0c:	2465e463          	bltu	a1,t1,4054 <__divdf3+0x500>
    3e10:	24c5f263          	bgeu	a1,a2,4054 <__divdf3+0x500>
    3e14:	1779                	addi	a4,a4,-2
    3e16:	959a                	add	a1,a1,t1
    3e18:	07c2                	slli	a5,a5,0x10
    3e1a:	6441                	lui	s0,0x10
    3e1c:	8f5d                	or	a4,a4,a5
    3e1e:	fff40793          	addi	a5,s0,-1 # ffff <_data_lma+0x6bfb>
    3e22:	00f77533          	and	a0,a4,a5
    3e26:	01075893          	srli	a7,a4,0x10
    3e2a:	010e5f93          	srli	t6,t3,0x10
    3e2e:	00fe77b3          	and	a5,t3,a5
    3e32:	02f502b3          	mul	t0,a0,a5
    3e36:	40c586b3          	sub	a3,a1,a2
    3e3a:	02f883b3          	mul	t2,a7,a5
    3e3e:	0102d593          	srli	a1,t0,0x10
    3e42:	02af8633          	mul	a2,t6,a0
    3e46:	961e                	add	a2,a2,t2
    3e48:	962e                	add	a2,a2,a1
    3e4a:	03f88533          	mul	a0,a7,t6
    3e4e:	00767363          	bgeu	a2,t2,3e54 <__divdf3+0x300>
    3e52:	9522                	add	a0,a0,s0
    3e54:	68c1                	lui	a7,0x10
    3e56:	18fd                	addi	a7,a7,-1
    3e58:	01065593          	srli	a1,a2,0x10
    3e5c:	01167633          	and	a2,a2,a7
    3e60:	0642                	slli	a2,a2,0x10
    3e62:	0112f8b3          	and	a7,t0,a7
    3e66:	95aa                	add	a1,a1,a0
    3e68:	9646                	add	a2,a2,a7
    3e6a:	12b6e463          	bltu	a3,a1,3f92 <__divdf3+0x43e>
    3e6e:	12b68063          	beq	a3,a1,3f8e <__divdf3+0x43a>
    3e72:	40cb0633          	sub	a2,s6,a2
    3e76:	8e8d                	sub	a3,a3,a1
    3e78:	00cb3b33          	sltu	s6,s6,a2
    3e7c:	41668b33          	sub	s6,a3,s6
    3e80:	3ff48513          	addi	a0,s1,1023
    3e84:	17630a63          	beq	t1,s6,3ff8 <__divdf3+0x4a4>
    3e88:	03db58b3          	divu	a7,s6,t4
    3e8c:	01065593          	srli	a1,a2,0x10
    3e90:	03db7b33          	remu	s6,s6,t4
    3e94:	031f06b3          	mul	a3,t5,a7
    3e98:	0b42                	slli	s6,s6,0x10
    3e9a:	0165eb33          	or	s6,a1,s6
    3e9e:	00db7b63          	bgeu	s6,a3,3eb4 <__divdf3+0x360>
    3ea2:	9b1a                	add	s6,s6,t1
    3ea4:	fff88593          	addi	a1,a7,-1 # ffff <_data_lma+0x6bfb>
    3ea8:	206b6b63          	bltu	s6,t1,40be <__divdf3+0x56a>
    3eac:	20db7963          	bgeu	s6,a3,40be <__divdf3+0x56a>
    3eb0:	18f9                	addi	a7,a7,-2
    3eb2:	9b1a                	add	s6,s6,t1
    3eb4:	40db0b33          	sub	s6,s6,a3
    3eb8:	03db56b3          	divu	a3,s6,t4
    3ebc:	0642                	slli	a2,a2,0x10
    3ebe:	8241                	srli	a2,a2,0x10
    3ec0:	03db7b33          	remu	s6,s6,t4
    3ec4:	02df0f33          	mul	t5,t5,a3
    3ec8:	0b42                	slli	s6,s6,0x10
    3eca:	01666633          	or	a2,a2,s6
    3ece:	01e67b63          	bgeu	a2,t5,3ee4 <__divdf3+0x390>
    3ed2:	961a                	add	a2,a2,t1
    3ed4:	fff68593          	addi	a1,a3,-1
    3ed8:	1e666563          	bltu	a2,t1,40c2 <__divdf3+0x56e>
    3edc:	1fe67363          	bgeu	a2,t5,40c2 <__divdf3+0x56e>
    3ee0:	16f9                	addi	a3,a3,-2
    3ee2:	961a                	add	a2,a2,t1
    3ee4:	08c2                	slli	a7,a7,0x10
    3ee6:	00d8e8b3          	or	a7,a7,a3
    3eea:	01089593          	slli	a1,a7,0x10
    3eee:	0108d293          	srli	t0,a7,0x10
    3ef2:	81c1                	srli	a1,a1,0x10
    3ef4:	02f58eb3          	mul	t4,a1,a5
    3ef8:	41e60633          	sub	a2,a2,t5
    3efc:	02bf85b3          	mul	a1,t6,a1
    3f00:	010ed693          	srli	a3,t4,0x10
    3f04:	02f287b3          	mul	a5,t0,a5
    3f08:	95be                	add	a1,a1,a5
    3f0a:	96ae                	add	a3,a3,a1
    3f0c:	025f8fb3          	mul	t6,t6,t0
    3f10:	00f6f463          	bgeu	a3,a5,3f18 <__divdf3+0x3c4>
    3f14:	67c1                	lui	a5,0x10
    3f16:	9fbe                	add	t6,t6,a5
    3f18:	65c1                	lui	a1,0x10
    3f1a:	15fd                	addi	a1,a1,-1
    3f1c:	0106d793          	srli	a5,a3,0x10
    3f20:	8eed                	and	a3,a3,a1
    3f22:	06c2                	slli	a3,a3,0x10
    3f24:	00befeb3          	and	t4,t4,a1
    3f28:	9fbe                	add	t6,t6,a5
    3f2a:	96f6                	add	a3,a3,t4
    3f2c:	09f67d63          	bgeu	a2,t6,3fc6 <__divdf3+0x472>
    3f30:	961a                	add	a2,a2,t1
    3f32:	fff88793          	addi	a5,a7,-1
    3f36:	1a666763          	bltu	a2,t1,40e4 <__divdf3+0x590>
    3f3a:	19f66663          	bltu	a2,t6,40c6 <__divdf3+0x572>
    3f3e:	1bf60d63          	beq	a2,t6,40f8 <__divdf3+0x5a4>
    3f42:	88be                	mv	a7,a5
    3f44:	0018e893          	ori	a7,a7,1
    3f48:	b511                	j	3d4c <__divdf3+0x1f8>
    3f4a:	854a                	mv	a0,s2
    3f4c:	25f9                	jal	461a <__clzsi2>
    3f4e:	01550713          	addi	a4,a0,21
    3f52:	45f1                	li	a1,28
    3f54:	02050493          	addi	s1,a0,32
    3f58:	4622                	lw	a2,8(sp)
    3f5a:	46b2                	lw	a3,12(sp)
    3f5c:	d4e5dbe3          	bge	a1,a4,3cb2 <__divdf3+0x15e>
    3f60:	ff850413          	addi	s0,a0,-8
    3f64:	00891a33          	sll	s4,s2,s0
    3f68:	4b01                	li	s6,0
    3f6a:	b38d                	j	3ccc <__divdf3+0x178>
    3f6c:	8532                	mv	a0,a2
    3f6e:	c432                	sw	a2,8(sp)
    3f70:	256d                	jal	461a <__clzsi2>
    3f72:	01550713          	addi	a4,a0,21
    3f76:	46f1                	li	a3,28
    3f78:	87aa                	mv	a5,a0
    3f7a:	4622                	lw	a2,8(sp)
    3f7c:	02050513          	addi	a0,a0,32
    3f80:	cee6d8e3          	bge	a3,a4,3c70 <__divdf3+0x11c>
    3f84:	17e1                	addi	a5,a5,-8
    3f86:	00f61733          	sll	a4,a2,a5
    3f8a:	4881                	li	a7,0
    3f8c:	b9f5                	j	3c88 <__divdf3+0x134>
    3f8e:	eecb72e3          	bgeu	s6,a2,3e72 <__divdf3+0x31e>
    3f92:	9b72                	add	s6,s6,t3
    3f94:	01cb3533          	sltu	a0,s6,t3
    3f98:	951a                	add	a0,a0,t1
    3f9a:	96aa                	add	a3,a3,a0
    3f9c:	fff70513          	addi	a0,a4,-1
    3fa0:	02d37863          	bgeu	t1,a3,3fd0 <__divdf3+0x47c>
    3fa4:	10b6e663          	bltu	a3,a1,40b0 <__divdf3+0x55c>
    3fa8:	10d58263          	beq	a1,a3,40ac <__divdf3+0x558>
    3fac:	872a                	mv	a4,a0
    3fae:	b5d1                	j	3e72 <__divdf3+0x31e>
    3fb0:	df1b67e3          	bltu	s6,a7,3d9e <__divdf3+0x24a>
    3fb4:	001b5593          	srli	a1,s6,0x1
    3fb8:	01fa1693          	slli	a3,s4,0x1f
    3fbc:	001a5413          	srli	s0,s4,0x1
    3fc0:	8ecd                	or	a3,a3,a1
    3fc2:	0b7e                	slli	s6,s6,0x1f
    3fc4:	b3cd                	j	3da6 <__divdf3+0x252>
    3fc6:	f7f61fe3          	bne	a2,t6,3f44 <__divdf3+0x3f0>
    3fca:	d80681e3          	beqz	a3,3d4c <__divdf3+0x1f8>
    3fce:	b78d                	j	3f30 <__divdf3+0x3dc>
    3fd0:	fcd31ee3          	bne	t1,a3,3fac <__divdf3+0x458>
    3fd4:	fdcb78e3          	bgeu	s6,t3,3fa4 <__divdf3+0x450>
    3fd8:	872a                	mv	a4,a0
    3fda:	bd61                	j	3e72 <__divdf3+0x31e>
    3fdc:	00f8f793          	andi	a5,a7,15
    3fe0:	4691                	li	a3,4
    3fe2:	d6d78be3          	beq	a5,a3,3d58 <__divdf3+0x204>
    3fe6:	ffc8b793          	sltiu	a5,a7,-4
    3fea:	00488693          	addi	a3,a7,4
    3fee:	0017c793          	xori	a5,a5,1
    3ff2:	828d                	srli	a3,a3,0x3
    3ff4:	973e                	add	a4,a4,a5
    3ff6:	b39d                	j	3d5c <__divdf3+0x208>
    3ff8:	4681                	li	a3,0
    3ffa:	4785                	li	a5,1
    3ffc:	fea04ce3          	bgtz	a0,3ff4 <__divdf3+0x4a0>
    4000:	58fd                	li	a7,-1
    4002:	d0051ee3          	bnez	a0,3d1e <__divdf3+0x1ca>
    4006:	c0100493          	li	s1,-1023
    400a:	4785                	li	a5,1
    400c:	41e48513          	addi	a0,s1,1054
    4010:	00a716b3          	sll	a3,a4,a0
    4014:	00f8d633          	srl	a2,a7,a5
    4018:	00a89533          	sll	a0,a7,a0
    401c:	8ed1                	or	a3,a3,a2
    401e:	00a03533          	snez	a0,a0
    4022:	8ec9                	or	a3,a3,a0
    4024:	0076f613          	andi	a2,a3,7
    4028:	00f75733          	srl	a4,a4,a5
    402c:	ce01                	beqz	a2,4044 <__divdf3+0x4f0>
    402e:	00f6f793          	andi	a5,a3,15
    4032:	4611                	li	a2,4
    4034:	00c78863          	beq	a5,a2,4044 <__divdf3+0x4f0>
    4038:	00468793          	addi	a5,a3,4
    403c:	00d7b6b3          	sltu	a3,a5,a3
    4040:	9736                	add	a4,a4,a3
    4042:	86be                	mv	a3,a5
    4044:	00871793          	slli	a5,a4,0x8
    4048:	0407d863          	bgez	a5,4098 <__divdf3+0x544>
    404c:	4605                	li	a2,1
    404e:	4781                	li	a5,0
    4050:	4701                	li	a4,0
    4052:	bec1                	j	3c22 <__divdf3+0xce>
    4054:	8736                	mv	a4,a3
    4056:	b3c9                	j	3e18 <__divdf3+0x2c4>
    4058:	87b2                	mv	a5,a2
    405a:	bb49                	j	3dec <__divdf3+0x298>
    405c:	46fd                	li	a3,31
    405e:	faf6d7e3          	bge	a3,a5,400c <__divdf3+0x4b8>
    4062:	5605                	li	a2,-31
    4064:	8e09                	sub	a2,a2,a0
    4066:	02000693          	li	a3,32
    406a:	00c75633          	srl	a2,a4,a2
    406e:	00d78863          	beq	a5,a3,407e <__divdf3+0x52a>
    4072:	43e48793          	addi	a5,s1,1086
    4076:	00f717b3          	sll	a5,a4,a5
    407a:	00f8e8b3          	or	a7,a7,a5
    407e:	011036b3          	snez	a3,a7
    4082:	8ed1                	or	a3,a3,a2
    4084:	0076f613          	andi	a2,a3,7
    4088:	4781                	li	a5,0
    408a:	ce01                	beqz	a2,40a2 <__divdf3+0x54e>
    408c:	00f6f793          	andi	a5,a3,15
    4090:	4611                	li	a2,4
    4092:	4701                	li	a4,0
    4094:	fac792e3          	bne	a5,a2,4038 <__divdf3+0x4e4>
    4098:	00971793          	slli	a5,a4,0x9
    409c:	01d71613          	slli	a2,a4,0x1d
    40a0:	83b1                	srli	a5,a5,0xc
    40a2:	0036d713          	srli	a4,a3,0x3
    40a6:	8f51                	or	a4,a4,a2
    40a8:	4601                	li	a2,0
    40aa:	bea5                	j	3c22 <__divdf3+0xce>
    40ac:	f0cb70e3          	bgeu	s6,a2,3fac <__divdf3+0x458>
    40b0:	9b72                	add	s6,s6,t3
    40b2:	01cb3533          	sltu	a0,s6,t3
    40b6:	951a                	add	a0,a0,t1
    40b8:	1779                	addi	a4,a4,-2
    40ba:	96aa                	add	a3,a3,a0
    40bc:	bb5d                	j	3e72 <__divdf3+0x31e>
    40be:	88ae                	mv	a7,a1
    40c0:	bbd5                	j	3eb4 <__divdf3+0x360>
    40c2:	86ae                	mv	a3,a1
    40c4:	b505                	j	3ee4 <__divdf3+0x390>
    40c6:	001e1793          	slli	a5,t3,0x1
    40ca:	01c7be33          	sltu	t3,a5,t3
    40ce:	9372                	add	t1,t1,t3
    40d0:	961a                	add	a2,a2,t1
    40d2:	18f9                	addi	a7,a7,-2
    40d4:	8e3e                	mv	t3,a5
    40d6:	e7f617e3          	bne	a2,t6,3f44 <__divdf3+0x3f0>
    40da:	c6de09e3          	beq	t3,a3,3d4c <__divdf3+0x1f8>
    40de:	0018e893          	ori	a7,a7,1
    40e2:	b1ad                	j	3d4c <__divdf3+0x1f8>
    40e4:	88be                	mv	a7,a5
    40e6:	fff60ae3          	beq	a2,t6,40da <__divdf3+0x586>
    40ea:	bda9                	j	3f44 <__divdf3+0x3f0>
    40ec:	8836                	mv	a6,a3
    40ee:	7ff00613          	li	a2,2047
    40f2:	4781                	li	a5,0
    40f4:	4701                	li	a4,0
    40f6:	b635                	j	3c22 <__divdf3+0xce>
    40f8:	fcde67e3          	bltu	t3,a3,40c6 <__divdf3+0x572>
    40fc:	88be                	mv	a7,a5
    40fe:	fede10e3          	bne	t3,a3,40de <__divdf3+0x58a>
    4102:	b1a9                	j	3d4c <__divdf3+0x1f8>

00004104 <__muldf3>:
    4104:	7139                	addi	sp,sp,-64
    4106:	d84a                	sw	s2,48(sp)
    4108:	0145d913          	srli	s2,a1,0x14
    410c:	d64e                	sw	s3,44(sp)
    410e:	d452                	sw	s4,40(sp)
    4110:	d256                	sw	s5,36(sp)
    4112:	00c59993          	slli	s3,a1,0xc
    4116:	de06                	sw	ra,60(sp)
    4118:	dc22                	sw	s0,56(sp)
    411a:	da26                	sw	s1,52(sp)
    411c:	d05a                	sw	s6,32(sp)
    411e:	ce5e                	sw	s7,28(sp)
    4120:	7ff97913          	andi	s2,s2,2047
    4124:	8a2a                	mv	s4,a0
    4126:	00c9d993          	srli	s3,s3,0xc
    412a:	01f5da93          	srli	s5,a1,0x1f
    412e:	0e090d63          	beqz	s2,4228 <__muldf3+0x124>
    4132:	7ff00793          	li	a5,2047
    4136:	18f90463          	beq	s2,a5,42be <__muldf3+0x1ba>
    413a:	01d55413          	srli	s0,a0,0x1d
    413e:	098e                	slli	s3,s3,0x3
    4140:	013469b3          	or	s3,s0,s3
    4144:	00800437          	lui	s0,0x800
    4148:	0089e433          	or	s0,s3,s0
    414c:	00351493          	slli	s1,a0,0x3
    4150:	c0190913          	addi	s2,s2,-1023
    4154:	4981                	li	s3,0
    4156:	4b81                	li	s7,0
    4158:	0146d713          	srli	a4,a3,0x14
    415c:	00c69a13          	slli	s4,a3,0xc
    4160:	7ff77713          	andi	a4,a4,2047
    4164:	85b2                	mv	a1,a2
    4166:	00ca5a13          	srli	s4,s4,0xc
    416a:	01f6db13          	srli	s6,a3,0x1f
    416e:	10070a63          	beqz	a4,4282 <__muldf3+0x17e>
    4172:	7ff00793          	li	a5,2047
    4176:	04f70363          	beq	a4,a5,41bc <__muldf3+0xb8>
    417a:	01d65793          	srli	a5,a2,0x1d
    417e:	0a0e                	slli	s4,s4,0x3
    4180:	0147ea33          	or	s4,a5,s4
    4184:	c0170713          	addi	a4,a4,-1023
    4188:	008007b7          	lui	a5,0x800
    418c:	00fa67b3          	or	a5,s4,a5
    4190:	00361593          	slli	a1,a2,0x3
    4194:	993a                	add	s2,s2,a4
    4196:	4881                	li	a7,0
    4198:	016ac733          	xor	a4,s5,s6
    419c:	46bd                	li	a3,15
    419e:	853a                	mv	a0,a4
    41a0:	00190813          	addi	a6,s2,1
    41a4:	1736e663          	bltu	a3,s3,4310 <__muldf3+0x20c>
    41a8:	00005617          	auipc	a2,0x5
    41ac:	e0060613          	addi	a2,a2,-512 # 8fa8 <ztvm_crctab16+0x528>
    41b0:	098a                	slli	s3,s3,0x2
    41b2:	99b2                	add	s3,s3,a2
    41b4:	0009a683          	lw	a3,0(s3)
    41b8:	96b2                	add	a3,a3,a2
    41ba:	8682                	jr	a3
    41bc:	00ca67b3          	or	a5,s4,a2
    41c0:	7ff90913          	addi	s2,s2,2047
    41c4:	12079763          	bnez	a5,42f2 <__muldf3+0x1ee>
    41c8:	0029e993          	ori	s3,s3,2
    41cc:	4581                	li	a1,0
    41ce:	4889                	li	a7,2
    41d0:	b7e1                	j	4198 <__muldf3+0x94>
    41d2:	4701                	li	a4,0
    41d4:	7ff00793          	li	a5,2047
    41d8:	00080437          	lui	s0,0x80
    41dc:	4481                	li	s1,0
    41de:	0432                	slli	s0,s0,0xc
    41e0:	07d2                	slli	a5,a5,0x14
    41e2:	8031                	srli	s0,s0,0xc
    41e4:	077e                	slli	a4,a4,0x1f
    41e6:	8c5d                	or	s0,s0,a5
    41e8:	8c59                	or	s0,s0,a4
    41ea:	85a2                	mv	a1,s0
    41ec:	50f2                	lw	ra,60(sp)
    41ee:	5462                	lw	s0,56(sp)
    41f0:	8526                	mv	a0,s1
    41f2:	5942                	lw	s2,48(sp)
    41f4:	54d2                	lw	s1,52(sp)
    41f6:	59b2                	lw	s3,44(sp)
    41f8:	5a22                	lw	s4,40(sp)
    41fa:	5a92                	lw	s5,36(sp)
    41fc:	5b02                	lw	s6,32(sp)
    41fe:	4bf2                	lw	s7,28(sp)
    4200:	6121                	addi	sp,sp,64
    4202:	8082                	ret
    4204:	855a                	mv	a0,s6
    4206:	843e                	mv	s0,a5
    4208:	84ae                	mv	s1,a1
    420a:	8bc6                	mv	s7,a7
    420c:	4789                	li	a5,2
    420e:	0efb8b63          	beq	s7,a5,4304 <__muldf3+0x200>
    4212:	478d                	li	a5,3
    4214:	fafb8fe3          	beq	s7,a5,41d2 <__muldf3+0xce>
    4218:	4785                	li	a5,1
    421a:	872a                	mv	a4,a0
    421c:	38fb9a63          	bne	s7,a5,45b0 <__muldf3+0x4ac>
    4220:	4781                	li	a5,0
    4222:	4401                	li	s0,0
    4224:	4481                	li	s1,0
    4226:	bf65                	j	41de <__muldf3+0xda>
    4228:	00a9e433          	or	s0,s3,a0
    422c:	cc55                	beqz	s0,42e8 <__muldf3+0x1e4>
    422e:	c636                	sw	a3,12(sp)
    4230:	c432                	sw	a2,8(sp)
    4232:	2a098963          	beqz	s3,44e4 <__muldf3+0x3e0>
    4236:	854e                	mv	a0,s3
    4238:	26cd                	jal	461a <__clzsi2>
    423a:	4622                	lw	a2,8(sp)
    423c:	46b2                	lw	a3,12(sp)
    423e:	87aa                	mv	a5,a0
    4240:	ff550713          	addi	a4,a0,-11
    4244:	4475                	li	s0,29
    4246:	ff878493          	addi	s1,a5,-8 # 7ffff8 <_data_lma+0x7f6bf4>
    424a:	8c19                	sub	s0,s0,a4
    424c:	009999b3          	sll	s3,s3,s1
    4250:	008a5433          	srl	s0,s4,s0
    4254:	01346433          	or	s0,s0,s3
    4258:	009a14b3          	sll	s1,s4,s1
    425c:	0146d713          	srli	a4,a3,0x14
    4260:	c0d00913          	li	s2,-1011
    4264:	00c69a13          	slli	s4,a3,0xc
    4268:	7ff77713          	andi	a4,a4,2047
    426c:	40f90933          	sub	s2,s2,a5
    4270:	4981                	li	s3,0
    4272:	4b81                	li	s7,0
    4274:	85b2                	mv	a1,a2
    4276:	00ca5a13          	srli	s4,s4,0xc
    427a:	01f6db13          	srli	s6,a3,0x1f
    427e:	ee071ae3          	bnez	a4,4172 <__muldf3+0x6e>
    4282:	00ca67b3          	or	a5,s4,a2
    4286:	c7a9                	beqz	a5,42d0 <__muldf3+0x1cc>
    4288:	220a0e63          	beqz	s4,44c4 <__muldf3+0x3c0>
    428c:	8552                	mv	a0,s4
    428e:	c432                	sw	a2,8(sp)
    4290:	2669                	jal	461a <__clzsi2>
    4292:	4622                	lw	a2,8(sp)
    4294:	872a                	mv	a4,a0
    4296:	ff550693          	addi	a3,a0,-11
    429a:	47f5                	li	a5,29
    429c:	ff870593          	addi	a1,a4,-8
    42a0:	8f95                	sub	a5,a5,a3
    42a2:	00ba1a33          	sll	s4,s4,a1
    42a6:	00f657b3          	srl	a5,a2,a5
    42aa:	0147e7b3          	or	a5,a5,s4
    42ae:	00b615b3          	sll	a1,a2,a1
    42b2:	40e90933          	sub	s2,s2,a4
    42b6:	c0d90913          	addi	s2,s2,-1011
    42ba:	4881                	li	a7,0
    42bc:	bdf1                	j	4198 <__muldf3+0x94>
    42be:	00a9e433          	or	s0,s3,a0
    42c2:	ec01                	bnez	s0,42da <__muldf3+0x1d6>
    42c4:	49a1                	li	s3,8
    42c6:	4481                	li	s1,0
    42c8:	7ff00913          	li	s2,2047
    42cc:	4b89                	li	s7,2
    42ce:	b569                	j	4158 <__muldf3+0x54>
    42d0:	0019e993          	ori	s3,s3,1
    42d4:	4581                	li	a1,0
    42d6:	4885                	li	a7,1
    42d8:	b5c1                	j	4198 <__muldf3+0x94>
    42da:	844e                	mv	s0,s3
    42dc:	84aa                	mv	s1,a0
    42de:	49b1                	li	s3,12
    42e0:	7ff00913          	li	s2,2047
    42e4:	4b8d                	li	s7,3
    42e6:	bd8d                	j	4158 <__muldf3+0x54>
    42e8:	4991                	li	s3,4
    42ea:	4481                	li	s1,0
    42ec:	4901                	li	s2,0
    42ee:	4b85                	li	s7,1
    42f0:	b5a5                	j	4158 <__muldf3+0x54>
    42f2:	0039e993          	ori	s3,s3,3
    42f6:	87d2                	mv	a5,s4
    42f8:	488d                	li	a7,3
    42fa:	bd79                	j	4198 <__muldf3+0x94>
    42fc:	4789                	li	a5,2
    42fe:	8556                	mv	a0,s5
    4300:	f0fb99e3          	bne	s7,a5,4212 <__muldf3+0x10e>
    4304:	872a                	mv	a4,a0
    4306:	7ff00793          	li	a5,2047
    430a:	4401                	li	s0,0
    430c:	4481                	li	s1,0
    430e:	bdc1                	j	41de <__muldf3+0xda>
    4310:	6ec1                	lui	t4,0x10
    4312:	fffe8613          	addi	a2,t4,-1 # ffff <_data_lma+0x6bfb>
    4316:	0104d693          	srli	a3,s1,0x10
    431a:	0105de13          	srli	t3,a1,0x10
    431e:	8cf1                	and	s1,s1,a2
    4320:	8df1                	and	a1,a1,a2
    4322:	02958633          	mul	a2,a1,s1
    4326:	02b68333          	mul	t1,a3,a1
    432a:	01065893          	srli	a7,a2,0x10
    432e:	029e0533          	mul	a0,t3,s1
    4332:	951a                	add	a0,a0,t1
    4334:	98aa                	add	a7,a7,a0
    4336:	03c682b3          	mul	t0,a3,t3
    433a:	0068f363          	bgeu	a7,t1,4340 <__muldf3+0x23c>
    433e:	92f6                	add	t0,t0,t4
    4340:	6fc1                	lui	t6,0x10
    4342:	ffff8313          	addi	t1,t6,-1 # ffff <_data_lma+0x6bfb>
    4346:	0067f533          	and	a0,a5,t1
    434a:	0107d393          	srli	t2,a5,0x10
    434e:	0068f7b3          	and	a5,a7,t1
    4352:	07c2                	slli	a5,a5,0x10
    4354:	00667333          	and	t1,a2,t1
    4358:	933e                	add	t1,t1,a5
    435a:	02950633          	mul	a2,a0,s1
    435e:	0108d893          	srli	a7,a7,0x10
    4362:	02a687b3          	mul	a5,a3,a0
    4366:	01065f13          	srli	t5,a2,0x10
    436a:	029384b3          	mul	s1,t2,s1
    436e:	94be                	add	s1,s1,a5
    4370:	94fa                	add	s1,s1,t5
    4372:	02768eb3          	mul	t4,a3,t2
    4376:	00f4f363          	bgeu	s1,a5,437c <__muldf3+0x278>
    437a:	9efe                	add	t4,t4,t6
    437c:	6a41                	lui	s4,0x10
    437e:	fffa0793          	addi	a5,s4,-1 # ffff <_data_lma+0x6bfb>
    4382:	01045f93          	srli	t6,s0,0x10
    4386:	00f476b3          	and	a3,s0,a5
    438a:	00f4f9b3          	and	s3,s1,a5
    438e:	8e7d                	and	a2,a2,a5
    4390:	80c1                	srli	s1,s1,0x10
    4392:	02d58433          	mul	s0,a1,a3
    4396:	09c2                	slli	s3,s3,0x10
    4398:	01d48f33          	add	t5,s1,t4
    439c:	99b2                	add	s3,s3,a2
    439e:	98ce                	add	a7,a7,s3
    43a0:	02de07b3          	mul	a5,t3,a3
    43a4:	01045e93          	srli	t4,s0,0x10
    43a8:	02bf85b3          	mul	a1,t6,a1
    43ac:	97ae                	add	a5,a5,a1
    43ae:	9ebe                	add	t4,t4,a5
    43b0:	03fe0e33          	mul	t3,t3,t6
    43b4:	00bef363          	bgeu	t4,a1,43ba <__muldf3+0x2b6>
    43b8:	9e52                	add	t3,t3,s4
    43ba:	67c1                	lui	a5,0x10
    43bc:	fff78593          	addi	a1,a5,-1 # ffff <_data_lma+0x6bfb>
    43c0:	00bef633          	and	a2,t4,a1
    43c4:	8c6d                	and	s0,s0,a1
    43c6:	0642                	slli	a2,a2,0x10
    43c8:	9622                	add	a2,a2,s0
    43ca:	010ede93          	srli	t4,t4,0x10
    43ce:	02d505b3          	mul	a1,a0,a3
    43d2:	9e76                	add	t3,t3,t4
    43d4:	02af8533          	mul	a0,t6,a0
    43d8:	0105d413          	srli	s0,a1,0x10
    43dc:	02d386b3          	mul	a3,t2,a3
    43e0:	96aa                	add	a3,a3,a0
    43e2:	96a2                	add	a3,a3,s0
    43e4:	03f38fb3          	mul	t6,t2,t6
    43e8:	00a6f363          	bgeu	a3,a0,43ee <__muldf3+0x2ea>
    43ec:	9fbe                	add	t6,t6,a5
    43ee:	6541                	lui	a0,0x10
    43f0:	157d                	addi	a0,a0,-1
    43f2:	00a6f7b3          	and	a5,a3,a0
    43f6:	07c2                	slli	a5,a5,0x10
    43f8:	8d6d                	and	a0,a0,a1
    43fa:	97aa                	add	a5,a5,a0
    43fc:	005885b3          	add	a1,a7,t0
    4400:	0135b9b3          	sltu	s3,a1,s3
    4404:	97fa                	add	a5,a5,t5
    4406:	95b2                	add	a1,a1,a2
    4408:	01378433          	add	s0,a5,s3
    440c:	00c5b633          	sltu	a2,a1,a2
    4410:	01c40eb3          	add	t4,s0,t3
    4414:	00ce8533          	add	a0,t4,a2
    4418:	01343433          	sltu	s0,s0,s3
    441c:	01e7b7b3          	sltu	a5,a5,t5
    4420:	8fc1                	or	a5,a5,s0
    4422:	01cebe33          	sltu	t3,t4,t3
    4426:	0106d413          	srli	s0,a3,0x10
    442a:	00c53633          	sltu	a2,a0,a2
    442e:	943e                	add	s0,s0,a5
    4430:	00ce6633          	or	a2,t3,a2
    4434:	00959493          	slli	s1,a1,0x9
    4438:	9432                	add	s0,s0,a2
    443a:	947e                	add	s0,s0,t6
    443c:	0064e4b3          	or	s1,s1,t1
    4440:	0426                	slli	s0,s0,0x9
    4442:	01755693          	srli	a3,a0,0x17
    4446:	009034b3          	snez	s1,s1
    444a:	81dd                	srli	a1,a1,0x17
    444c:	00951793          	slli	a5,a0,0x9
    4450:	8ccd                	or	s1,s1,a1
    4452:	8c55                	or	s0,s0,a3
    4454:	8cdd                	or	s1,s1,a5
    4456:	00741793          	slli	a5,s0,0x7
    445a:	0007db63          	bgez	a5,4470 <__muldf3+0x36c>
    445e:	0014d793          	srli	a5,s1,0x1
    4462:	8885                	andi	s1,s1,1
    4464:	01f41693          	slli	a3,s0,0x1f
    4468:	8cdd                	or	s1,s1,a5
    446a:	8cd5                	or	s1,s1,a3
    446c:	8005                	srli	s0,s0,0x1
    446e:	8942                	mv	s2,a6
    4470:	3ff90793          	addi	a5,s2,1023
    4474:	08f05763          	blez	a5,4502 <__muldf3+0x3fe>
    4478:	0074f693          	andi	a3,s1,7
    447c:	ce81                	beqz	a3,4494 <__muldf3+0x390>
    447e:	00f4f693          	andi	a3,s1,15
    4482:	4611                	li	a2,4
    4484:	00c68863          	beq	a3,a2,4494 <__muldf3+0x390>
    4488:	00448693          	addi	a3,s1,4
    448c:	0096b4b3          	sltu	s1,a3,s1
    4490:	9426                	add	s0,s0,s1
    4492:	84b6                	mv	s1,a3
    4494:	00741693          	slli	a3,s0,0x7
    4498:	0006d863          	bgez	a3,44a8 <__muldf3+0x3a4>
    449c:	ff0007b7          	lui	a5,0xff000
    44a0:	17fd                	addi	a5,a5,-1
    44a2:	8c7d                	and	s0,s0,a5
    44a4:	40090793          	addi	a5,s2,1024
    44a8:	7fe00693          	li	a3,2046
    44ac:	0ef6cd63          	blt	a3,a5,45a6 <__muldf3+0x4a2>
    44b0:	0034d693          	srli	a3,s1,0x3
    44b4:	01d41493          	slli	s1,s0,0x1d
    44b8:	0426                	slli	s0,s0,0x9
    44ba:	8cd5                	or	s1,s1,a3
    44bc:	8031                	srli	s0,s0,0xc
    44be:	7ff7f793          	andi	a5,a5,2047
    44c2:	bb31                	j	41de <__muldf3+0xda>
    44c4:	8532                	mv	a0,a2
    44c6:	c432                	sw	a2,8(sp)
    44c8:	2a89                	jal	461a <__clzsi2>
    44ca:	01550693          	addi	a3,a0,21 # 10015 <_data_lma+0x6c11>
    44ce:	47f1                	li	a5,28
    44d0:	02050713          	addi	a4,a0,32
    44d4:	4622                	lw	a2,8(sp)
    44d6:	dcd7d2e3          	bge	a5,a3,429a <__muldf3+0x196>
    44da:	1561                	addi	a0,a0,-8
    44dc:	00a617b3          	sll	a5,a2,a0
    44e0:	4581                	li	a1,0
    44e2:	bbc1                	j	42b2 <__muldf3+0x1ae>
    44e4:	2a1d                	jal	461a <__clzsi2>
    44e6:	01550713          	addi	a4,a0,21
    44ea:	45f1                	li	a1,28
    44ec:	02050793          	addi	a5,a0,32
    44f0:	4622                	lw	a2,8(sp)
    44f2:	46b2                	lw	a3,12(sp)
    44f4:	d4e5d8e3          	bge	a1,a4,4244 <__muldf3+0x140>
    44f8:	1561                	addi	a0,a0,-8
    44fa:	00aa1433          	sll	s0,s4,a0
    44fe:	4481                	li	s1,0
    4500:	bbb1                	j	425c <__muldf3+0x158>
    4502:	4685                	li	a3,1
    4504:	8e9d                	sub	a3,a3,a5
    4506:	e7b1                	bnez	a5,4552 <__muldf3+0x44e>
    4508:	41e90913          	addi	s2,s2,1054
    450c:	012497b3          	sll	a5,s1,s2
    4510:	00d4d4b3          	srl	s1,s1,a3
    4514:	01241933          	sll	s2,s0,s2
    4518:	00f037b3          	snez	a5,a5
    451c:	009964b3          	or	s1,s2,s1
    4520:	8cdd                	or	s1,s1,a5
    4522:	0074f793          	andi	a5,s1,7
    4526:	00d456b3          	srl	a3,s0,a3
    452a:	cf81                	beqz	a5,4542 <__muldf3+0x43e>
    452c:	00f4f793          	andi	a5,s1,15
    4530:	4611                	li	a2,4
    4532:	00c78863          	beq	a5,a2,4542 <__muldf3+0x43e>
    4536:	00448793          	addi	a5,s1,4
    453a:	0097b4b3          	sltu	s1,a5,s1
    453e:	96a6                	add	a3,a3,s1
    4540:	84be                	mv	s1,a5
    4542:	00869793          	slli	a5,a3,0x8
    4546:	0407d863          	bgez	a5,4596 <__muldf3+0x492>
    454a:	4785                	li	a5,1
    454c:	4401                	li	s0,0
    454e:	4481                	li	s1,0
    4550:	b179                	j	41de <__muldf3+0xda>
    4552:	03800613          	li	a2,56
    4556:	ccd645e3          	blt	a2,a3,4220 <__muldf3+0x11c>
    455a:	467d                	li	a2,31
    455c:	fad656e3          	bge	a2,a3,4508 <__muldf3+0x404>
    4560:	5605                	li	a2,-31
    4562:	40f607b3          	sub	a5,a2,a5
    4566:	02000593          	li	a1,32
    456a:	00f45633          	srl	a2,s0,a5
    456e:	00b68763          	beq	a3,a1,457c <__muldf3+0x478>
    4572:	43e90913          	addi	s2,s2,1086
    4576:	012417b3          	sll	a5,s0,s2
    457a:	8cdd                	or	s1,s1,a5
    457c:	009034b3          	snez	s1,s1
    4580:	8cd1                	or	s1,s1,a2
    4582:	0074f693          	andi	a3,s1,7
    4586:	4401                	li	s0,0
    4588:	ca99                	beqz	a3,459e <__muldf3+0x49a>
    458a:	00f4f793          	andi	a5,s1,15
    458e:	4611                	li	a2,4
    4590:	4681                	li	a3,0
    4592:	fac792e3          	bne	a5,a2,4536 <__muldf3+0x432>
    4596:	00969413          	slli	s0,a3,0x9
    459a:	8031                	srli	s0,s0,0xc
    459c:	06f6                	slli	a3,a3,0x1d
    459e:	808d                	srli	s1,s1,0x3
    45a0:	8cd5                	or	s1,s1,a3
    45a2:	4781                	li	a5,0
    45a4:	b92d                	j	41de <__muldf3+0xda>
    45a6:	7ff00793          	li	a5,2047
    45aa:	4401                	li	s0,0
    45ac:	4481                	li	s1,0
    45ae:	b905                	j	41de <__muldf3+0xda>
    45b0:	8942                	mv	s2,a6
    45b2:	bd7d                	j	4470 <__muldf3+0x36c>

000045b4 <__floatunsidf>:
    45b4:	cd15                	beqz	a0,45f0 <__floatunsidf+0x3c>
    45b6:	1141                	addi	sp,sp,-16
    45b8:	c422                	sw	s0,8(sp)
    45ba:	c606                	sw	ra,12(sp)
    45bc:	842a                	mv	s0,a0
    45be:	28b1                	jal	461a <__clzsi2>
    45c0:	41e00693          	li	a3,1054
    45c4:	8e89                	sub	a3,a3,a0
    45c6:	47a9                	li	a5,10
    45c8:	7ff6f693          	andi	a3,a3,2047
    45cc:	02a7dc63          	bge	a5,a0,4604 <__floatunsidf+0x50>
    45d0:	1555                	addi	a0,a0,-11
    45d2:	00a417b3          	sll	a5,s0,a0
    45d6:	07b2                	slli	a5,a5,0xc
    45d8:	83b1                	srli	a5,a5,0xc
    45da:	4701                	li	a4,0
    45dc:	40b2                	lw	ra,12(sp)
    45de:	4422                	lw	s0,8(sp)
    45e0:	07b2                	slli	a5,a5,0xc
    45e2:	06d2                	slli	a3,a3,0x14
    45e4:	83b1                	srli	a5,a5,0xc
    45e6:	8fd5                	or	a5,a5,a3
    45e8:	853a                	mv	a0,a4
    45ea:	85be                	mv	a1,a5
    45ec:	0141                	addi	sp,sp,16
    45ee:	8082                	ret
    45f0:	4781                	li	a5,0
    45f2:	4681                	li	a3,0
    45f4:	07b2                	slli	a5,a5,0xc
    45f6:	06d2                	slli	a3,a3,0x14
    45f8:	83b1                	srli	a5,a5,0xc
    45fa:	4701                	li	a4,0
    45fc:	8fd5                	or	a5,a5,a3
    45fe:	853a                	mv	a0,a4
    4600:	85be                	mv	a1,a5
    4602:	8082                	ret
    4604:	472d                	li	a4,11
    4606:	8f09                	sub	a4,a4,a0
    4608:	00e457b3          	srl	a5,s0,a4
    460c:	07b2                	slli	a5,a5,0xc
    460e:	01550713          	addi	a4,a0,21
    4612:	00e41733          	sll	a4,s0,a4
    4616:	83b1                	srli	a5,a5,0xc
    4618:	b7d1                	j	45dc <__floatunsidf+0x28>

0000461a <__clzsi2>:
    461a:	67c1                	lui	a5,0x10
    461c:	02f57e63          	bgeu	a0,a5,4658 <__clzsi2+0x3e>
    4620:	0ff00793          	li	a5,255
    4624:	02000713          	li	a4,32
    4628:	00a7ec63          	bltu	a5,a0,4640 <__clzsi2+0x26>
    462c:	00005797          	auipc	a5,0x5
    4630:	9bc78793          	addi	a5,a5,-1604 # 8fe8 <__clz_tab>
    4634:	97aa                	add	a5,a5,a0
    4636:	0007c503          	lbu	a0,0(a5)
    463a:	40a70533          	sub	a0,a4,a0
    463e:	8082                	ret
    4640:	8121                	srli	a0,a0,0x8
    4642:	00005797          	auipc	a5,0x5
    4646:	9a678793          	addi	a5,a5,-1626 # 8fe8 <__clz_tab>
    464a:	97aa                	add	a5,a5,a0
    464c:	0007c503          	lbu	a0,0(a5)
    4650:	4761                	li	a4,24
    4652:	40a70533          	sub	a0,a4,a0
    4656:	8082                	ret
    4658:	010007b7          	lui	a5,0x1000
    465c:	00f56e63          	bltu	a0,a5,4678 <__clzsi2+0x5e>
    4660:	8161                	srli	a0,a0,0x18
    4662:	00005797          	auipc	a5,0x5
    4666:	98678793          	addi	a5,a5,-1658 # 8fe8 <__clz_tab>
    466a:	97aa                	add	a5,a5,a0
    466c:	0007c503          	lbu	a0,0(a5)
    4670:	4721                	li	a4,8
    4672:	40a70533          	sub	a0,a4,a0
    4676:	8082                	ret
    4678:	8141                	srli	a0,a0,0x10
    467a:	00005797          	auipc	a5,0x5
    467e:	96e78793          	addi	a5,a5,-1682 # 8fe8 <__clz_tab>
    4682:	97aa                	add	a5,a5,a0
    4684:	0007c503          	lbu	a0,0(a5)
    4688:	4741                	li	a4,16
    468a:	40a70533          	sub	a0,a4,a0
    468e:	8082                	ret

00004690 <atoi>:
    4690:	4629                	li	a2,10
    4692:	4581                	li	a1,0
    4694:	7010006f          	j	5594 <strtol>

00004698 <malloc>:
    4698:	1fffc797          	auipc	a5,0x1fffc
    469c:	49478793          	addi	a5,a5,1172 # 20000b2c <_impure_ptr>
    46a0:	85aa                	mv	a1,a0
    46a2:	4388                	lw	a0,0(a5)
    46a4:	a2bd                	j	4812 <_malloc_r>

000046a6 <free>:
    46a6:	1fffc797          	auipc	a5,0x1fffc
    46aa:	48678793          	addi	a5,a5,1158 # 20000b2c <_impure_ptr>
    46ae:	85aa                	mv	a1,a0
    46b0:	4388                	lw	a0,0(a5)
    46b2:	a865                	j	476a <_free_r>

000046b4 <memcpy>:
    46b4:	00a5c7b3          	xor	a5,a1,a0
    46b8:	8b8d                	andi	a5,a5,3
    46ba:	00c50733          	add	a4,a0,a2
    46be:	e781                	bnez	a5,46c6 <memcpy+0x12>
    46c0:	478d                	li	a5,3
    46c2:	00c7ee63          	bltu	a5,a2,46de <memcpy+0x2a>
    46c6:	87aa                	mv	a5,a0
    46c8:	0ae57063          	bgeu	a0,a4,4768 <memcpy+0xb4>
    46cc:	0005c683          	lbu	a3,0(a1) # 10000 <_data_lma+0x6bfc>
    46d0:	0785                	addi	a5,a5,1
    46d2:	0585                	addi	a1,a1,1
    46d4:	fed78fa3          	sb	a3,-1(a5)
    46d8:	fee7eae3          	bltu	a5,a4,46cc <memcpy+0x18>
    46dc:	8082                	ret
    46de:	00357693          	andi	a3,a0,3
    46e2:	87aa                	mv	a5,a0
    46e4:	ca91                	beqz	a3,46f8 <memcpy+0x44>
    46e6:	0005c683          	lbu	a3,0(a1)
    46ea:	0785                	addi	a5,a5,1
    46ec:	0585                	addi	a1,a1,1
    46ee:	fed78fa3          	sb	a3,-1(a5)
    46f2:	0037f693          	andi	a3,a5,3
    46f6:	b7fd                	j	46e4 <memcpy+0x30>
    46f8:	ffc77693          	andi	a3,a4,-4
    46fc:	fe068613          	addi	a2,a3,-32
    4700:	06c7f063          	bgeu	a5,a2,4760 <memcpy+0xac>
    4704:	0005a383          	lw	t2,0(a1)
    4708:	0045a283          	lw	t0,4(a1)
    470c:	0085af83          	lw	t6,8(a1)
    4710:	00c5af03          	lw	t5,12(a1)
    4714:	0105ae83          	lw	t4,16(a1)
    4718:	0145ae03          	lw	t3,20(a1)
    471c:	0185a303          	lw	t1,24(a1)
    4720:	01c5a883          	lw	a7,28(a1)
    4724:	02458593          	addi	a1,a1,36
    4728:	0077a023          	sw	t2,0(a5)
    472c:	ffc5a803          	lw	a6,-4(a1)
    4730:	0057a223          	sw	t0,4(a5)
    4734:	01f7a423          	sw	t6,8(a5)
    4738:	01e7a623          	sw	t5,12(a5)
    473c:	01d7a823          	sw	t4,16(a5)
    4740:	01c7aa23          	sw	t3,20(a5)
    4744:	0067ac23          	sw	t1,24(a5)
    4748:	0117ae23          	sw	a7,28(a5)
    474c:	02478793          	addi	a5,a5,36
    4750:	ff07ae23          	sw	a6,-4(a5)
    4754:	b775                	j	4700 <memcpy+0x4c>
    4756:	4190                	lw	a2,0(a1)
    4758:	0791                	addi	a5,a5,4
    475a:	0591                	addi	a1,a1,4
    475c:	fec7ae23          	sw	a2,-4(a5)
    4760:	fed7ebe3          	bltu	a5,a3,4756 <memcpy+0xa2>
    4764:	f6e7e4e3          	bltu	a5,a4,46cc <memcpy+0x18>
    4768:	8082                	ret

0000476a <_free_r>:
    476a:	c1dd                	beqz	a1,4810 <_free_r+0xa6>
    476c:	ffc5a783          	lw	a5,-4(a1)
    4770:	1141                	addi	sp,sp,-16
    4772:	c422                	sw	s0,8(sp)
    4774:	c606                	sw	ra,12(sp)
    4776:	c226                	sw	s1,4(sp)
    4778:	ffc58413          	addi	s0,a1,-4
    477c:	0007d363          	bgez	a5,4782 <_free_r+0x18>
    4780:	943e                	add	s0,s0,a5
    4782:	84aa                	mv	s1,a0
    4784:	5ad010ef          	jal	ra,6530 <__malloc_lock>
    4788:	82818793          	addi	a5,gp,-2008 # 20000b50 <__malloc_free_list>
    478c:	439c                	lw	a5,0(a5)
    478e:	ef81                	bnez	a5,47a6 <_free_r+0x3c>
    4790:	00042223          	sw	zero,4(s0) # 80004 <_data_lma+0x76c00>
    4794:	8281a423          	sw	s0,-2008(gp) # 20000b50 <__malloc_free_list>
    4798:	4422                	lw	s0,8(sp)
    479a:	40b2                	lw	ra,12(sp)
    479c:	8526                	mv	a0,s1
    479e:	4492                	lw	s1,4(sp)
    47a0:	0141                	addi	sp,sp,16
    47a2:	5910106f          	j	6532 <__malloc_unlock>
    47a6:	00f47e63          	bgeu	s0,a5,47c2 <_free_r+0x58>
    47aa:	4014                	lw	a3,0(s0)
    47ac:	00d40733          	add	a4,s0,a3
    47b0:	00e79663          	bne	a5,a4,47bc <_free_r+0x52>
    47b4:	4398                	lw	a4,0(a5)
    47b6:	43dc                	lw	a5,4(a5)
    47b8:	9736                	add	a4,a4,a3
    47ba:	c018                	sw	a4,0(s0)
    47bc:	c05c                	sw	a5,4(s0)
    47be:	bfd9                	j	4794 <_free_r+0x2a>
    47c0:	87ba                	mv	a5,a4
    47c2:	43d8                	lw	a4,4(a5)
    47c4:	c319                	beqz	a4,47ca <_free_r+0x60>
    47c6:	fee47de3          	bgeu	s0,a4,47c0 <_free_r+0x56>
    47ca:	4394                	lw	a3,0(a5)
    47cc:	00d78633          	add	a2,a5,a3
    47d0:	00861f63          	bne	a2,s0,47ee <_free_r+0x84>
    47d4:	4010                	lw	a2,0(s0)
    47d6:	96b2                	add	a3,a3,a2
    47d8:	c394                	sw	a3,0(a5)
    47da:	00d78633          	add	a2,a5,a3
    47de:	fac71de3          	bne	a4,a2,4798 <_free_r+0x2e>
    47e2:	4310                	lw	a2,0(a4)
    47e4:	4358                	lw	a4,4(a4)
    47e6:	96b2                	add	a3,a3,a2
    47e8:	c394                	sw	a3,0(a5)
    47ea:	c3d8                	sw	a4,4(a5)
    47ec:	b775                	j	4798 <_free_r+0x2e>
    47ee:	00c47563          	bgeu	s0,a2,47f8 <_free_r+0x8e>
    47f2:	47b1                	li	a5,12
    47f4:	c09c                	sw	a5,0(s1)
    47f6:	b74d                	j	4798 <_free_r+0x2e>
    47f8:	4010                	lw	a2,0(s0)
    47fa:	00c406b3          	add	a3,s0,a2
    47fe:	00d71663          	bne	a4,a3,480a <_free_r+0xa0>
    4802:	4314                	lw	a3,0(a4)
    4804:	4358                	lw	a4,4(a4)
    4806:	96b2                	add	a3,a3,a2
    4808:	c014                	sw	a3,0(s0)
    480a:	c058                	sw	a4,4(s0)
    480c:	c3c0                	sw	s0,4(a5)
    480e:	b769                	j	4798 <_free_r+0x2e>
    4810:	8082                	ret

00004812 <_malloc_r>:
    4812:	1101                	addi	sp,sp,-32
    4814:	ca26                	sw	s1,20(sp)
    4816:	00358493          	addi	s1,a1,3
    481a:	98f1                	andi	s1,s1,-4
    481c:	ce06                	sw	ra,28(sp)
    481e:	cc22                	sw	s0,24(sp)
    4820:	c84a                	sw	s2,16(sp)
    4822:	c64e                	sw	s3,12(sp)
    4824:	04a1                	addi	s1,s1,8
    4826:	47b1                	li	a5,12
    4828:	04f4f563          	bgeu	s1,a5,4872 <_malloc_r+0x60>
    482c:	44b1                	li	s1,12
    482e:	04b4e463          	bltu	s1,a1,4876 <_malloc_r+0x64>
    4832:	892a                	mv	s2,a0
    4834:	4fd010ef          	jal	ra,6530 <__malloc_lock>
    4838:	82818793          	addi	a5,gp,-2008 # 20000b50 <__malloc_free_list>
    483c:	4398                	lw	a4,0(a5)
    483e:	843a                	mv	s0,a4
    4840:	e429                	bnez	s0,488a <_malloc_r+0x78>
    4842:	82c18793          	addi	a5,gp,-2004 # 20000b54 <__malloc_sbrk_start>
    4846:	439c                	lw	a5,0(a5)
    4848:	e799                	bnez	a5,4856 <_malloc_r+0x44>
    484a:	4581                	li	a1,0
    484c:	854a                	mv	a0,s2
    484e:	295000ef          	jal	ra,52e2 <_sbrk_r>
    4852:	82a1a623          	sw	a0,-2004(gp) # 20000b54 <__malloc_sbrk_start>
    4856:	85a6                	mv	a1,s1
    4858:	854a                	mv	a0,s2
    485a:	289000ef          	jal	ra,52e2 <_sbrk_r>
    485e:	59fd                	li	s3,-1
    4860:	07351963          	bne	a0,s3,48d2 <_malloc_r+0xc0>
    4864:	47b1                	li	a5,12
    4866:	00f92023          	sw	a5,0(s2)
    486a:	854a                	mv	a0,s2
    486c:	4c7010ef          	jal	ra,6532 <__malloc_unlock>
    4870:	a029                	j	487a <_malloc_r+0x68>
    4872:	fa04dee3          	bgez	s1,482e <_malloc_r+0x1c>
    4876:	47b1                	li	a5,12
    4878:	c11c                	sw	a5,0(a0)
    487a:	4501                	li	a0,0
    487c:	40f2                	lw	ra,28(sp)
    487e:	4462                	lw	s0,24(sp)
    4880:	44d2                	lw	s1,20(sp)
    4882:	4942                	lw	s2,16(sp)
    4884:	49b2                	lw	s3,12(sp)
    4886:	6105                	addi	sp,sp,32
    4888:	8082                	ret
    488a:	401c                	lw	a5,0(s0)
    488c:	8f85                	sub	a5,a5,s1
    488e:	0207cf63          	bltz	a5,48cc <_malloc_r+0xba>
    4892:	46ad                	li	a3,11
    4894:	00f6f663          	bgeu	a3,a5,48a0 <_malloc_r+0x8e>
    4898:	c01c                	sw	a5,0(s0)
    489a:	943e                	add	s0,s0,a5
    489c:	c004                	sw	s1,0(s0)
    489e:	a031                	j	48aa <_malloc_r+0x98>
    48a0:	405c                	lw	a5,4(s0)
    48a2:	02871363          	bne	a4,s0,48c8 <_malloc_r+0xb6>
    48a6:	82f1a423          	sw	a5,-2008(gp) # 20000b50 <__malloc_free_list>
    48aa:	854a                	mv	a0,s2
    48ac:	487010ef          	jal	ra,6532 <__malloc_unlock>
    48b0:	00b40513          	addi	a0,s0,11
    48b4:	00440793          	addi	a5,s0,4
    48b8:	9961                	andi	a0,a0,-8
    48ba:	40f50733          	sub	a4,a0,a5
    48be:	df5d                	beqz	a4,487c <_malloc_r+0x6a>
    48c0:	943a                	add	s0,s0,a4
    48c2:	8f89                	sub	a5,a5,a0
    48c4:	c01c                	sw	a5,0(s0)
    48c6:	bf5d                	j	487c <_malloc_r+0x6a>
    48c8:	c35c                	sw	a5,4(a4)
    48ca:	b7c5                	j	48aa <_malloc_r+0x98>
    48cc:	8722                	mv	a4,s0
    48ce:	4040                	lw	s0,4(s0)
    48d0:	bf85                	j	4840 <_malloc_r+0x2e>
    48d2:	00350413          	addi	s0,a0,3
    48d6:	9871                	andi	s0,s0,-4
    48d8:	fc8502e3          	beq	a0,s0,489c <_malloc_r+0x8a>
    48dc:	40a405b3          	sub	a1,s0,a0
    48e0:	854a                	mv	a0,s2
    48e2:	201000ef          	jal	ra,52e2 <_sbrk_r>
    48e6:	fb351be3          	bne	a0,s3,489c <_malloc_r+0x8a>
    48ea:	bfad                	j	4864 <_malloc_r+0x52>

000048ec <__cvt>:
    48ec:	7179                	addi	sp,sp,-48
    48ee:	d422                	sw	s0,40(sp)
    48f0:	d04a                	sw	s2,32(sp)
    48f2:	cc52                	sw	s4,24(sp)
    48f4:	ca56                	sw	s5,20(sp)
    48f6:	c85a                	sw	s6,16(sp)
    48f8:	d606                	sw	ra,44(sp)
    48fa:	d226                	sw	s1,36(sp)
    48fc:	ce4e                	sw	s3,28(sp)
    48fe:	8a3a                	mv	s4,a4
    4900:	8aae                	mv	s5,a1
    4902:	8432                	mv	s0,a2
    4904:	8936                	mv	s2,a3
    4906:	8b42                	mv	s6,a6
    4908:	4701                	li	a4,0
    490a:	00065863          	bgez	a2,491a <__cvt+0x2e>
    490e:	80000737          	lui	a4,0x80000
    4912:	00c74433          	xor	s0,a4,a2
    4916:	02d00713          	li	a4,45
    491a:	00e78023          	sb	a4,0(a5)
    491e:	fdf8f493          	andi	s1,a7,-33
    4922:	04600793          	li	a5,70
    4926:	468d                	li	a3,3
    4928:	00f48863          	beq	s1,a5,4938 <__cvt+0x4c>
    492c:	04500793          	li	a5,69
    4930:	4689                	li	a3,2
    4932:	00f49363          	bne	s1,a5,4938 <__cvt+0x4c>
    4936:	0905                	addi	s2,s2,1
    4938:	87da                	mv	a5,s6
    493a:	00c10893          	addi	a7,sp,12
    493e:	00810813          	addi	a6,sp,8
    4942:	874a                	mv	a4,s2
    4944:	85d6                	mv	a1,s5
    4946:	8622                	mv	a2,s0
    4948:	779000ef          	jal	ra,58c0 <_dtoa_r>
    494c:	04700793          	li	a5,71
    4950:	89aa                	mv	s3,a0
    4952:	00f49663          	bne	s1,a5,495e <__cvt+0x72>
    4956:	001a7a13          	andi	s4,s4,1
    495a:	040a0a63          	beqz	s4,49ae <__cvt+0xc2>
    495e:	04600793          	li	a5,70
    4962:	01298a33          	add	s4,s3,s2
    4966:	02f49763          	bne	s1,a5,4994 <__cvt+0xa8>
    496a:	0009c703          	lbu	a4,0(s3)
    496e:	03000793          	li	a5,48
    4972:	00f71e63          	bne	a4,a5,498e <__cvt+0xa2>
    4976:	4601                	li	a2,0
    4978:	4681                	li	a3,0
    497a:	8556                	mv	a0,s5
    497c:	85a2                	mv	a1,s0
    497e:	645020ef          	jal	ra,77c2 <__eqdf2>
    4982:	c511                	beqz	a0,498e <__cvt+0xa2>
    4984:	4785                	li	a5,1
    4986:	41278933          	sub	s2,a5,s2
    498a:	012b2023          	sw	s2,0(s6)
    498e:	000b2783          	lw	a5,0(s6)
    4992:	9a3e                	add	s4,s4,a5
    4994:	4601                	li	a2,0
    4996:	4681                	li	a3,0
    4998:	8556                	mv	a0,s5
    499a:	85a2                	mv	a1,s0
    499c:	627020ef          	jal	ra,77c2 <__eqdf2>
    49a0:	e111                	bnez	a0,49a4 <__cvt+0xb8>
    49a2:	c652                	sw	s4,12(sp)
    49a4:	03000713          	li	a4,48
    49a8:	47b2                	lw	a5,12(sp)
    49aa:	0347e263          	bltu	a5,s4,49ce <__cvt+0xe2>
    49ae:	47b2                	lw	a5,12(sp)
    49b0:	5742                	lw	a4,48(sp)
    49b2:	50b2                	lw	ra,44(sp)
    49b4:	5422                	lw	s0,40(sp)
    49b6:	413787b3          	sub	a5,a5,s3
    49ba:	c31c                	sw	a5,0(a4)
    49bc:	854e                	mv	a0,s3
    49be:	5492                	lw	s1,36(sp)
    49c0:	5902                	lw	s2,32(sp)
    49c2:	49f2                	lw	s3,28(sp)
    49c4:	4a62                	lw	s4,24(sp)
    49c6:	4ad2                	lw	s5,20(sp)
    49c8:	4b42                	lw	s6,16(sp)
    49ca:	6145                	addi	sp,sp,48
    49cc:	8082                	ret
    49ce:	00178693          	addi	a3,a5,1
    49d2:	c636                	sw	a3,12(sp)
    49d4:	00e78023          	sb	a4,0(a5)
    49d8:	bfc1                	j	49a8 <__cvt+0xbc>

000049da <__exponent>:
    49da:	00c50023          	sb	a2,0(a0)
    49de:	00250713          	addi	a4,a0,2
    49e2:	02b00793          	li	a5,43
    49e6:	0005d663          	bgez	a1,49f2 <__exponent+0x18>
    49ea:	40b005b3          	neg	a1,a1
    49ee:	02d00793          	li	a5,45
    49f2:	00f500a3          	sb	a5,1(a0)
    49f6:	47a5                	li	a5,9
    49f8:	04b7da63          	bge	a5,a1,4a4c <__exponent+0x72>
    49fc:	1141                	addi	sp,sp,-16
    49fe:	00f10793          	addi	a5,sp,15
    4a02:	88be                	mv	a7,a5
    4a04:	4829                	li	a6,10
    4a06:	06300313          	li	t1,99
    4a0a:	0305e6b3          	rem	a3,a1,a6
    4a0e:	fff78613          	addi	a2,a5,-1
    4a12:	03068693          	addi	a3,a3,48
    4a16:	fed78fa3          	sb	a3,-1(a5)
    4a1a:	0305c6b3          	div	a3,a1,a6
    4a1e:	00b34d63          	blt	t1,a1,4a38 <__exponent+0x5e>
    4a22:	03068693          	addi	a3,a3,48
    4a26:	17f9                	addi	a5,a5,-2
    4a28:	fed60fa3          	sb	a3,-1(a2)
    4a2c:	0117e963          	bltu	a5,a7,4a3e <__exponent+0x64>
    4a30:	40a70533          	sub	a0,a4,a0
    4a34:	0141                	addi	sp,sp,16
    4a36:	8082                	ret
    4a38:	87b2                	mv	a5,a2
    4a3a:	85b6                	mv	a1,a3
    4a3c:	b7f9                	j	4a0a <__exponent+0x30>
    4a3e:	0785                	addi	a5,a5,1
    4a40:	fff7c683          	lbu	a3,-1(a5)
    4a44:	0705                	addi	a4,a4,1
    4a46:	fed70fa3          	sb	a3,-1(a4) # 7fffffff <_eusrstack+0x5fff7fff>
    4a4a:	b7cd                	j	4a2c <__exponent+0x52>
    4a4c:	03000793          	li	a5,48
    4a50:	00450713          	addi	a4,a0,4
    4a54:	03058593          	addi	a1,a1,48
    4a58:	00f50123          	sb	a5,2(a0)
    4a5c:	00b501a3          	sb	a1,3(a0)
    4a60:	40a70533          	sub	a0,a4,a0
    4a64:	8082                	ret

00004a66 <_printf_float>:
    4a66:	7119                	addi	sp,sp,-128
    4a68:	ce3a                	sw	a4,28(sp)
    4a6a:	de86                	sw	ra,124(sp)
    4a6c:	dca2                	sw	s0,120(sp)
    4a6e:	daa6                	sw	s1,116(sp)
    4a70:	842e                	mv	s0,a1
    4a72:	d8ca                	sw	s2,112(sp)
    4a74:	d6ce                	sw	s3,108(sp)
    4a76:	d4d2                	sw	s4,104(sp)
    4a78:	89b6                	mv	s3,a3
    4a7a:	d0da                	sw	s6,96(sp)
    4a7c:	cede                	sw	s7,92(sp)
    4a7e:	cce2                	sw	s8,88(sp)
    4a80:	8932                	mv	s2,a2
    4a82:	d2d6                	sw	s5,100(sp)
    4a84:	cae6                	sw	s9,84(sp)
    4a86:	c8ea                	sw	s10,80(sp)
    4a88:	c6ee                	sw	s11,76(sp)
    4a8a:	84aa                	mv	s1,a0
    4a8c:	235010ef          	jal	ra,64c0 <_localeconv_r>
    4a90:	00052b83          	lw	s7,0(a0)
    4a94:	855e                	mv	a0,s7
    4a96:	147000ef          	jal	ra,53dc <strlen>
    4a9a:	00042b03          	lw	s6,0(s0)
    4a9e:	4772                	lw	a4,28(sp)
    4aa0:	dc02                	sw	zero,56(sp)
    4aa2:	100b7693          	andi	a3,s6,256
    4aa6:	8c2a                	mv	s8,a0
    4aa8:	01844a03          	lbu	s4,24(s0)
    4aac:	431c                	lw	a5,0(a4)
    4aae:	caf1                	beqz	a3,4b82 <_printf_float+0x11c>
    4ab0:	00478693          	addi	a3,a5,4
    4ab4:	c314                	sw	a3,0(a4)
    4ab6:	439c                	lw	a5,0(a5)
    4ab8:	1008                	addi	a0,sp,32
    4aba:	4398                	lw	a4,0(a5)
    4abc:	d03a                	sw	a4,32(sp)
    4abe:	43d8                	lw	a4,4(a5)
    4ac0:	d23a                	sw	a4,36(sp)
    4ac2:	4798                	lw	a4,8(a5)
    4ac4:	d43a                	sw	a4,40(sp)
    4ac6:	47dc                	lw	a5,12(a5)
    4ac8:	d63e                	sw	a5,44(sp)
    4aca:	71a030ef          	jal	ra,81e4 <__trunctfdf2>
    4ace:	c428                	sw	a0,72(s0)
    4ad0:	c46c                	sw	a1,76(s0)
    4ad2:	04c42c83          	lw	s9,76(s0)
    4ad6:	00004717          	auipc	a4,0x4
    4ada:	61270713          	addi	a4,a4,1554 # 90e8 <__clz_tab+0x100>
    4ade:	04842a83          	lw	s5,72(s0)
    4ae2:	00072d03          	lw	s10,0(a4)
    4ae6:	00472d83          	lw	s11,4(a4)
    4aea:	001c9793          	slli	a5,s9,0x1
    4aee:	8385                	srli	a5,a5,0x1
    4af0:	866a                	mv	a2,s10
    4af2:	86ee                	mv	a3,s11
    4af4:	8556                	mv	a0,s5
    4af6:	85be                	mv	a1,a5
    4af8:	ce3e                	sw	a5,28(sp)
    4afa:	5d4030ef          	jal	ra,80ce <__unorddf2>
    4afe:	ed41                	bnez	a0,4b96 <_printf_float+0x130>
    4b00:	47f2                	lw	a5,28(sp)
    4b02:	866a                	mv	a2,s10
    4b04:	86ee                	mv	a3,s11
    4b06:	8556                	mv	a0,s5
    4b08:	85be                	mv	a1,a5
    4b0a:	5d1020ef          	jal	ra,78da <__ledf2>
    4b0e:	08a05463          	blez	a0,4b96 <_printf_float+0x130>
    4b12:	4601                	li	a2,0
    4b14:	4681                	li	a3,0
    4b16:	8556                	mv	a0,s5
    4b18:	85e6                	mv	a1,s9
    4b1a:	5c1020ef          	jal	ra,78da <__ledf2>
    4b1e:	00055663          	bgez	a0,4b2a <_printf_float+0xc4>
    4b22:	02d00793          	li	a5,45
    4b26:	04f401a3          	sb	a5,67(s0)
    4b2a:	04700793          	li	a5,71
    4b2e:	00004a97          	auipc	s5,0x4
    4b32:	5c2a8a93          	addi	s5,s5,1474 # 90f0 <__clz_tab+0x108>
    4b36:	0147f663          	bgeu	a5,s4,4b42 <_printf_float+0xdc>
    4b3a:	00004a97          	auipc	s5,0x4
    4b3e:	5baa8a93          	addi	s5,s5,1466 # 90f4 <__clz_tab+0x10c>
    4b42:	ffbb7b13          	andi	s6,s6,-5
    4b46:	478d                	li	a5,3
    4b48:	01642023          	sw	s6,0(s0)
    4b4c:	c81c                	sw	a5,16(s0)
    4b4e:	4b01                	li	s6,0
    4b50:	874e                	mv	a4,s3
    4b52:	86ca                	mv	a3,s2
    4b54:	1870                	addi	a2,sp,60
    4b56:	85a2                	mv	a1,s0
    4b58:	8526                	mv	a0,s1
    4b5a:	2ec1                	jal	4f2a <_printf_common>
    4b5c:	5cfd                	li	s9,-1
    4b5e:	15951e63          	bne	a0,s9,4cba <_printf_float+0x254>
    4b62:	557d                	li	a0,-1
    4b64:	50f6                	lw	ra,124(sp)
    4b66:	5466                	lw	s0,120(sp)
    4b68:	54d6                	lw	s1,116(sp)
    4b6a:	5946                	lw	s2,112(sp)
    4b6c:	59b6                	lw	s3,108(sp)
    4b6e:	5a26                	lw	s4,104(sp)
    4b70:	5a96                	lw	s5,100(sp)
    4b72:	5b06                	lw	s6,96(sp)
    4b74:	4bf6                	lw	s7,92(sp)
    4b76:	4c66                	lw	s8,88(sp)
    4b78:	4cd6                	lw	s9,84(sp)
    4b7a:	4d46                	lw	s10,80(sp)
    4b7c:	4db6                	lw	s11,76(sp)
    4b7e:	6109                	addi	sp,sp,128
    4b80:	8082                	ret
    4b82:	079d                	addi	a5,a5,7
    4b84:	9be1                	andi	a5,a5,-8
    4b86:	00878693          	addi	a3,a5,8
    4b8a:	c314                	sw	a3,0(a4)
    4b8c:	4398                	lw	a4,0(a5)
    4b8e:	43dc                	lw	a5,4(a5)
    4b90:	c438                	sw	a4,72(s0)
    4b92:	c47c                	sw	a5,76(s0)
    4b94:	bf3d                	j	4ad2 <_printf_float+0x6c>
    4b96:	8656                	mv	a2,s5
    4b98:	86e6                	mv	a3,s9
    4b9a:	8556                	mv	a0,s5
    4b9c:	85e6                	mv	a1,s9
    4b9e:	530030ef          	jal	ra,80ce <__unorddf2>
    4ba2:	cd11                	beqz	a0,4bbe <_printf_float+0x158>
    4ba4:	04700793          	li	a5,71
    4ba8:	00004a97          	auipc	s5,0x4
    4bac:	550a8a93          	addi	s5,s5,1360 # 90f8 <__clz_tab+0x110>
    4bb0:	f947f9e3          	bgeu	a5,s4,4b42 <_printf_float+0xdc>
    4bb4:	00004a97          	auipc	s5,0x4
    4bb8:	548a8a93          	addi	s5,s5,1352 # 90fc <__clz_tab+0x114>
    4bbc:	b759                	j	4b42 <_printf_float+0xdc>
    4bbe:	405c                	lw	a5,4(s0)
    4bc0:	577d                	li	a4,-1
    4bc2:	0dfa7d13          	andi	s10,s4,223
    4bc6:	08e79563          	bne	a5,a4,4c50 <_printf_float+0x1ea>
    4bca:	4799                	li	a5,6
    4bcc:	c05c                	sw	a5,4(s0)
    4bce:	4054                	lw	a3,4(s0)
    4bd0:	400b6713          	ori	a4,s6,1024
    4bd4:	183c                	addi	a5,sp,56
    4bd6:	85d6                	mv	a1,s5
    4bd8:	c03e                	sw	a5,0(sp)
    4bda:	c018                	sw	a4,0(s0)
    4bdc:	03310793          	addi	a5,sp,51
    4be0:	c202                	sw	zero,4(sp)
    4be2:	88d2                	mv	a7,s4
    4be4:	03410813          	addi	a6,sp,52
    4be8:	8666                	mv	a2,s9
    4bea:	8526                	mv	a0,s1
    4bec:	d01ff0ef          	jal	ra,48ec <__cvt>
    4bf0:	04700793          	li	a5,71
    4bf4:	8aaa                	mv	s5,a0
    4bf6:	55d2                	lw	a1,52(sp)
    4bf8:	00fd1b63          	bne	s10,a5,4c0e <_printf_float+0x1a8>
    4bfc:	57f5                	li	a5,-3
    4bfe:	00f5c563          	blt	a1,a5,4c08 <_printf_float+0x1a2>
    4c02:	405c                	lw	a5,4(s0)
    4c04:	08b7d863          	bge	a5,a1,4c94 <_printf_float+0x22e>
    4c08:	1a79                	addi	s4,s4,-2
    4c0a:	0ffa7a13          	andi	s4,s4,255
    4c0e:	06500793          	li	a5,101
    4c12:	0547e663          	bltu	a5,s4,4c5e <_printf_float+0x1f8>
    4c16:	15fd                	addi	a1,a1,-1
    4c18:	8652                	mv	a2,s4
    4c1a:	05040513          	addi	a0,s0,80
    4c1e:	da2e                	sw	a1,52(sp)
    4c20:	dbbff0ef          	jal	ra,49da <__exponent>
    4c24:	5762                	lw	a4,56(sp)
    4c26:	4685                	li	a3,1
    4c28:	8b2a                	mv	s6,a0
    4c2a:	00a707b3          	add	a5,a4,a0
    4c2e:	c81c                	sw	a5,16(s0)
    4c30:	00e6c563          	blt	a3,a4,4c3a <_printf_float+0x1d4>
    4c34:	4018                	lw	a4,0(s0)
    4c36:	8b05                	andi	a4,a4,1
    4c38:	c319                	beqz	a4,4c3e <_printf_float+0x1d8>
    4c3a:	0785                	addi	a5,a5,1
    4c3c:	c81c                	sw	a5,16(s0)
    4c3e:	03314783          	lbu	a5,51(sp)
    4c42:	f00787e3          	beqz	a5,4b50 <_printf_float+0xea>
    4c46:	02d00793          	li	a5,45
    4c4a:	04f401a3          	sb	a5,67(s0)
    4c4e:	b709                	j	4b50 <_printf_float+0xea>
    4c50:	04700713          	li	a4,71
    4c54:	f6ed1de3          	bne	s10,a4,4bce <_printf_float+0x168>
    4c58:	fbbd                	bnez	a5,4bce <_printf_float+0x168>
    4c5a:	4785                	li	a5,1
    4c5c:	bf85                	j	4bcc <_printf_float+0x166>
    4c5e:	06600793          	li	a5,102
    4c62:	02fa1b63          	bne	s4,a5,4c98 <_printf_float+0x232>
    4c66:	405c                	lw	a5,4(s0)
    4c68:	00b05b63          	blez	a1,4c7e <_printf_float+0x218>
    4c6c:	c80c                	sw	a1,16(s0)
    4c6e:	e781                	bnez	a5,4c76 <_printf_float+0x210>
    4c70:	4018                	lw	a4,0(s0)
    4c72:	8b05                	andi	a4,a4,1
    4c74:	cf09                	beqz	a4,4c8e <_printf_float+0x228>
    4c76:	0785                	addi	a5,a5,1
    4c78:	97ae                	add	a5,a5,a1
    4c7a:	c81c                	sw	a5,16(s0)
    4c7c:	a809                	j	4c8e <_printf_float+0x228>
    4c7e:	e789                	bnez	a5,4c88 <_printf_float+0x222>
    4c80:	4018                	lw	a4,0(s0)
    4c82:	4685                	li	a3,1
    4c84:	8b05                	andi	a4,a4,1
    4c86:	c319                	beqz	a4,4c8c <_printf_float+0x226>
    4c88:	00278693          	addi	a3,a5,2
    4c8c:	c814                	sw	a3,16(s0)
    4c8e:	cc2c                	sw	a1,88(s0)
    4c90:	4b01                	li	s6,0
    4c92:	b775                	j	4c3e <_printf_float+0x1d8>
    4c94:	06700a13          	li	s4,103
    4c98:	57e2                	lw	a5,56(sp)
    4c9a:	00f5c963          	blt	a1,a5,4cac <_printf_float+0x246>
    4c9e:	401c                	lw	a5,0(s0)
    4ca0:	c80c                	sw	a1,16(s0)
    4ca2:	8b85                	andi	a5,a5,1
    4ca4:	d7ed                	beqz	a5,4c8e <_printf_float+0x228>
    4ca6:	00158793          	addi	a5,a1,1
    4caa:	bfc1                	j	4c7a <_printf_float+0x214>
    4cac:	4705                	li	a4,1
    4cae:	00b04463          	bgtz	a1,4cb6 <_printf_float+0x250>
    4cb2:	4709                	li	a4,2
    4cb4:	8f0d                	sub	a4,a4,a1
    4cb6:	97ba                	add	a5,a5,a4
    4cb8:	b7c9                	j	4c7a <_printf_float+0x214>
    4cba:	401c                	lw	a5,0(s0)
    4cbc:	4007f713          	andi	a4,a5,1024
    4cc0:	e315                	bnez	a4,4ce4 <_printf_float+0x27e>
    4cc2:	4814                	lw	a3,16(s0)
    4cc4:	8656                	mv	a2,s5
    4cc6:	85ca                	mv	a1,s2
    4cc8:	8526                	mv	a0,s1
    4cca:	9982                	jalr	s3
    4ccc:	e9950be3          	beq	a0,s9,4b62 <_printf_float+0xfc>
    4cd0:	401c                	lw	a5,0(s0)
    4cd2:	8b89                	andi	a5,a5,2
    4cd4:	24079663          	bnez	a5,4f20 <_printf_float+0x4ba>
    4cd8:	57f2                	lw	a5,60(sp)
    4cda:	4448                	lw	a0,12(s0)
    4cdc:	e8f554e3          	bge	a0,a5,4b64 <_printf_float+0xfe>
    4ce0:	853e                	mv	a0,a5
    4ce2:	b549                	j	4b64 <_printf_float+0xfe>
    4ce4:	06500713          	li	a4,101
    4ce8:	19477b63          	bgeu	a4,s4,4e7e <_printf_float+0x418>
    4cec:	4428                	lw	a0,72(s0)
    4cee:	446c                	lw	a1,76(s0)
    4cf0:	4601                	li	a2,0
    4cf2:	4681                	li	a3,0
    4cf4:	2cf020ef          	jal	ra,77c2 <__eqdf2>
    4cf8:	e939                	bnez	a0,4d4e <_printf_float+0x2e8>
    4cfa:	4685                	li	a3,1
    4cfc:	00004617          	auipc	a2,0x4
    4d00:	a8060613          	addi	a2,a2,-1408 # 877c <cmdtable+0x234>
    4d04:	85ca                	mv	a1,s2
    4d06:	8526                	mv	a0,s1
    4d08:	9982                	jalr	s3
    4d0a:	e5950ce3          	beq	a0,s9,4b62 <_printf_float+0xfc>
    4d0e:	5752                	lw	a4,52(sp)
    4d10:	57e2                	lw	a5,56(sp)
    4d12:	00f74563          	blt	a4,a5,4d1c <_printf_float+0x2b6>
    4d16:	401c                	lw	a5,0(s0)
    4d18:	8b85                	andi	a5,a5,1
    4d1a:	dbdd                	beqz	a5,4cd0 <_printf_float+0x26a>
    4d1c:	86e2                	mv	a3,s8
    4d1e:	865e                	mv	a2,s7
    4d20:	85ca                	mv	a1,s2
    4d22:	8526                	mv	a0,s1
    4d24:	9982                	jalr	s3
    4d26:	57fd                	li	a5,-1
    4d28:	e2f50de3          	beq	a0,a5,4b62 <_printf_float+0xfc>
    4d2c:	4a01                	li	s4,0
    4d2e:	01a40a93          	addi	s5,s0,26
    4d32:	5b7d                	li	s6,-1
    4d34:	57e2                	lw	a5,56(sp)
    4d36:	17fd                	addi	a5,a5,-1
    4d38:	f8fa5ce3          	bge	s4,a5,4cd0 <_printf_float+0x26a>
    4d3c:	4685                	li	a3,1
    4d3e:	8656                	mv	a2,s5
    4d40:	85ca                	mv	a1,s2
    4d42:	8526                	mv	a0,s1
    4d44:	9982                	jalr	s3
    4d46:	e1650ee3          	beq	a0,s6,4b62 <_printf_float+0xfc>
    4d4a:	0a05                	addi	s4,s4,1
    4d4c:	b7e5                	j	4d34 <_printf_float+0x2ce>
    4d4e:	57d2                	lw	a5,52(sp)
    4d50:	06f04663          	bgtz	a5,4dbc <_printf_float+0x356>
    4d54:	4685                	li	a3,1
    4d56:	00004617          	auipc	a2,0x4
    4d5a:	a2660613          	addi	a2,a2,-1498 # 877c <cmdtable+0x234>
    4d5e:	85ca                	mv	a1,s2
    4d60:	8526                	mv	a0,s1
    4d62:	9982                	jalr	s3
    4d64:	df950fe3          	beq	a0,s9,4b62 <_printf_float+0xfc>
    4d68:	57d2                	lw	a5,52(sp)
    4d6a:	5762                	lw	a4,56(sp)
    4d6c:	8fd9                	or	a5,a5,a4
    4d6e:	e781                	bnez	a5,4d76 <_printf_float+0x310>
    4d70:	401c                	lw	a5,0(s0)
    4d72:	8b85                	andi	a5,a5,1
    4d74:	dfb1                	beqz	a5,4cd0 <_printf_float+0x26a>
    4d76:	86e2                	mv	a3,s8
    4d78:	865e                	mv	a2,s7
    4d7a:	85ca                	mv	a1,s2
    4d7c:	8526                	mv	a0,s1
    4d7e:	9982                	jalr	s3
    4d80:	57fd                	li	a5,-1
    4d82:	def500e3          	beq	a0,a5,4b62 <_printf_float+0xfc>
    4d86:	4a01                	li	s4,0
    4d88:	01a40b13          	addi	s6,s0,26
    4d8c:	5bfd                	li	s7,-1
    4d8e:	57d2                	lw	a5,52(sp)
    4d90:	40f007b3          	neg	a5,a5
    4d94:	00fa4b63          	blt	s4,a5,4daa <_printf_float+0x344>
    4d98:	56e2                	lw	a3,56(sp)
    4d9a:	8656                	mv	a2,s5
    4d9c:	85ca                	mv	a1,s2
    4d9e:	8526                	mv	a0,s1
    4da0:	9982                	jalr	s3
    4da2:	57fd                	li	a5,-1
    4da4:	f2f516e3          	bne	a0,a5,4cd0 <_printf_float+0x26a>
    4da8:	bb6d                	j	4b62 <_printf_float+0xfc>
    4daa:	4685                	li	a3,1
    4dac:	865a                	mv	a2,s6
    4dae:	85ca                	mv	a1,s2
    4db0:	8526                	mv	a0,s1
    4db2:	9982                	jalr	s3
    4db4:	db7507e3          	beq	a0,s7,4b62 <_printf_float+0xfc>
    4db8:	0a05                	addi	s4,s4,1
    4dba:	bfd1                	j	4d8e <_printf_float+0x328>
    4dbc:	4c3c                	lw	a5,88(s0)
    4dbe:	5a62                	lw	s4,56(sp)
    4dc0:	0147d363          	bge	a5,s4,4dc6 <_printf_float+0x360>
    4dc4:	8a3e                	mv	s4,a5
    4dc6:	01405a63          	blez	s4,4dda <_printf_float+0x374>
    4dca:	86d2                	mv	a3,s4
    4dcc:	8656                	mv	a2,s5
    4dce:	85ca                	mv	a1,s2
    4dd0:	8526                	mv	a0,s1
    4dd2:	9982                	jalr	s3
    4dd4:	57fd                	li	a5,-1
    4dd6:	d8f506e3          	beq	a0,a5,4b62 <_printf_float+0xfc>
    4dda:	4c81                	li	s9,0
    4ddc:	01a40d13          	addi	s10,s0,26
    4de0:	5dfd                	li	s11,-1
    4de2:	a809                	j	4df4 <_printf_float+0x38e>
    4de4:	4685                	li	a3,1
    4de6:	866a                	mv	a2,s10
    4de8:	85ca                	mv	a1,s2
    4dea:	8526                	mv	a0,s1
    4dec:	9982                	jalr	s3
    4dee:	d7b50ae3          	beq	a0,s11,4b62 <_printf_float+0xfc>
    4df2:	0c85                	addi	s9,s9,1
    4df4:	05842b03          	lw	s6,88(s0)
    4df8:	87d2                	mv	a5,s4
    4dfa:	000a5363          	bgez	s4,4e00 <_printf_float+0x39a>
    4dfe:	4781                	li	a5,0
    4e00:	40fb07b3          	sub	a5,s6,a5
    4e04:	fefcc0e3          	blt	s9,a5,4de4 <_printf_float+0x37e>
    4e08:	5752                	lw	a4,52(sp)
    4e0a:	57e2                	lw	a5,56(sp)
    4e0c:	02f74d63          	blt	a4,a5,4e46 <_printf_float+0x3e0>
    4e10:	401c                	lw	a5,0(s0)
    4e12:	8b85                	andi	a5,a5,1
    4e14:	eb8d                	bnez	a5,4e46 <_printf_float+0x3e0>
    4e16:	57e2                	lw	a5,56(sp)
    4e18:	5752                	lw	a4,52(sp)
    4e1a:	40e78a33          	sub	s4,a5,a4
    4e1e:	00eb4463          	blt	s6,a4,4e26 <_printf_float+0x3c0>
    4e22:	41678a33          	sub	s4,a5,s6
    4e26:	01405b63          	blez	s4,4e3c <_printf_float+0x3d6>
    4e2a:	86d2                	mv	a3,s4
    4e2c:	016a8633          	add	a2,s5,s6
    4e30:	85ca                	mv	a1,s2
    4e32:	8526                	mv	a0,s1
    4e34:	9982                	jalr	s3
    4e36:	57fd                	li	a5,-1
    4e38:	d2f505e3          	beq	a0,a5,4b62 <_printf_float+0xfc>
    4e3c:	4a81                	li	s5,0
    4e3e:	01a40b13          	addi	s6,s0,26
    4e42:	5bfd                	li	s7,-1
    4e44:	a015                	j	4e68 <_printf_float+0x402>
    4e46:	86e2                	mv	a3,s8
    4e48:	865e                	mv	a2,s7
    4e4a:	85ca                	mv	a1,s2
    4e4c:	8526                	mv	a0,s1
    4e4e:	9982                	jalr	s3
    4e50:	57fd                	li	a5,-1
    4e52:	fcf512e3          	bne	a0,a5,4e16 <_printf_float+0x3b0>
    4e56:	b331                	j	4b62 <_printf_float+0xfc>
    4e58:	4685                	li	a3,1
    4e5a:	865a                	mv	a2,s6
    4e5c:	85ca                	mv	a1,s2
    4e5e:	8526                	mv	a0,s1
    4e60:	9982                	jalr	s3
    4e62:	d17500e3          	beq	a0,s7,4b62 <_printf_float+0xfc>
    4e66:	0a85                	addi	s5,s5,1
    4e68:	5752                	lw	a4,52(sp)
    4e6a:	57e2                	lw	a5,56(sp)
    4e6c:	8f99                	sub	a5,a5,a4
    4e6e:	8752                	mv	a4,s4
    4e70:	000a5363          	bgez	s4,4e76 <_printf_float+0x410>
    4e74:	4701                	li	a4,0
    4e76:	8f99                	sub	a5,a5,a4
    4e78:	fefac0e3          	blt	s5,a5,4e58 <_printf_float+0x3f2>
    4e7c:	bd91                	j	4cd0 <_printf_float+0x26a>
    4e7e:	56e2                	lw	a3,56(sp)
    4e80:	4705                	li	a4,1
    4e82:	00d74463          	blt	a4,a3,4e8a <_printf_float+0x424>
    4e86:	8b85                	andi	a5,a5,1
    4e88:	c7b5                	beqz	a5,4ef4 <_printf_float+0x48e>
    4e8a:	4685                	li	a3,1
    4e8c:	8656                	mv	a2,s5
    4e8e:	85ca                	mv	a1,s2
    4e90:	8526                	mv	a0,s1
    4e92:	9982                	jalr	s3
    4e94:	5a7d                	li	s4,-1
    4e96:	cd4506e3          	beq	a0,s4,4b62 <_printf_float+0xfc>
    4e9a:	86e2                	mv	a3,s8
    4e9c:	865e                	mv	a2,s7
    4e9e:	85ca                	mv	a1,s2
    4ea0:	8526                	mv	a0,s1
    4ea2:	9982                	jalr	s3
    4ea4:	cb450fe3          	beq	a0,s4,4b62 <_printf_float+0xfc>
    4ea8:	4428                	lw	a0,72(s0)
    4eaa:	446c                	lw	a1,76(s0)
    4eac:	4601                	li	a2,0
    4eae:	4681                	li	a3,0
    4eb0:	113020ef          	jal	ra,77c2 <__eqdf2>
    4eb4:	c91d                	beqz	a0,4eea <_printf_float+0x484>
    4eb6:	56e2                	lw	a3,56(sp)
    4eb8:	001a8613          	addi	a2,s5,1
    4ebc:	85ca                	mv	a1,s2
    4ebe:	16fd                	addi	a3,a3,-1
    4ec0:	8526                	mv	a0,s1
    4ec2:	9982                	jalr	s3
    4ec4:	c9450fe3          	beq	a0,s4,4b62 <_printf_float+0xfc>
    4ec8:	86da                	mv	a3,s6
    4eca:	05040613          	addi	a2,s0,80
    4ece:	b5f9                	j	4d9c <_printf_float+0x336>
    4ed0:	4685                	li	a3,1
    4ed2:	8656                	mv	a2,s5
    4ed4:	85ca                	mv	a1,s2
    4ed6:	8526                	mv	a0,s1
    4ed8:	9982                	jalr	s3
    4eda:	c97504e3          	beq	a0,s7,4b62 <_printf_float+0xfc>
    4ede:	0a05                	addi	s4,s4,1
    4ee0:	57e2                	lw	a5,56(sp)
    4ee2:	17fd                	addi	a5,a5,-1
    4ee4:	fefa46e3          	blt	s4,a5,4ed0 <_printf_float+0x46a>
    4ee8:	b7c5                	j	4ec8 <_printf_float+0x462>
    4eea:	4a01                	li	s4,0
    4eec:	01a40a93          	addi	s5,s0,26
    4ef0:	5bfd                	li	s7,-1
    4ef2:	b7fd                	j	4ee0 <_printf_float+0x47a>
    4ef4:	4685                	li	a3,1
    4ef6:	8656                	mv	a2,s5
    4ef8:	85ca                	mv	a1,s2
    4efa:	8526                	mv	a0,s1
    4efc:	9982                	jalr	s3
    4efe:	fd9515e3          	bne	a0,s9,4ec8 <_printf_float+0x462>
    4f02:	b185                	j	4b62 <_printf_float+0xfc>
    4f04:	4685                	li	a3,1
    4f06:	8656                	mv	a2,s5
    4f08:	85ca                	mv	a1,s2
    4f0a:	8526                	mv	a0,s1
    4f0c:	9982                	jalr	s3
    4f0e:	c5650ae3          	beq	a0,s6,4b62 <_printf_float+0xfc>
    4f12:	0a05                	addi	s4,s4,1
    4f14:	445c                	lw	a5,12(s0)
    4f16:	5772                	lw	a4,60(sp)
    4f18:	8f99                	sub	a5,a5,a4
    4f1a:	fefa45e3          	blt	s4,a5,4f04 <_printf_float+0x49e>
    4f1e:	bb6d                	j	4cd8 <_printf_float+0x272>
    4f20:	4a01                	li	s4,0
    4f22:	01940a93          	addi	s5,s0,25
    4f26:	5b7d                	li	s6,-1
    4f28:	b7f5                	j	4f14 <_printf_float+0x4ae>

00004f2a <_printf_common>:
    4f2a:	7179                	addi	sp,sp,-48
    4f2c:	ca56                	sw	s5,20(sp)
    4f2e:	499c                	lw	a5,16(a1)
    4f30:	8aba                	mv	s5,a4
    4f32:	4598                	lw	a4,8(a1)
    4f34:	d422                	sw	s0,40(sp)
    4f36:	d226                	sw	s1,36(sp)
    4f38:	ce4e                	sw	s3,28(sp)
    4f3a:	cc52                	sw	s4,24(sp)
    4f3c:	d606                	sw	ra,44(sp)
    4f3e:	d04a                	sw	s2,32(sp)
    4f40:	c85a                	sw	s6,16(sp)
    4f42:	c65e                	sw	s7,12(sp)
    4f44:	89aa                	mv	s3,a0
    4f46:	842e                	mv	s0,a1
    4f48:	84b2                	mv	s1,a2
    4f4a:	8a36                	mv	s4,a3
    4f4c:	00e7d363          	bge	a5,a4,4f52 <_printf_common+0x28>
    4f50:	87ba                	mv	a5,a4
    4f52:	c09c                	sw	a5,0(s1)
    4f54:	04344703          	lbu	a4,67(s0)
    4f58:	c319                	beqz	a4,4f5e <_printf_common+0x34>
    4f5a:	0785                	addi	a5,a5,1
    4f5c:	c09c                	sw	a5,0(s1)
    4f5e:	401c                	lw	a5,0(s0)
    4f60:	0207f793          	andi	a5,a5,32
    4f64:	c781                	beqz	a5,4f6c <_printf_common+0x42>
    4f66:	409c                	lw	a5,0(s1)
    4f68:	0789                	addi	a5,a5,2
    4f6a:	c09c                	sw	a5,0(s1)
    4f6c:	00042903          	lw	s2,0(s0)
    4f70:	00697913          	andi	s2,s2,6
    4f74:	00091a63          	bnez	s2,4f88 <_printf_common+0x5e>
    4f78:	01940b13          	addi	s6,s0,25
    4f7c:	5bfd                	li	s7,-1
    4f7e:	445c                	lw	a5,12(s0)
    4f80:	4098                	lw	a4,0(s1)
    4f82:	8f99                	sub	a5,a5,a4
    4f84:	04f94c63          	blt	s2,a5,4fdc <_printf_common+0xb2>
    4f88:	401c                	lw	a5,0(s0)
    4f8a:	04344683          	lbu	a3,67(s0)
    4f8e:	0207f793          	andi	a5,a5,32
    4f92:	00d036b3          	snez	a3,a3
    4f96:	eba5                	bnez	a5,5006 <_printf_common+0xdc>
    4f98:	04340613          	addi	a2,s0,67
    4f9c:	85d2                	mv	a1,s4
    4f9e:	854e                	mv	a0,s3
    4fa0:	9a82                	jalr	s5
    4fa2:	57fd                	li	a5,-1
    4fa4:	04f50363          	beq	a0,a5,4fea <_printf_common+0xc0>
    4fa8:	401c                	lw	a5,0(s0)
    4faa:	4611                	li	a2,4
    4fac:	4098                	lw	a4,0(s1)
    4fae:	8b99                	andi	a5,a5,6
    4fb0:	4454                	lw	a3,12(s0)
    4fb2:	4481                	li	s1,0
    4fb4:	00c79763          	bne	a5,a2,4fc2 <_printf_common+0x98>
    4fb8:	40e684b3          	sub	s1,a3,a4
    4fbc:	0004d363          	bgez	s1,4fc2 <_printf_common+0x98>
    4fc0:	4481                	li	s1,0
    4fc2:	441c                	lw	a5,8(s0)
    4fc4:	4818                	lw	a4,16(s0)
    4fc6:	00f75463          	bge	a4,a5,4fce <_printf_common+0xa4>
    4fca:	8f99                	sub	a5,a5,a4
    4fcc:	94be                	add	s1,s1,a5
    4fce:	4901                	li	s2,0
    4fd0:	0469                	addi	s0,s0,26
    4fd2:	5b7d                	li	s6,-1
    4fd4:	05249863          	bne	s1,s2,5024 <_printf_common+0xfa>
    4fd8:	4501                	li	a0,0
    4fda:	a809                	j	4fec <_printf_common+0xc2>
    4fdc:	4685                	li	a3,1
    4fde:	865a                	mv	a2,s6
    4fe0:	85d2                	mv	a1,s4
    4fe2:	854e                	mv	a0,s3
    4fe4:	9a82                	jalr	s5
    4fe6:	01751e63          	bne	a0,s7,5002 <_printf_common+0xd8>
    4fea:	557d                	li	a0,-1
    4fec:	50b2                	lw	ra,44(sp)
    4fee:	5422                	lw	s0,40(sp)
    4ff0:	5492                	lw	s1,36(sp)
    4ff2:	5902                	lw	s2,32(sp)
    4ff4:	49f2                	lw	s3,28(sp)
    4ff6:	4a62                	lw	s4,24(sp)
    4ff8:	4ad2                	lw	s5,20(sp)
    4ffa:	4b42                	lw	s6,16(sp)
    4ffc:	4bb2                	lw	s7,12(sp)
    4ffe:	6145                	addi	sp,sp,48
    5000:	8082                	ret
    5002:	0905                	addi	s2,s2,1
    5004:	bfad                	j	4f7e <_printf_common+0x54>
    5006:	00d40733          	add	a4,s0,a3
    500a:	03000613          	li	a2,48
    500e:	04c701a3          	sb	a2,67(a4)
    5012:	04544703          	lbu	a4,69(s0)
    5016:	00168793          	addi	a5,a3,1
    501a:	97a2                	add	a5,a5,s0
    501c:	0689                	addi	a3,a3,2
    501e:	04e781a3          	sb	a4,67(a5)
    5022:	bf9d                	j	4f98 <_printf_common+0x6e>
    5024:	4685                	li	a3,1
    5026:	8622                	mv	a2,s0
    5028:	85d2                	mv	a1,s4
    502a:	854e                	mv	a0,s3
    502c:	9a82                	jalr	s5
    502e:	fb650ee3          	beq	a0,s6,4fea <_printf_common+0xc0>
    5032:	0905                	addi	s2,s2,1
    5034:	b745                	j	4fd4 <_printf_common+0xaa>

00005036 <_printf_i>:
    5036:	7179                	addi	sp,sp,-48
    5038:	d422                	sw	s0,40(sp)
    503a:	d226                	sw	s1,36(sp)
    503c:	d04a                	sw	s2,32(sp)
    503e:	ce4e                	sw	s3,28(sp)
    5040:	d606                	sw	ra,44(sp)
    5042:	cc52                	sw	s4,24(sp)
    5044:	ca56                	sw	s5,20(sp)
    5046:	c85a                	sw	s6,16(sp)
    5048:	89b6                	mv	s3,a3
    504a:	0185c683          	lbu	a3,24(a1)
    504e:	06900793          	li	a5,105
    5052:	8932                	mv	s2,a2
    5054:	84aa                	mv	s1,a0
    5056:	842e                	mv	s0,a1
    5058:	04358613          	addi	a2,a1,67
    505c:	02f68d63          	beq	a3,a5,5096 <_printf_i+0x60>
    5060:	06d7e263          	bltu	a5,a3,50c4 <_printf_i+0x8e>
    5064:	05800793          	li	a5,88
    5068:	18f68963          	beq	a3,a5,51fa <_printf_i+0x1c4>
    506c:	00d7ed63          	bltu	a5,a3,5086 <_printf_i+0x50>
    5070:	22068263          	beqz	a3,5294 <_printf_i+0x25e>
    5074:	04300793          	li	a5,67
    5078:	0af68f63          	beq	a3,a5,5136 <_printf_i+0x100>
    507c:	04240a93          	addi	s5,s0,66
    5080:	04d40123          	sb	a3,66(s0)
    5084:	a0d1                	j	5148 <_printf_i+0x112>
    5086:	06300793          	li	a5,99
    508a:	0af68663          	beq	a3,a5,5136 <_printf_i+0x100>
    508e:	06400793          	li	a5,100
    5092:	fef695e3          	bne	a3,a5,507c <_printf_i+0x46>
    5096:	401c                	lw	a5,0(s0)
    5098:	4308                	lw	a0,0(a4)
    509a:	0807f693          	andi	a3,a5,128
    509e:	00450593          	addi	a1,a0,4
    50a2:	c6cd                	beqz	a3,514c <_printf_i+0x116>
    50a4:	411c                	lw	a5,0(a0)
    50a6:	c30c                	sw	a1,0(a4)
    50a8:	0007d863          	bgez	a5,50b8 <_printf_i+0x82>
    50ac:	02d00713          	li	a4,45
    50b0:	40f007b3          	neg	a5,a5
    50b4:	04e401a3          	sb	a4,67(s0)
    50b8:	00004697          	auipc	a3,0x4
    50bc:	04868693          	addi	a3,a3,72 # 9100 <__clz_tab+0x118>
    50c0:	4729                	li	a4,10
    50c2:	a875                	j	517e <_printf_i+0x148>
    50c4:	07000793          	li	a5,112
    50c8:	16f68563          	beq	a3,a5,5232 <_printf_i+0x1fc>
    50cc:	02d7e563          	bltu	a5,a3,50f6 <_printf_i+0xc0>
    50d0:	06e00793          	li	a5,110
    50d4:	18f68c63          	beq	a3,a5,526c <_printf_i+0x236>
    50d8:	06f00793          	li	a5,111
    50dc:	faf690e3          	bne	a3,a5,507c <_printf_i+0x46>
    50e0:	400c                	lw	a1,0(s0)
    50e2:	431c                	lw	a5,0(a4)
    50e4:	0805f813          	andi	a6,a1,128
    50e8:	00478513          	addi	a0,a5,4
    50ec:	06080863          	beqz	a6,515c <_printf_i+0x126>
    50f0:	c308                	sw	a0,0(a4)
    50f2:	439c                	lw	a5,0(a5)
    50f4:	a895                	j	5168 <_printf_i+0x132>
    50f6:	07500793          	li	a5,117
    50fa:	fef683e3          	beq	a3,a5,50e0 <_printf_i+0xaa>
    50fe:	07800793          	li	a5,120
    5102:	12f68c63          	beq	a3,a5,523a <_printf_i+0x204>
    5106:	07300793          	li	a5,115
    510a:	f6f699e3          	bne	a3,a5,507c <_printf_i+0x46>
    510e:	431c                	lw	a5,0(a4)
    5110:	41d0                	lw	a2,4(a1)
    5112:	4581                	li	a1,0
    5114:	00478693          	addi	a3,a5,4
    5118:	c314                	sw	a3,0(a4)
    511a:	0007aa83          	lw	s5,0(a5)
    511e:	8556                	mv	a0,s5
    5120:	3f6010ef          	jal	ra,6516 <memchr>
    5124:	c501                	beqz	a0,512c <_printf_i+0xf6>
    5126:	41550533          	sub	a0,a0,s5
    512a:	c048                	sw	a0,4(s0)
    512c:	405c                	lw	a5,4(s0)
    512e:	c81c                	sw	a5,16(s0)
    5130:	040401a3          	sb	zero,67(s0)
    5134:	a871                	j	51d0 <_printf_i+0x19a>
    5136:	431c                	lw	a5,0(a4)
    5138:	04240a93          	addi	s5,s0,66
    513c:	00478693          	addi	a3,a5,4
    5140:	439c                	lw	a5,0(a5)
    5142:	c314                	sw	a3,0(a4)
    5144:	04f40123          	sb	a5,66(s0)
    5148:	4785                	li	a5,1
    514a:	b7d5                	j	512e <_printf_i+0xf8>
    514c:	0407f693          	andi	a3,a5,64
    5150:	411c                	lw	a5,0(a0)
    5152:	c30c                	sw	a1,0(a4)
    5154:	dab1                	beqz	a3,50a8 <_printf_i+0x72>
    5156:	07c2                	slli	a5,a5,0x10
    5158:	87c1                	srai	a5,a5,0x10
    515a:	b7b9                	j	50a8 <_printf_i+0x72>
    515c:	0405f593          	andi	a1,a1,64
    5160:	c308                	sw	a0,0(a4)
    5162:	d9c1                	beqz	a1,50f2 <_printf_i+0xbc>
    5164:	0007d783          	lhu	a5,0(a5)
    5168:	06f00713          	li	a4,111
    516c:	0ee68863          	beq	a3,a4,525c <_printf_i+0x226>
    5170:	00004697          	auipc	a3,0x4
    5174:	f9068693          	addi	a3,a3,-112 # 9100 <__clz_tab+0x118>
    5178:	4729                	li	a4,10
    517a:	040401a3          	sb	zero,67(s0)
    517e:	404c                	lw	a1,4(s0)
    5180:	c40c                	sw	a1,8(s0)
    5182:	0005c563          	bltz	a1,518c <_printf_i+0x156>
    5186:	4008                	lw	a0,0(s0)
    5188:	996d                	andi	a0,a0,-5
    518a:	c008                	sw	a0,0(s0)
    518c:	e399                	bnez	a5,5192 <_printf_i+0x15c>
    518e:	8ab2                	mv	s5,a2
    5190:	cd91                	beqz	a1,51ac <_printf_i+0x176>
    5192:	8ab2                	mv	s5,a2
    5194:	02e7f5b3          	remu	a1,a5,a4
    5198:	1afd                	addi	s5,s5,-1
    519a:	95b6                	add	a1,a1,a3
    519c:	0005c583          	lbu	a1,0(a1)
    51a0:	00ba8023          	sb	a1,0(s5)
    51a4:	02e7d5b3          	divu	a1,a5,a4
    51a8:	0ce7f063          	bgeu	a5,a4,5268 <_printf_i+0x232>
    51ac:	47a1                	li	a5,8
    51ae:	00f71e63          	bne	a4,a5,51ca <_printf_i+0x194>
    51b2:	401c                	lw	a5,0(s0)
    51b4:	8b85                	andi	a5,a5,1
    51b6:	cb91                	beqz	a5,51ca <_printf_i+0x194>
    51b8:	4058                	lw	a4,4(s0)
    51ba:	481c                	lw	a5,16(s0)
    51bc:	00e7c763          	blt	a5,a4,51ca <_printf_i+0x194>
    51c0:	03000793          	li	a5,48
    51c4:	fefa8fa3          	sb	a5,-1(s5)
    51c8:	1afd                	addi	s5,s5,-1
    51ca:	41560633          	sub	a2,a2,s5
    51ce:	c810                	sw	a2,16(s0)
    51d0:	874e                	mv	a4,s3
    51d2:	86ca                	mv	a3,s2
    51d4:	0070                	addi	a2,sp,12
    51d6:	85a2                	mv	a1,s0
    51d8:	8526                	mv	a0,s1
    51da:	d51ff0ef          	jal	ra,4f2a <_printf_common>
    51de:	5a7d                	li	s4,-1
    51e0:	0b451e63          	bne	a0,s4,529c <_printf_i+0x266>
    51e4:	557d                	li	a0,-1
    51e6:	50b2                	lw	ra,44(sp)
    51e8:	5422                	lw	s0,40(sp)
    51ea:	5492                	lw	s1,36(sp)
    51ec:	5902                	lw	s2,32(sp)
    51ee:	49f2                	lw	s3,28(sp)
    51f0:	4a62                	lw	s4,24(sp)
    51f2:	4ad2                	lw	s5,20(sp)
    51f4:	4b42                	lw	s6,16(sp)
    51f6:	6145                	addi	sp,sp,48
    51f8:	8082                	ret
    51fa:	04d582a3          	sb	a3,69(a1)
    51fe:	00004697          	auipc	a3,0x4
    5202:	f0268693          	addi	a3,a3,-254 # 9100 <__clz_tab+0x118>
    5206:	400c                	lw	a1,0(s0)
    5208:	4308                	lw	a0,0(a4)
    520a:	0805f813          	andi	a6,a1,128
    520e:	411c                	lw	a5,0(a0)
    5210:	0511                	addi	a0,a0,4
    5212:	02080d63          	beqz	a6,524c <_printf_i+0x216>
    5216:	c308                	sw	a0,0(a4)
    5218:	0015f713          	andi	a4,a1,1
    521c:	c701                	beqz	a4,5224 <_printf_i+0x1ee>
    521e:	0205e593          	ori	a1,a1,32
    5222:	c00c                	sw	a1,0(s0)
    5224:	4741                	li	a4,16
    5226:	fbb1                	bnez	a5,517a <_printf_i+0x144>
    5228:	400c                	lw	a1,0(s0)
    522a:	fdf5f593          	andi	a1,a1,-33
    522e:	c00c                	sw	a1,0(s0)
    5230:	b7a9                	j	517a <_printf_i+0x144>
    5232:	419c                	lw	a5,0(a1)
    5234:	0207e793          	ori	a5,a5,32
    5238:	c19c                	sw	a5,0(a1)
    523a:	07800793          	li	a5,120
    523e:	04f402a3          	sb	a5,69(s0)
    5242:	00004697          	auipc	a3,0x4
    5246:	ed268693          	addi	a3,a3,-302 # 9114 <__clz_tab+0x12c>
    524a:	bf75                	j	5206 <_printf_i+0x1d0>
    524c:	0405f813          	andi	a6,a1,64
    5250:	c308                	sw	a0,0(a4)
    5252:	fc0803e3          	beqz	a6,5218 <_printf_i+0x1e2>
    5256:	07c2                	slli	a5,a5,0x10
    5258:	83c1                	srli	a5,a5,0x10
    525a:	bf7d                	j	5218 <_printf_i+0x1e2>
    525c:	00004697          	auipc	a3,0x4
    5260:	ea468693          	addi	a3,a3,-348 # 9100 <__clz_tab+0x118>
    5264:	4721                	li	a4,8
    5266:	bf11                	j	517a <_printf_i+0x144>
    5268:	87ae                	mv	a5,a1
    526a:	b72d                	j	5194 <_printf_i+0x15e>
    526c:	4194                	lw	a3,0(a1)
    526e:	431c                	lw	a5,0(a4)
    5270:	49cc                	lw	a1,20(a1)
    5272:	0806f813          	andi	a6,a3,128
    5276:	00478513          	addi	a0,a5,4
    527a:	00080663          	beqz	a6,5286 <_printf_i+0x250>
    527e:	c308                	sw	a0,0(a4)
    5280:	439c                	lw	a5,0(a5)
    5282:	c38c                	sw	a1,0(a5)
    5284:	a801                	j	5294 <_printf_i+0x25e>
    5286:	c308                	sw	a0,0(a4)
    5288:	0406f693          	andi	a3,a3,64
    528c:	439c                	lw	a5,0(a5)
    528e:	daf5                	beqz	a3,5282 <_printf_i+0x24c>
    5290:	00b79023          	sh	a1,0(a5)
    5294:	00042823          	sw	zero,16(s0)
    5298:	8ab2                	mv	s5,a2
    529a:	bf1d                	j	51d0 <_printf_i+0x19a>
    529c:	4814                	lw	a3,16(s0)
    529e:	8656                	mv	a2,s5
    52a0:	85ca                	mv	a1,s2
    52a2:	8526                	mv	a0,s1
    52a4:	9982                	jalr	s3
    52a6:	f3450fe3          	beq	a0,s4,51e4 <_printf_i+0x1ae>
    52aa:	401c                	lw	a5,0(s0)
    52ac:	8b89                	andi	a5,a5,2
    52ae:	e78d                	bnez	a5,52d8 <_printf_i+0x2a2>
    52b0:	47b2                	lw	a5,12(sp)
    52b2:	4448                	lw	a0,12(s0)
    52b4:	f2f559e3          	bge	a0,a5,51e6 <_printf_i+0x1b0>
    52b8:	853e                	mv	a0,a5
    52ba:	b735                	j	51e6 <_printf_i+0x1b0>
    52bc:	4685                	li	a3,1
    52be:	8656                	mv	a2,s5
    52c0:	85ca                	mv	a1,s2
    52c2:	8526                	mv	a0,s1
    52c4:	9982                	jalr	s3
    52c6:	f1650fe3          	beq	a0,s6,51e4 <_printf_i+0x1ae>
    52ca:	0a05                	addi	s4,s4,1
    52cc:	445c                	lw	a5,12(s0)
    52ce:	4732                	lw	a4,12(sp)
    52d0:	8f99                	sub	a5,a5,a4
    52d2:	fefa45e3          	blt	s4,a5,52bc <_printf_i+0x286>
    52d6:	bfe9                	j	52b0 <_printf_i+0x27a>
    52d8:	4a01                	li	s4,0
    52da:	01940a93          	addi	s5,s0,25
    52de:	5b7d                	li	s6,-1
    52e0:	b7f5                	j	52cc <_printf_i+0x296>

000052e2 <_sbrk_r>:
    52e2:	1141                	addi	sp,sp,-16
    52e4:	c422                	sw	s0,8(sp)
    52e6:	842a                	mv	s0,a0
    52e8:	852e                	mv	a0,a1
    52ea:	7801a023          	sw	zero,1920(gp) # 20001aa8 <errno>
    52ee:	c606                	sw	ra,12(sp)
    52f0:	112030ef          	jal	ra,8402 <_sbrk>
    52f4:	57fd                	li	a5,-1
    52f6:	00f51763          	bne	a0,a5,5304 <_sbrk_r+0x22>
    52fa:	78018793          	addi	a5,gp,1920 # 20001aa8 <errno>
    52fe:	439c                	lw	a5,0(a5)
    5300:	c391                	beqz	a5,5304 <_sbrk_r+0x22>
    5302:	c01c                	sw	a5,0(s0)
    5304:	40b2                	lw	ra,12(sp)
    5306:	4422                	lw	s0,8(sp)
    5308:	0141                	addi	sp,sp,16
    530a:	8082                	ret

0000530c <sniprintf>:
    530c:	7135                	addi	sp,sp,-160
    530e:	cb3e                	sw	a5,148(sp)
    5310:	daa6                	sw	s1,116(sp)
    5312:	c736                	sw	a3,140(sp)
    5314:	c93a                	sw	a4,144(sp)
    5316:	cd42                	sw	a6,152(sp)
    5318:	cf46                	sw	a7,156(sp)
    531a:	1fffc797          	auipc	a5,0x1fffc
    531e:	81278793          	addi	a5,a5,-2030 # 20000b2c <_impure_ptr>
    5322:	de86                	sw	ra,124(sp)
    5324:	dca2                	sw	s0,120(sp)
    5326:	4384                	lw	s1,0(a5)
    5328:	0005db63          	bgez	a1,533e <sniprintf+0x32>
    532c:	08b00793          	li	a5,139
    5330:	c09c                	sw	a5,0(s1)
    5332:	557d                	li	a0,-1
    5334:	50f6                	lw	ra,124(sp)
    5336:	5466                	lw	s0,120(sp)
    5338:	54d6                	lw	s1,116(sp)
    533a:	610d                	addi	sp,sp,160
    533c:	8082                	ret
    533e:	20800793          	li	a5,520
    5342:	00f11a23          	sh	a5,20(sp)
    5346:	c42a                	sw	a0,8(sp)
    5348:	cc2a                	sw	a0,24(sp)
    534a:	4781                	li	a5,0
    534c:	c199                	beqz	a1,5352 <sniprintf+0x46>
    534e:	fff58793          	addi	a5,a1,-1
    5352:	c83e                	sw	a5,16(sp)
    5354:	ce3e                	sw	a5,28(sp)
    5356:	0174                	addi	a3,sp,140
    5358:	57fd                	li	a5,-1
    535a:	842e                	mv	s0,a1
    535c:	8526                	mv	a0,s1
    535e:	002c                	addi	a1,sp,8
    5360:	00f11b23          	sh	a5,22(sp)
    5364:	c236                	sw	a3,4(sp)
    5366:	1d9010ef          	jal	ra,6d3e <_svfiprintf_r>
    536a:	57fd                	li	a5,-1
    536c:	00f55563          	bge	a0,a5,5376 <sniprintf+0x6a>
    5370:	08b00793          	li	a5,139
    5374:	c09c                	sw	a5,0(s1)
    5376:	dc5d                	beqz	s0,5334 <sniprintf+0x28>
    5378:	47a2                	lw	a5,8(sp)
    537a:	00078023          	sb	zero,0(a5)
    537e:	bf5d                	j	5334 <sniprintf+0x28>

00005380 <siprintf>:
    5380:	7135                	addi	sp,sp,-160
    5382:	cb3e                	sw	a5,148(sp)
    5384:	800007b7          	lui	a5,0x80000
    5388:	fff7c793          	not	a5,a5
    538c:	ce3e                	sw	a5,28(sp)
    538e:	c83e                	sw	a5,16(sp)
    5390:	77c1                	lui	a5,0xffff0
    5392:	20878793          	addi	a5,a5,520 # ffff0208 <_eusrstack+0xdffe8208>
    5396:	c532                	sw	a2,136(sp)
    5398:	c736                	sw	a3,140(sp)
    539a:	c93a                	sw	a4,144(sp)
    539c:	cd42                	sw	a6,152(sp)
    539e:	cf46                	sw	a7,156(sp)
    53a0:	ca3e                	sw	a5,20(sp)
    53a2:	1fffb797          	auipc	a5,0x1fffb
    53a6:	78a78793          	addi	a5,a5,1930 # 20000b2c <_impure_ptr>
    53aa:	c42a                	sw	a0,8(sp)
    53ac:	cc2a                	sw	a0,24(sp)
    53ae:	4388                	lw	a0,0(a5)
    53b0:	0134                	addi	a3,sp,136
    53b2:	862e                	mv	a2,a1
    53b4:	002c                	addi	a1,sp,8
    53b6:	de86                	sw	ra,124(sp)
    53b8:	c236                	sw	a3,4(sp)
    53ba:	185010ef          	jal	ra,6d3e <_svfiprintf_r>
    53be:	47a2                	lw	a5,8(sp)
    53c0:	00078023          	sb	zero,0(a5)
    53c4:	50f6                	lw	ra,124(sp)
    53c6:	610d                	addi	sp,sp,160
    53c8:	8082                	ret

000053ca <strcpy>:
    53ca:	87aa                	mv	a5,a0
    53cc:	0005c703          	lbu	a4,0(a1)
    53d0:	0785                	addi	a5,a5,1
    53d2:	0585                	addi	a1,a1,1
    53d4:	fee78fa3          	sb	a4,-1(a5)
    53d8:	fb75                	bnez	a4,53cc <strcpy+0x2>
    53da:	8082                	ret

000053dc <strlen>:
    53dc:	87aa                	mv	a5,a0
    53de:	0785                	addi	a5,a5,1
    53e0:	fff7c703          	lbu	a4,-1(a5)
    53e4:	ff6d                	bnez	a4,53de <strlen+0x2>
    53e6:	40a78533          	sub	a0,a5,a0
    53ea:	157d                	addi	a0,a0,-1
    53ec:	8082                	ret

000053ee <strncpy>:
    53ee:	87aa                	mv	a5,a0
    53f0:	ca09                	beqz	a2,5402 <strncpy+0x14>
    53f2:	0585                	addi	a1,a1,1
    53f4:	fff5c703          	lbu	a4,-1(a1)
    53f8:	0785                	addi	a5,a5,1
    53fa:	167d                	addi	a2,a2,-1
    53fc:	fee78fa3          	sb	a4,-1(a5)
    5400:	fb65                	bnez	a4,53f0 <strncpy+0x2>
    5402:	963e                	add	a2,a2,a5
    5404:	00c79363          	bne	a5,a2,540a <strncpy+0x1c>
    5408:	8082                	ret
    540a:	0785                	addi	a5,a5,1
    540c:	fe078fa3          	sb	zero,-1(a5)
    5410:	bfd5                	j	5404 <strncpy+0x16>

00005412 <strstr>:
    5412:	00054703          	lbu	a4,0(a0)
    5416:	0005c783          	lbu	a5,0(a1)
    541a:	e701                	bnez	a4,5422 <strstr+0x10>
    541c:	c391                	beqz	a5,5420 <strstr+0xe>
    541e:	4501                	li	a0,0
    5420:	8082                	ret
    5422:	4781                	li	a5,0
    5424:	a801                	j	5434 <strstr+0x22>
    5426:	00154783          	lbu	a5,1(a0)
    542a:	00150713          	addi	a4,a0,1
    542e:	dbe5                	beqz	a5,541e <strstr+0xc>
    5430:	4781                	li	a5,0
    5432:	853a                	mv	a0,a4
    5434:	00f58733          	add	a4,a1,a5
    5438:	00074703          	lbu	a4,0(a4)
    543c:	d375                	beqz	a4,5420 <strstr+0xe>
    543e:	00f506b3          	add	a3,a0,a5
    5442:	0006c683          	lbu	a3,0(a3)
    5446:	fee690e3          	bne	a3,a4,5426 <strstr+0x14>
    544a:	0785                	addi	a5,a5,1
    544c:	872a                	mv	a4,a0
    544e:	b7d5                	j	5432 <strstr+0x20>

00005450 <_strtol_l.isra.0>:
    5450:	7179                	addi	sp,sp,-48
    5452:	d04a                	sw	s2,32(sp)
    5454:	ce4e                	sw	s3,28(sp)
    5456:	d606                	sw	ra,44(sp)
    5458:	d422                	sw	s0,40(sp)
    545a:	d226                	sw	s1,36(sp)
    545c:	89aa                	mv	s3,a0
    545e:	892e                	mv	s2,a1
    5460:	00190493          	addi	s1,s2,1
    5464:	fff4c403          	lbu	s0,-1(s1)
    5468:	853a                	mv	a0,a4
    546a:	c636                	sw	a3,12(sp)
    546c:	c432                	sw	a2,8(sp)
    546e:	c22e                	sw	a1,4(sp)
    5470:	c03a                	sw	a4,0(sp)
    5472:	048010ef          	jal	ra,64ba <__locale_ctype_ptr_l>
    5476:	9522                	add	a0,a0,s0
    5478:	00154783          	lbu	a5,1(a0)
    547c:	4702                	lw	a4,0(sp)
    547e:	4592                	lw	a1,4(sp)
    5480:	8ba1                	andi	a5,a5,8
    5482:	4622                	lw	a2,8(sp)
    5484:	46b2                	lw	a3,12(sp)
    5486:	e7c9                	bnez	a5,5510 <_strtol_l.isra.0+0xc0>
    5488:	02d00793          	li	a5,45
    548c:	08f41463          	bne	s0,a5,5514 <_strtol_l.isra.0+0xc4>
    5490:	0004c783          	lbu	a5,0(s1)
    5494:	4305                	li	t1,1
    5496:	00290493          	addi	s1,s2,2
    549a:	c6fd                	beqz	a3,5588 <_strtol_l.isra.0+0x138>
    549c:	4741                	li	a4,16
    549e:	02e69263          	bne	a3,a4,54c2 <_strtol_l.isra.0+0x72>
    54a2:	03000713          	li	a4,48
    54a6:	00e79e63          	bne	a5,a4,54c2 <_strtol_l.isra.0+0x72>
    54aa:	0004c783          	lbu	a5,0(s1)
    54ae:	05800713          	li	a4,88
    54b2:	0df7f793          	andi	a5,a5,223
    54b6:	0ce79463          	bne	a5,a4,557e <_strtol_l.isra.0+0x12e>
    54ba:	0014c783          	lbu	a5,1(s1)
    54be:	46c1                	li	a3,16
    54c0:	0489                	addi	s1,s1,2
    54c2:	800008b7          	lui	a7,0x80000
    54c6:	00031463          	bnez	t1,54ce <_strtol_l.isra.0+0x7e>
    54ca:	fff8c893          	not	a7,a7
    54ce:	02d8ff33          	remu	t5,a7,a3
    54d2:	4801                	li	a6,0
    54d4:	4501                	li	a0,0
    54d6:	4fa5                	li	t6,9
    54d8:	4ee5                	li	t4,25
    54da:	52fd                	li	t0,-1
    54dc:	02d8de33          	divu	t3,a7,a3
    54e0:	fd078713          	addi	a4,a5,-48
    54e4:	04efe463          	bltu	t6,a4,552c <_strtol_l.isra.0+0xdc>
    54e8:	87ba                	mv	a5,a4
    54ea:	04d7df63          	bge	a5,a3,5548 <_strtol_l.isra.0+0xf8>
    54ee:	00580d63          	beq	a6,t0,5508 <_strtol_l.isra.0+0xb8>
    54f2:	587d                	li	a6,-1
    54f4:	00ae6a63          	bltu	t3,a0,5508 <_strtol_l.isra.0+0xb8>
    54f8:	00ae1463          	bne	t3,a0,5500 <_strtol_l.isra.0+0xb0>
    54fc:	00ff4663          	blt	t5,a5,5508 <_strtol_l.isra.0+0xb8>
    5500:	4805                	li	a6,1
    5502:	02a68533          	mul	a0,a3,a0
    5506:	953e                	add	a0,a0,a5
    5508:	0485                	addi	s1,s1,1
    550a:	fff4c783          	lbu	a5,-1(s1)
    550e:	bfc9                	j	54e0 <_strtol_l.isra.0+0x90>
    5510:	8926                	mv	s2,s1
    5512:	b7b9                	j	5460 <_strtol_l.isra.0+0x10>
    5514:	02b00793          	li	a5,43
    5518:	00f40563          	beq	s0,a5,5522 <_strtol_l.isra.0+0xd2>
    551c:	87a2                	mv	a5,s0
    551e:	4301                	li	t1,0
    5520:	bfad                	j	549a <_strtol_l.isra.0+0x4a>
    5522:	0004c783          	lbu	a5,0(s1)
    5526:	00290493          	addi	s1,s2,2
    552a:	bfd5                	j	551e <_strtol_l.isra.0+0xce>
    552c:	fbf78713          	addi	a4,a5,-65
    5530:	00eee563          	bltu	t4,a4,553a <_strtol_l.isra.0+0xea>
    5534:	fc978793          	addi	a5,a5,-55
    5538:	bf4d                	j	54ea <_strtol_l.isra.0+0x9a>
    553a:	f9f78713          	addi	a4,a5,-97
    553e:	00eee563          	bltu	t4,a4,5548 <_strtol_l.isra.0+0xf8>
    5542:	fa978793          	addi	a5,a5,-87
    5546:	b755                	j	54ea <_strtol_l.isra.0+0x9a>
    5548:	57fd                	li	a5,-1
    554a:	00f81f63          	bne	a6,a5,5568 <_strtol_l.isra.0+0x118>
    554e:	02200793          	li	a5,34
    5552:	00f9a023          	sw	a5,0(s3)
    5556:	8546                	mv	a0,a7
    5558:	ee19                	bnez	a2,5576 <_strtol_l.isra.0+0x126>
    555a:	50b2                	lw	ra,44(sp)
    555c:	5422                	lw	s0,40(sp)
    555e:	5492                	lw	s1,36(sp)
    5560:	5902                	lw	s2,32(sp)
    5562:	49f2                	lw	s3,28(sp)
    5564:	6145                	addi	sp,sp,48
    5566:	8082                	ret
    5568:	00030463          	beqz	t1,5570 <_strtol_l.isra.0+0x120>
    556c:	40a00533          	neg	a0,a0
    5570:	d66d                	beqz	a2,555a <_strtol_l.isra.0+0x10a>
    5572:	00080463          	beqz	a6,557a <_strtol_l.isra.0+0x12a>
    5576:	fff48593          	addi	a1,s1,-1
    557a:	c20c                	sw	a1,0(a2)
    557c:	bff9                	j	555a <_strtol_l.isra.0+0x10a>
    557e:	03000793          	li	a5,48
    5582:	f2a1                	bnez	a3,54c2 <_strtol_l.isra.0+0x72>
    5584:	46a1                	li	a3,8
    5586:	bf35                	j	54c2 <_strtol_l.isra.0+0x72>
    5588:	03000713          	li	a4,48
    558c:	f0e78fe3          	beq	a5,a4,54aa <_strtol_l.isra.0+0x5a>
    5590:	46a9                	li	a3,10
    5592:	bf05                	j	54c2 <_strtol_l.isra.0+0x72>

00005594 <strtol>:
    5594:	1fffb797          	auipc	a5,0x1fffb
    5598:	59878793          	addi	a5,a5,1432 # 20000b2c <_impure_ptr>
    559c:	439c                	lw	a5,0(a5)
    559e:	86b2                	mv	a3,a2
    55a0:	5398                	lw	a4,32(a5)
    55a2:	e709                	bnez	a4,55ac <strtol+0x18>
    55a4:	1fffb717          	auipc	a4,0x1fffb
    55a8:	41470713          	addi	a4,a4,1044 # 200009b8 <__global_locale>
    55ac:	862e                	mv	a2,a1
    55ae:	85aa                	mv	a1,a0
    55b0:	853e                	mv	a0,a5
    55b2:	e9fff06f          	j	5450 <_strtol_l.isra.0>

000055b6 <_strtoul_l.isra.0>:
    55b6:	7179                	addi	sp,sp,-48
    55b8:	d04a                	sw	s2,32(sp)
    55ba:	ce4e                	sw	s3,28(sp)
    55bc:	d606                	sw	ra,44(sp)
    55be:	d422                	sw	s0,40(sp)
    55c0:	d226                	sw	s1,36(sp)
    55c2:	89aa                	mv	s3,a0
    55c4:	892e                	mv	s2,a1
    55c6:	00190493          	addi	s1,s2,1
    55ca:	fff4c403          	lbu	s0,-1(s1)
    55ce:	853a                	mv	a0,a4
    55d0:	c636                	sw	a3,12(sp)
    55d2:	c432                	sw	a2,8(sp)
    55d4:	c22e                	sw	a1,4(sp)
    55d6:	c03a                	sw	a4,0(sp)
    55d8:	6e3000ef          	jal	ra,64ba <__locale_ctype_ptr_l>
    55dc:	9522                	add	a0,a0,s0
    55de:	00154783          	lbu	a5,1(a0)
    55e2:	4702                	lw	a4,0(sp)
    55e4:	4592                	lw	a1,4(sp)
    55e6:	8ba1                	andi	a5,a5,8
    55e8:	4622                	lw	a2,8(sp)
    55ea:	46b2                	lw	a3,12(sp)
    55ec:	efbd                	bnez	a5,566a <_strtoul_l.isra.0+0xb4>
    55ee:	02d00793          	li	a5,45
    55f2:	06f41e63          	bne	s0,a5,566e <_strtoul_l.isra.0+0xb8>
    55f6:	0004c783          	lbu	a5,0(s1)
    55fa:	4305                	li	t1,1
    55fc:	00290493          	addi	s1,s2,2
    5600:	c2f5                	beqz	a3,56e4 <_strtoul_l.isra.0+0x12e>
    5602:	4741                	li	a4,16
    5604:	02e69263          	bne	a3,a4,5628 <_strtoul_l.isra.0+0x72>
    5608:	03000713          	li	a4,48
    560c:	00e79e63          	bne	a5,a4,5628 <_strtoul_l.isra.0+0x72>
    5610:	0004c783          	lbu	a5,0(s1)
    5614:	05800713          	li	a4,88
    5618:	0df7f793          	andi	a5,a5,223
    561c:	0ae79f63          	bne	a5,a4,56da <_strtoul_l.isra.0+0x124>
    5620:	0014c783          	lbu	a5,1(s1)
    5624:	46c1                	li	a3,16
    5626:	0489                	addi	s1,s1,2
    5628:	577d                	li	a4,-1
    562a:	02d75e33          	divu	t3,a4,a3
    562e:	4801                	li	a6,0
    5630:	4501                	li	a0,0
    5632:	4f25                	li	t5,9
    5634:	4ee5                	li	t4,25
    5636:	02d778b3          	remu	a7,a4,a3
    563a:	fd078713          	addi	a4,a5,-48
    563e:	04ef6463          	bltu	t5,a4,5686 <_strtoul_l.isra.0+0xd0>
    5642:	87ba                	mv	a5,a4
    5644:	06d7d163          	bge	a5,a3,56a6 <_strtoul_l.isra.0+0xf0>
    5648:	04084d63          	bltz	a6,56a2 <_strtoul_l.isra.0+0xec>
    564c:	587d                	li	a6,-1
    564e:	00ae6a63          	bltu	t3,a0,5662 <_strtoul_l.isra.0+0xac>
    5652:	00ae1463          	bne	t3,a0,565a <_strtoul_l.isra.0+0xa4>
    5656:	00f8c663          	blt	a7,a5,5662 <_strtoul_l.isra.0+0xac>
    565a:	4805                	li	a6,1
    565c:	02a68533          	mul	a0,a3,a0
    5660:	953e                	add	a0,a0,a5
    5662:	0485                	addi	s1,s1,1
    5664:	fff4c783          	lbu	a5,-1(s1)
    5668:	bfc9                	j	563a <_strtoul_l.isra.0+0x84>
    566a:	8926                	mv	s2,s1
    566c:	bfa9                	j	55c6 <_strtoul_l.isra.0+0x10>
    566e:	02b00793          	li	a5,43
    5672:	00f40563          	beq	s0,a5,567c <_strtoul_l.isra.0+0xc6>
    5676:	87a2                	mv	a5,s0
    5678:	4301                	li	t1,0
    567a:	b759                	j	5600 <_strtoul_l.isra.0+0x4a>
    567c:	0004c783          	lbu	a5,0(s1)
    5680:	00290493          	addi	s1,s2,2
    5684:	bfd5                	j	5678 <_strtoul_l.isra.0+0xc2>
    5686:	fbf78713          	addi	a4,a5,-65
    568a:	00eee563          	bltu	t4,a4,5694 <_strtoul_l.isra.0+0xde>
    568e:	fc978793          	addi	a5,a5,-55
    5692:	bf4d                	j	5644 <_strtoul_l.isra.0+0x8e>
    5694:	f9f78713          	addi	a4,a5,-97
    5698:	00eee763          	bltu	t4,a4,56a6 <_strtoul_l.isra.0+0xf0>
    569c:	fa978793          	addi	a5,a5,-87
    56a0:	b755                	j	5644 <_strtoul_l.isra.0+0x8e>
    56a2:	587d                	li	a6,-1
    56a4:	bf7d                	j	5662 <_strtoul_l.isra.0+0xac>
    56a6:	00085f63          	bgez	a6,56c4 <_strtoul_l.isra.0+0x10e>
    56aa:	02200793          	li	a5,34
    56ae:	00f9a023          	sw	a5,0(s3)
    56b2:	557d                	li	a0,-1
    56b4:	ee19                	bnez	a2,56d2 <_strtoul_l.isra.0+0x11c>
    56b6:	50b2                	lw	ra,44(sp)
    56b8:	5422                	lw	s0,40(sp)
    56ba:	5492                	lw	s1,36(sp)
    56bc:	5902                	lw	s2,32(sp)
    56be:	49f2                	lw	s3,28(sp)
    56c0:	6145                	addi	sp,sp,48
    56c2:	8082                	ret
    56c4:	00030463          	beqz	t1,56cc <_strtoul_l.isra.0+0x116>
    56c8:	40a00533          	neg	a0,a0
    56cc:	d66d                	beqz	a2,56b6 <_strtoul_l.isra.0+0x100>
    56ce:	00080463          	beqz	a6,56d6 <_strtoul_l.isra.0+0x120>
    56d2:	fff48593          	addi	a1,s1,-1
    56d6:	c20c                	sw	a1,0(a2)
    56d8:	bff9                	j	56b6 <_strtoul_l.isra.0+0x100>
    56da:	03000793          	li	a5,48
    56de:	f6a9                	bnez	a3,5628 <_strtoul_l.isra.0+0x72>
    56e0:	46a1                	li	a3,8
    56e2:	b799                	j	5628 <_strtoul_l.isra.0+0x72>
    56e4:	03000713          	li	a4,48
    56e8:	f2e784e3          	beq	a5,a4,5610 <_strtoul_l.isra.0+0x5a>
    56ec:	46a9                	li	a3,10
    56ee:	bf2d                	j	5628 <_strtoul_l.isra.0+0x72>

000056f0 <strtoul>:
    56f0:	1fffb797          	auipc	a5,0x1fffb
    56f4:	43c78793          	addi	a5,a5,1084 # 20000b2c <_impure_ptr>
    56f8:	439c                	lw	a5,0(a5)
    56fa:	86b2                	mv	a3,a2
    56fc:	5398                	lw	a4,32(a5)
    56fe:	e709                	bnez	a4,5708 <strtoul+0x18>
    5700:	1fffb717          	auipc	a4,0x1fffb
    5704:	2b870713          	addi	a4,a4,696 # 200009b8 <__global_locale>
    5708:	862e                	mv	a2,a1
    570a:	85aa                	mv	a1,a0
    570c:	853e                	mv	a0,a5
    570e:	ea9ff06f          	j	55b6 <_strtoul_l.isra.0>

00005712 <_vsniprintf_r>:
    5712:	7119                	addi	sp,sp,-128
    5714:	dca2                	sw	s0,120(sp)
    5716:	de86                	sw	ra,124(sp)
    5718:	daa6                	sw	s1,116(sp)
    571a:	8432                	mv	s0,a2
    571c:	00065b63          	bgez	a2,5732 <_vsniprintf_r+0x20>
    5720:	08b00793          	li	a5,139
    5724:	c11c                	sw	a5,0(a0)
    5726:	557d                	li	a0,-1
    5728:	50f6                	lw	ra,124(sp)
    572a:	5466                	lw	s0,120(sp)
    572c:	54d6                	lw	s1,116(sp)
    572e:	6109                	addi	sp,sp,128
    5730:	8082                	ret
    5732:	8636                	mv	a2,a3
    5734:	20800693          	li	a3,520
    5738:	c42e                	sw	a1,8(sp)
    573a:	cc2e                	sw	a1,24(sp)
    573c:	00d11a23          	sh	a3,20(sp)
    5740:	4581                	li	a1,0
    5742:	c019                	beqz	s0,5748 <_vsniprintf_r+0x36>
    5744:	fff40593          	addi	a1,s0,-1
    5748:	57fd                	li	a5,-1
    574a:	c82e                	sw	a1,16(sp)
    574c:	ce2e                	sw	a1,28(sp)
    574e:	86ba                	mv	a3,a4
    5750:	002c                	addi	a1,sp,8
    5752:	00f11b23          	sh	a5,22(sp)
    5756:	84aa                	mv	s1,a0
    5758:	5e6010ef          	jal	ra,6d3e <_svfiprintf_r>
    575c:	57fd                	li	a5,-1
    575e:	00f55563          	bge	a0,a5,5768 <_vsniprintf_r+0x56>
    5762:	08b00793          	li	a5,139
    5766:	c09c                	sw	a5,0(s1)
    5768:	d061                	beqz	s0,5728 <_vsniprintf_r+0x16>
    576a:	47a2                	lw	a5,8(sp)
    576c:	00078023          	sb	zero,0(a5)
    5770:	bf65                	j	5728 <_vsniprintf_r+0x16>

00005772 <vsniprintf>:
    5772:	1fffb797          	auipc	a5,0x1fffb
    5776:	3ba78793          	addi	a5,a5,954 # 20000b2c <_impure_ptr>
    577a:	8736                	mv	a4,a3
    577c:	86b2                	mv	a3,a2
    577e:	862e                	mv	a2,a1
    5780:	85aa                	mv	a1,a0
    5782:	4388                	lw	a0,0(a5)
    5784:	b779                	j	5712 <_vsniprintf_r>

00005786 <quorem>:
    5786:	1101                	addi	sp,sp,-32
    5788:	cc22                	sw	s0,24(sp)
    578a:	491c                	lw	a5,16(a0)
    578c:	4980                	lw	s0,16(a1)
    578e:	ce06                	sw	ra,28(sp)
    5790:	ca26                	sw	s1,20(sp)
    5792:	c84a                	sw	s2,16(sp)
    5794:	c64e                	sw	s3,12(sp)
    5796:	c452                	sw	s4,8(sp)
    5798:	c256                	sw	s5,4(sp)
    579a:	1287c163          	blt	a5,s0,58bc <quorem+0x136>
    579e:	147d                	addi	s0,s0,-1
    57a0:	00241813          	slli	a6,s0,0x2
    57a4:	01458993          	addi	s3,a1,20
    57a8:	01098a33          	add	s4,s3,a6
    57ac:	01450913          	addi	s2,a0,20
    57b0:	984a                	add	a6,a6,s2
    57b2:	000a2783          	lw	a5,0(s4)
    57b6:	00082703          	lw	a4,0(a6)
    57ba:	0785                	addi	a5,a5,1
    57bc:	02f754b3          	divu	s1,a4,a5
    57c0:	06f76663          	bltu	a4,a5,582c <quorem+0xa6>
    57c4:	68c1                	lui	a7,0x10
    57c6:	834e                	mv	t1,s3
    57c8:	8e4a                	mv	t3,s2
    57ca:	4e81                	li	t4,0
    57cc:	4f01                	li	t5,0
    57ce:	18fd                	addi	a7,a7,-1
    57d0:	0311                	addi	t1,t1,4
    57d2:	ffc32603          	lw	a2,-4(t1)
    57d6:	0e11                	addi	t3,t3,4
    57d8:	01167733          	and	a4,a2,a7
    57dc:	8241                	srli	a2,a2,0x10
    57de:	02970733          	mul	a4,a4,s1
    57e2:	02960633          	mul	a2,a2,s1
    57e6:	9776                	add	a4,a4,t4
    57e8:	01075693          	srli	a3,a4,0x10
    57ec:	011777b3          	and	a5,a4,a7
    57f0:	40ff07b3          	sub	a5,t5,a5
    57f4:	9636                	add	a2,a2,a3
    57f6:	ffce2683          	lw	a3,-4(t3)
    57fa:	01065e93          	srli	t4,a2,0x10
    57fe:	01167633          	and	a2,a2,a7
    5802:	0116f733          	and	a4,a3,a7
    5806:	97ba                	add	a5,a5,a4
    5808:	82c1                	srli	a3,a3,0x10
    580a:	4107d713          	srai	a4,a5,0x10
    580e:	8e91                	sub	a3,a3,a2
    5810:	96ba                	add	a3,a3,a4
    5812:	4106df13          	srai	t5,a3,0x10
    5816:	0117f7b3          	and	a5,a5,a7
    581a:	06c2                	slli	a3,a3,0x10
    581c:	8fd5                	or	a5,a5,a3
    581e:	fefe2e23          	sw	a5,-4(t3)
    5822:	fa6a77e3          	bgeu	s4,t1,57d0 <quorem+0x4a>
    5826:	00082783          	lw	a5,0(a6)
    582a:	cbbd                	beqz	a5,58a0 <quorem+0x11a>
    582c:	8aaa                	mv	s5,a0
    582e:	206010ef          	jal	ra,6a34 <__mcmp>
    5832:	04054963          	bltz	a0,5884 <quorem+0xfe>
    5836:	6641                	lui	a2,0x10
    5838:	0485                	addi	s1,s1,1
    583a:	85ca                	mv	a1,s2
    583c:	4501                	li	a0,0
    583e:	167d                	addi	a2,a2,-1
    5840:	0991                	addi	s3,s3,4
    5842:	ffc9a803          	lw	a6,-4(s3)
    5846:	4198                	lw	a4,0(a1)
    5848:	0591                	addi	a1,a1,4
    584a:	00c876b3          	and	a3,a6,a2
    584e:	8d15                	sub	a0,a0,a3
    5850:	00c776b3          	and	a3,a4,a2
    5854:	96aa                	add	a3,a3,a0
    5856:	01075793          	srli	a5,a4,0x10
    585a:	01085813          	srli	a6,a6,0x10
    585e:	4106d713          	srai	a4,a3,0x10
    5862:	410787b3          	sub	a5,a5,a6
    5866:	97ba                	add	a5,a5,a4
    5868:	4107d513          	srai	a0,a5,0x10
    586c:	8ef1                	and	a3,a3,a2
    586e:	07c2                	slli	a5,a5,0x10
    5870:	8fd5                	or	a5,a5,a3
    5872:	fef5ae23          	sw	a5,-4(a1)
    5876:	fd3a75e3          	bgeu	s4,s3,5840 <quorem+0xba>
    587a:	00241793          	slli	a5,s0,0x2
    587e:	97ca                	add	a5,a5,s2
    5880:	4398                	lw	a4,0(a5)
    5882:	c71d                	beqz	a4,58b0 <quorem+0x12a>
    5884:	8526                	mv	a0,s1
    5886:	40f2                	lw	ra,28(sp)
    5888:	4462                	lw	s0,24(sp)
    588a:	44d2                	lw	s1,20(sp)
    588c:	4942                	lw	s2,16(sp)
    588e:	49b2                	lw	s3,12(sp)
    5890:	4a22                	lw	s4,8(sp)
    5892:	4a92                	lw	s5,4(sp)
    5894:	6105                	addi	sp,sp,32
    5896:	8082                	ret
    5898:	00082783          	lw	a5,0(a6)
    589c:	e789                	bnez	a5,58a6 <quorem+0x120>
    589e:	147d                	addi	s0,s0,-1
    58a0:	1871                	addi	a6,a6,-4
    58a2:	ff096be3          	bltu	s2,a6,5898 <quorem+0x112>
    58a6:	c900                	sw	s0,16(a0)
    58a8:	b751                	j	582c <quorem+0xa6>
    58aa:	4398                	lw	a4,0(a5)
    58ac:	e709                	bnez	a4,58b6 <quorem+0x130>
    58ae:	147d                	addi	s0,s0,-1
    58b0:	17f1                	addi	a5,a5,-4
    58b2:	fef96ce3          	bltu	s2,a5,58aa <quorem+0x124>
    58b6:	008aa823          	sw	s0,16(s5)
    58ba:	b7e9                	j	5884 <quorem+0xfe>
    58bc:	4501                	li	a0,0
    58be:	b7e1                	j	5886 <quorem+0x100>

000058c0 <_dtoa_r>:
    58c0:	7175                	addi	sp,sp,-144
    58c2:	d83e                	sw	a5,48(sp)
    58c4:	515c                	lw	a5,36(a0)
    58c6:	c522                	sw	s0,136(sp)
    58c8:	c326                	sw	s1,132(sp)
    58ca:	c14a                	sw	s2,128(sp)
    58cc:	dece                	sw	s3,124(sp)
    58ce:	dcd2                	sw	s4,120(sp)
    58d0:	d4e2                	sw	s8,104(sp)
    58d2:	c706                	sw	ra,140(sp)
    58d4:	dad6                	sw	s5,116(sp)
    58d6:	d8da                	sw	s6,112(sp)
    58d8:	d6de                	sw	s7,108(sp)
    58da:	d2e6                	sw	s9,100(sp)
    58dc:	d0ea                	sw	s10,96(sp)
    58de:	ceee                	sw	s11,92(sp)
    58e0:	c236                	sw	a3,4(sp)
    58e2:	c63a                	sw	a4,12(sp)
    58e4:	ca46                	sw	a7,20(sp)
    58e6:	84aa                	mv	s1,a0
    58e8:	842e                	mv	s0,a1
    58ea:	8932                	mv	s2,a2
    58ec:	89c2                	mv	s3,a6
    58ee:	8a2e                	mv	s4,a1
    58f0:	8c32                	mv	s8,a2
    58f2:	ef89                	bnez	a5,590c <_dtoa_r+0x4c>
    58f4:	4541                	li	a0,16
    58f6:	da3fe0ef          	jal	ra,4698 <malloc>
    58fa:	d0c8                	sw	a0,36(s1)
    58fc:	00052223          	sw	zero,4(a0)
    5900:	00052423          	sw	zero,8(a0)
    5904:	00052023          	sw	zero,0(a0)
    5908:	00052623          	sw	zero,12(a0)
    590c:	50dc                	lw	a5,36(s1)
    590e:	438c                	lw	a1,0(a5)
    5910:	cd89                	beqz	a1,592a <_dtoa_r+0x6a>
    5912:	43d8                	lw	a4,4(a5)
    5914:	4785                	li	a5,1
    5916:	8526                	mv	a0,s1
    5918:	00e797b3          	sll	a5,a5,a4
    591c:	c59c                	sw	a5,8(a1)
    591e:	c1d8                	sw	a4,4(a1)
    5920:	49d000ef          	jal	ra,65bc <_Bfree>
    5924:	50dc                	lw	a5,36(s1)
    5926:	0007a023          	sw	zero,0(a5)
    592a:	04095363          	bgez	s2,5970 <_dtoa_r+0xb0>
    592e:	4785                	li	a5,1
    5930:	00191c13          	slli	s8,s2,0x1
    5934:	00f9a023          	sw	a5,0(s3)
    5938:	001c5c13          	srli	s8,s8,0x1
    593c:	7ff007b7          	lui	a5,0x7ff00
    5940:	00fc7733          	and	a4,s8,a5
    5944:	06f71463          	bne	a4,a5,59ac <_dtoa_r+0xec>
    5948:	5742                	lw	a4,48(sp)
    594a:	6789                	lui	a5,0x2
    594c:	0c32                	slli	s8,s8,0xc
    594e:	70f78793          	addi	a5,a5,1807 # 270f <LogPrintf+0x3b>
    5952:	00cc5c13          	srli	s8,s8,0xc
    5956:	c31c                	sw	a5,0(a4)
    5958:	008c6c33          	or	s8,s8,s0
    595c:	300c03e3          	beqz	s8,6462 <_dtoa_r+0xba2>
    5960:	47d2                	lw	a5,20(sp)
    5962:	eb91                	bnez	a5,5976 <_dtoa_r+0xb6>
    5964:	00004797          	auipc	a5,0x4
    5968:	81878793          	addi	a5,a5,-2024 # 917c <__clz_tab+0x194>
    596c:	c03e                	sw	a5,0(sp)
    596e:	a839                	j	598c <_dtoa_r+0xcc>
    5970:	0009a023          	sw	zero,0(s3)
    5974:	b7e1                	j	593c <_dtoa_r+0x7c>
    5976:	00004797          	auipc	a5,0x4
    597a:	80678793          	addi	a5,a5,-2042 # 917c <__clz_tab+0x194>
    597e:	c03e                	sw	a5,0(sp)
    5980:	00003797          	auipc	a5,0x3
    5984:	7ff78793          	addi	a5,a5,2047 # 917f <__clz_tab+0x197>
    5988:	4752                	lw	a4,20(sp)
    598a:	c31c                	sw	a5,0(a4)
    598c:	40ba                	lw	ra,140(sp)
    598e:	442a                	lw	s0,136(sp)
    5990:	4502                	lw	a0,0(sp)
    5992:	449a                	lw	s1,132(sp)
    5994:	490a                	lw	s2,128(sp)
    5996:	59f6                	lw	s3,124(sp)
    5998:	5a66                	lw	s4,120(sp)
    599a:	5ad6                	lw	s5,116(sp)
    599c:	5b46                	lw	s6,112(sp)
    599e:	5bb6                	lw	s7,108(sp)
    59a0:	5c26                	lw	s8,104(sp)
    59a2:	5c96                	lw	s9,100(sp)
    59a4:	5d06                	lw	s10,96(sp)
    59a6:	4df6                	lw	s11,92(sp)
    59a8:	6149                	addi	sp,sp,144
    59aa:	8082                	ret
    59ac:	4601                	li	a2,0
    59ae:	4681                	li	a3,0
    59b0:	8522                	mv	a0,s0
    59b2:	85e2                	mv	a1,s8
    59b4:	ce22                	sw	s0,28(sp)
    59b6:	d462                	sw	s8,40(sp)
    59b8:	60b010ef          	jal	ra,77c2 <__eqdf2>
    59bc:	e105                	bnez	a0,59dc <_dtoa_r+0x11c>
    59be:	5742                	lw	a4,48(sp)
    59c0:	4785                	li	a5,1
    59c2:	c31c                	sw	a5,0(a4)
    59c4:	00003797          	auipc	a5,0x3
    59c8:	db878793          	addi	a5,a5,-584 # 877c <cmdtable+0x234>
    59cc:	c03e                	sw	a5,0(sp)
    59ce:	47d2                	lw	a5,20(sp)
    59d0:	dfd5                	beqz	a5,598c <_dtoa_r+0xcc>
    59d2:	00003797          	auipc	a5,0x3
    59d6:	dab78793          	addi	a5,a5,-597 # 877d <cmdtable+0x235>
    59da:	b77d                	j	5988 <_dtoa_r+0xc8>
    59dc:	00b8                	addi	a4,sp,72
    59de:	00f4                	addi	a3,sp,76
    59e0:	8662                	mv	a2,s8
    59e2:	85a2                	mv	a1,s0
    59e4:	8526                	mv	a0,s1
    59e6:	014c5913          	srli	s2,s8,0x14
    59ea:	16e010ef          	jal	ra,6b58 <__d2b>
    59ee:	7ff97913          	andi	s2,s2,2047
    59f2:	89aa                	mv	s3,a0
    59f4:	4aa6                	lw	s5,72(sp)
    59f6:	10090d63          	beqz	s2,5b10 <_dtoa_r+0x250>
    59fa:	57a2                	lw	a5,40(sp)
    59fc:	4572                	lw	a0,28(sp)
    59fe:	c0190913          	addi	s2,s2,-1023
    5a02:	00c79593          	slli	a1,a5,0xc
    5a06:	81b1                	srli	a1,a1,0xc
    5a08:	3ff007b7          	lui	a5,0x3ff00
    5a0c:	8ddd                	or	a1,a1,a5
    5a0e:	dc02                	sw	zero,56(sp)
    5a10:	00003797          	auipc	a5,0x3
    5a14:	71878793          	addi	a5,a5,1816 # 9128 <__clz_tab+0x140>
    5a18:	4390                	lw	a2,0(a5)
    5a1a:	43d4                	lw	a3,4(a5)
    5a1c:	775010ef          	jal	ra,7990 <__subdf3>
    5a20:	00003797          	auipc	a5,0x3
    5a24:	71078793          	addi	a5,a5,1808 # 9130 <__clz_tab+0x148>
    5a28:	4390                	lw	a2,0(a5)
    5a2a:	43d4                	lw	a3,4(a5)
    5a2c:	ed8fe0ef          	jal	ra,4104 <__muldf3>
    5a30:	00003797          	auipc	a5,0x3
    5a34:	70878793          	addi	a5,a5,1800 # 9138 <__clz_tab+0x150>
    5a38:	4390                	lw	a2,0(a5)
    5a3a:	43d4                	lw	a3,4(a5)
    5a3c:	656010ef          	jal	ra,7092 <__adddf3>
    5a40:	8b2a                	mv	s6,a0
    5a42:	854a                	mv	a0,s2
    5a44:	8bae                	mv	s7,a1
    5a46:	72c020ef          	jal	ra,8172 <__floatsidf>
    5a4a:	00003797          	auipc	a5,0x3
    5a4e:	6f678793          	addi	a5,a5,1782 # 9140 <__clz_tab+0x158>
    5a52:	4390                	lw	a2,0(a5)
    5a54:	43d4                	lw	a3,4(a5)
    5a56:	eaefe0ef          	jal	ra,4104 <__muldf3>
    5a5a:	862a                	mv	a2,a0
    5a5c:	86ae                	mv	a3,a1
    5a5e:	855a                	mv	a0,s6
    5a60:	85de                	mv	a1,s7
    5a62:	630010ef          	jal	ra,7092 <__adddf3>
    5a66:	8b2a                	mv	s6,a0
    5a68:	8bae                	mv	s7,a1
    5a6a:	6a0020ef          	jal	ra,810a <__fixdfsi>
    5a6e:	842a                	mv	s0,a0
    5a70:	4601                	li	a2,0
    5a72:	4681                	li	a3,0
    5a74:	855a                	mv	a0,s6
    5a76:	85de                	mv	a1,s7
    5a78:	663010ef          	jal	ra,78da <__ledf2>
    5a7c:	00055b63          	bgez	a0,5a92 <_dtoa_r+0x1d2>
    5a80:	8522                	mv	a0,s0
    5a82:	6f0020ef          	jal	ra,8172 <__floatsidf>
    5a86:	865a                	mv	a2,s6
    5a88:	86de                	mv	a3,s7
    5a8a:	539010ef          	jal	ra,77c2 <__eqdf2>
    5a8e:	c111                	beqz	a0,5a92 <_dtoa_r+0x1d2>
    5a90:	147d                	addi	s0,s0,-1
    5a92:	4705                	li	a4,1
    5a94:	47d9                	li	a5,22
    5a96:	d63a                	sw	a4,44(sp)
    5a98:	0287e363          	bltu	a5,s0,5abe <_dtoa_r+0x1fe>
    5a9c:	00341713          	slli	a4,s0,0x3
    5aa0:	00003797          	auipc	a5,0x3
    5aa4:	77878793          	addi	a5,a5,1912 # 9218 <__mprec_tens>
    5aa8:	97ba                	add	a5,a5,a4
    5aaa:	4390                	lw	a2,0(a5)
    5aac:	43d4                	lw	a3,4(a5)
    5aae:	4572                	lw	a0,28(sp)
    5ab0:	55a2                	lw	a1,40(sp)
    5ab2:	629010ef          	jal	ra,78da <__ledf2>
    5ab6:	00055363          	bgez	a0,5abc <_dtoa_r+0x1fc>
    5aba:	147d                	addi	s0,s0,-1
    5abc:	d602                	sw	zero,44(sp)
    5abe:	412a8933          	sub	s2,s5,s2
    5ac2:	fff90b93          	addi	s7,s2,-1
    5ac6:	4b01                	li	s6,0
    5ac8:	000bd663          	bgez	s7,5ad4 <_dtoa_r+0x214>
    5acc:	4b05                	li	s6,1
    5ace:	412b0b33          	sub	s6,s6,s2
    5ad2:	4b81                	li	s7,0
    5ad4:	06044e63          	bltz	s0,5b50 <_dtoa_r+0x290>
    5ad8:	9ba2                	add	s7,s7,s0
    5ada:	cc22                	sw	s0,24(sp)
    5adc:	4a81                	li	s5,0
    5ade:	4712                	lw	a4,4(sp)
    5ae0:	47a5                	li	a5,9
    5ae2:	14e7e563          	bltu	a5,a4,5c2c <_dtoa_r+0x36c>
    5ae6:	4795                	li	a5,5
    5ae8:	4c85                	li	s9,1
    5aea:	00e7d663          	bge	a5,a4,5af6 <_dtoa_r+0x236>
    5aee:	ffc70793          	addi	a5,a4,-4
    5af2:	c23e                	sw	a5,4(sp)
    5af4:	4c81                	li	s9,0
    5af6:	4712                	lw	a4,4(sp)
    5af8:	478d                	li	a5,3
    5afa:	10f70e63          	beq	a4,a5,5c16 <_dtoa_r+0x356>
    5afe:	04e7cf63          	blt	a5,a4,5b5c <_dtoa_r+0x29c>
    5b02:	4789                	li	a5,2
    5b04:	c802                	sw	zero,16(sp)
    5b06:	06f70d63          	beq	a4,a5,5b80 <_dtoa_r+0x2c0>
    5b0a:	4785                	li	a5,1
    5b0c:	c83e                	sw	a5,16(sp)
    5b0e:	a08d                	j	5b70 <_dtoa_r+0x2b0>
    5b10:	4936                	lw	s2,76(sp)
    5b12:	02000793          	li	a5,32
    5b16:	9956                	add	s2,s2,s5
    5b18:	43290713          	addi	a4,s2,1074
    5b1c:	02e7d563          	bge	a5,a4,5b46 <_dtoa_r+0x286>
    5b20:	04000513          	li	a0,64
    5b24:	8d19                	sub	a0,a0,a4
    5b26:	41290793          	addi	a5,s2,1042
    5b2a:	00ac1533          	sll	a0,s8,a0
    5b2e:	00f45433          	srl	s0,s0,a5
    5b32:	8d41                	or	a0,a0,s0
    5b34:	a81fe0ef          	jal	ra,45b4 <__floatunsidf>
    5b38:	fe1007b7          	lui	a5,0xfe100
    5b3c:	95be                	add	a1,a1,a5
    5b3e:	4785                	li	a5,1
    5b40:	197d                	addi	s2,s2,-1
    5b42:	dc3e                	sw	a5,56(sp)
    5b44:	b5f1                	j	5a10 <_dtoa_r+0x150>
    5b46:	40e78533          	sub	a0,a5,a4
    5b4a:	00a41533          	sll	a0,s0,a0
    5b4e:	b7dd                	j	5b34 <_dtoa_r+0x274>
    5b50:	408b0b33          	sub	s6,s6,s0
    5b54:	40800ab3          	neg	s5,s0
    5b58:	cc02                	sw	zero,24(sp)
    5b5a:	b751                	j	5ade <_dtoa_r+0x21e>
    5b5c:	4712                	lw	a4,4(sp)
    5b5e:	4791                	li	a5,4
    5b60:	00f70e63          	beq	a4,a5,5b7c <_dtoa_r+0x2bc>
    5b64:	4705                	li	a4,1
    5b66:	c83a                	sw	a4,16(sp)
    5b68:	4712                	lw	a4,4(sp)
    5b6a:	4795                	li	a5,5
    5b6c:	0af70663          	beq	a4,a5,5c18 <_dtoa_r+0x358>
    5b70:	57fd                	li	a5,-1
    5b72:	c43e                	sw	a5,8(sp)
    5b74:	5dfd                	li	s11,-1
    5b76:	47c9                	li	a5,18
    5b78:	c602                	sw	zero,12(sp)
    5b7a:	a819                	j	5b90 <_dtoa_r+0x2d0>
    5b7c:	4785                	li	a5,1
    5b7e:	c83e                	sw	a5,16(sp)
    5b80:	47b2                	lw	a5,12(sp)
    5b82:	0af04863          	bgtz	a5,5c32 <_dtoa_r+0x372>
    5b86:	4785                	li	a5,1
    5b88:	4705                	li	a4,1
    5b8a:	c43e                	sw	a5,8(sp)
    5b8c:	4d85                	li	s11,1
    5b8e:	c63a                	sw	a4,12(sp)
    5b90:	0244a903          	lw	s2,36(s1)
    5b94:	4711                	li	a4,4
    5b96:	00092223          	sw	zero,4(s2)
    5b9a:	01470693          	addi	a3,a4,20
    5b9e:	00492583          	lw	a1,4(s2)
    5ba2:	08d7fc63          	bgeu	a5,a3,5c3a <_dtoa_r+0x37a>
    5ba6:	8526                	mv	a0,s1
    5ba8:	18d000ef          	jal	ra,6534 <_Balloc>
    5bac:	50dc                	lw	a5,36(s1)
    5bae:	00a92023          	sw	a0,0(s2)
    5bb2:	439c                	lw	a5,0(a5)
    5bb4:	c03e                	sw	a5,0(sp)
    5bb6:	47b9                	li	a5,14
    5bb8:	1db7e663          	bltu	a5,s11,5d84 <_dtoa_r+0x4c4>
    5bbc:	1c0c8463          	beqz	s9,5d84 <_dtoa_r+0x4c4>
    5bc0:	0a805e63          	blez	s0,5c7c <_dtoa_r+0x3bc>
    5bc4:	00f47793          	andi	a5,s0,15
    5bc8:	00379713          	slli	a4,a5,0x3
    5bcc:	40445c93          	srai	s9,s0,0x4
    5bd0:	00003797          	auipc	a5,0x3
    5bd4:	64878793          	addi	a5,a5,1608 # 9218 <__mprec_tens>
    5bd8:	97ba                	add	a5,a5,a4
    5bda:	010cf693          	andi	a3,s9,16
    5bde:	4398                	lw	a4,0(a5)
    5be0:	4909                	li	s2,2
    5be2:	43dc                	lw	a5,4(a5)
    5be4:	c685                	beqz	a3,5c0c <_dtoa_r+0x34c>
    5be6:	00003697          	auipc	a3,0x3
    5bea:	60a68693          	addi	a3,a3,1546 # 91f0 <__mprec_bigtens>
    5bee:	5290                	lw	a2,32(a3)
    5bf0:	4572                	lw	a0,28(sp)
    5bf2:	52d4                	lw	a3,36(a3)
    5bf4:	55a2                	lw	a1,40(sp)
    5bf6:	d03a                	sw	a4,32(sp)
    5bf8:	d23e                	sw	a5,36(sp)
    5bfa:	f5bfd0ef          	jal	ra,3b54 <__divdf3>
    5bfe:	5702                	lw	a4,32(sp)
    5c00:	5792                	lw	a5,36(sp)
    5c02:	00fcfc93          	andi	s9,s9,15
    5c06:	8a2a                	mv	s4,a0
    5c08:	8c2e                	mv	s8,a1
    5c0a:	490d                	li	s2,3
    5c0c:	00003d17          	auipc	s10,0x3
    5c10:	5e4d0d13          	addi	s10,s10,1508 # 91f0 <__mprec_bigtens>
    5c14:	a889                	j	5c66 <_dtoa_r+0x3a6>
    5c16:	c802                	sw	zero,16(sp)
    5c18:	47b2                	lw	a5,12(sp)
    5c1a:	97a2                	add	a5,a5,s0
    5c1c:	c43e                	sw	a5,8(sp)
    5c1e:	00178d93          	addi	s11,a5,1
    5c22:	87ee                	mv	a5,s11
    5c24:	f7b046e3          	bgtz	s11,5b90 <_dtoa_r+0x2d0>
    5c28:	4785                	li	a5,1
    5c2a:	b79d                	j	5b90 <_dtoa_r+0x2d0>
    5c2c:	4c85                	li	s9,1
    5c2e:	c202                	sw	zero,4(sp)
    5c30:	bde9                	j	5b0a <_dtoa_r+0x24a>
    5c32:	47b2                	lw	a5,12(sp)
    5c34:	c43e                	sw	a5,8(sp)
    5c36:	8dbe                	mv	s11,a5
    5c38:	bfa1                	j	5b90 <_dtoa_r+0x2d0>
    5c3a:	0585                	addi	a1,a1,1
    5c3c:	00b92223          	sw	a1,4(s2)
    5c40:	0706                	slli	a4,a4,0x1
    5c42:	bfa1                	j	5b9a <_dtoa_r+0x2da>
    5c44:	001cf693          	andi	a3,s9,1
    5c48:	ce81                	beqz	a3,5c60 <_dtoa_r+0x3a0>
    5c4a:	000d2603          	lw	a2,0(s10)
    5c4e:	004d2683          	lw	a3,4(s10)
    5c52:	853a                	mv	a0,a4
    5c54:	85be                	mv	a1,a5
    5c56:	caefe0ef          	jal	ra,4104 <__muldf3>
    5c5a:	0905                	addi	s2,s2,1
    5c5c:	872a                	mv	a4,a0
    5c5e:	87ae                	mv	a5,a1
    5c60:	401cdc93          	srai	s9,s9,0x1
    5c64:	0d21                	addi	s10,s10,8
    5c66:	fc0c9fe3          	bnez	s9,5c44 <_dtoa_r+0x384>
    5c6a:	863a                	mv	a2,a4
    5c6c:	86be                	mv	a3,a5
    5c6e:	8552                	mv	a0,s4
    5c70:	85e2                	mv	a1,s8
    5c72:	ee3fd0ef          	jal	ra,3b54 <__divdf3>
    5c76:	8a2a                	mv	s4,a0
    5c78:	8c2e                	mv	s8,a1
    5c7a:	a081                	j	5cba <_dtoa_r+0x3fa>
    5c7c:	4909                	li	s2,2
    5c7e:	cc15                	beqz	s0,5cba <_dtoa_r+0x3fa>
    5c80:	40800cb3          	neg	s9,s0
    5c84:	00fcf793          	andi	a5,s9,15
    5c88:	00379713          	slli	a4,a5,0x3
    5c8c:	00003797          	auipc	a5,0x3
    5c90:	58c78793          	addi	a5,a5,1420 # 9218 <__mprec_tens>
    5c94:	97ba                	add	a5,a5,a4
    5c96:	4390                	lw	a2,0(a5)
    5c98:	43d4                	lw	a3,4(a5)
    5c9a:	4572                	lw	a0,28(sp)
    5c9c:	55a2                	lw	a1,40(sp)
    5c9e:	404cdc93          	srai	s9,s9,0x4
    5ca2:	00003d17          	auipc	s10,0x3
    5ca6:	54ed0d13          	addi	s10,s10,1358 # 91f0 <__mprec_bigtens>
    5caa:	c5afe0ef          	jal	ra,4104 <__muldf3>
    5cae:	8a2a                	mv	s4,a0
    5cb0:	8c2e                	mv	s8,a1
    5cb2:	4781                	li	a5,0
    5cb4:	120c9c63          	bnez	s9,5dec <_dtoa_r+0x52c>
    5cb8:	ffdd                	bnez	a5,5c76 <_dtoa_r+0x3b6>
    5cba:	57b2                	lw	a5,44(sp)
    5cbc:	14078763          	beqz	a5,5e0a <_dtoa_r+0x54a>
    5cc0:	00003717          	auipc	a4,0x3
    5cc4:	48870713          	addi	a4,a4,1160 # 9148 <__clz_tab+0x160>
    5cc8:	4310                	lw	a2,0(a4)
    5cca:	4354                	lw	a3,4(a4)
    5ccc:	8552                	mv	a0,s4
    5cce:	85e2                	mv	a1,s8
    5cd0:	d052                	sw	s4,32(sp)
    5cd2:	409010ef          	jal	ra,78da <__ledf2>
    5cd6:	12055a63          	bgez	a0,5e0a <_dtoa_r+0x54a>
    5cda:	120d8b63          	beqz	s11,5e10 <_dtoa_r+0x550>
    5cde:	47a2                	lw	a5,8(sp)
    5ce0:	0af05063          	blez	a5,5d80 <_dtoa_r+0x4c0>
    5ce4:	00003717          	auipc	a4,0x3
    5ce8:	46c70713          	addi	a4,a4,1132 # 9150 <__clz_tab+0x168>
    5cec:	5782                	lw	a5,32(sp)
    5cee:	4310                	lw	a2,0(a4)
    5cf0:	4354                	lw	a3,4(a4)
    5cf2:	853e                	mv	a0,a5
    5cf4:	85e2                	mv	a1,s8
    5cf6:	c0efe0ef          	jal	ra,4104 <__muldf3>
    5cfa:	47a2                	lw	a5,8(sp)
    5cfc:	fff40d13          	addi	s10,s0,-1
    5d00:	8a2a                	mv	s4,a0
    5d02:	8c2e                	mv	s8,a1
    5d04:	0905                	addi	s2,s2,1
    5d06:	8762                	mv	a4,s8
    5d08:	854a                	mv	a0,s2
    5d0a:	de3e                	sw	a5,60(sp)
    5d0c:	da52                	sw	s4,52(sp)
    5d0e:	8cba                	mv	s9,a4
    5d10:	d03a                	sw	a4,32(sp)
    5d12:	460020ef          	jal	ra,8172 <__floatsidf>
    5d16:	5852                	lw	a6,52(sp)
    5d18:	5702                	lw	a4,32(sp)
    5d1a:	fcc00937          	lui	s2,0xfcc00
    5d1e:	8642                	mv	a2,a6
    5d20:	86ba                	mv	a3,a4
    5d22:	be2fe0ef          	jal	ra,4104 <__muldf3>
    5d26:	00003697          	auipc	a3,0x3
    5d2a:	43268693          	addi	a3,a3,1074 # 9158 <__clz_tab+0x170>
    5d2e:	4290                	lw	a2,0(a3)
    5d30:	42d4                	lw	a3,4(a3)
    5d32:	8c52                	mv	s8,s4
    5d34:	35e010ef          	jal	ra,7092 <__adddf3>
    5d38:	57f2                	lw	a5,60(sp)
    5d3a:	8a2a                	mv	s4,a0
    5d3c:	992e                	add	s2,s2,a1
    5d3e:	efe1                	bnez	a5,5e16 <_dtoa_r+0x556>
    5d40:	00003797          	auipc	a5,0x3
    5d44:	42078793          	addi	a5,a5,1056 # 9160 <__clz_tab+0x178>
    5d48:	5852                	lw	a6,52(sp)
    5d4a:	5702                	lw	a4,32(sp)
    5d4c:	4390                	lw	a2,0(a5)
    5d4e:	43d4                	lw	a3,4(a5)
    5d50:	8542                	mv	a0,a6
    5d52:	85ba                	mv	a1,a4
    5d54:	43d010ef          	jal	ra,7990 <__subdf3>
    5d58:	8652                	mv	a2,s4
    5d5a:	86ca                	mv	a3,s2
    5d5c:	8c2a                	mv	s8,a0
    5d5e:	8cae                	mv	s9,a1
    5d60:	2cd010ef          	jal	ra,782c <__gedf2>
    5d64:	54a04063          	bgtz	a0,62a4 <_dtoa_r+0x9e4>
    5d68:	800007b7          	lui	a5,0x80000
    5d6c:	0127c7b3          	xor	a5,a5,s2
    5d70:	8652                	mv	a2,s4
    5d72:	86be                	mv	a3,a5
    5d74:	8562                	mv	a0,s8
    5d76:	85e6                	mv	a1,s9
    5d78:	363010ef          	jal	ra,78da <__ledf2>
    5d7c:	52054163          	bltz	a0,629e <_dtoa_r+0x9de>
    5d80:	4a72                	lw	s4,28(sp)
    5d82:	5c22                	lw	s8,40(sp)
    5d84:	47b6                	lw	a5,76(sp)
    5d86:	3007c663          	bltz	a5,6092 <_dtoa_r+0x7d2>
    5d8a:	4739                	li	a4,14
    5d8c:	30874363          	blt	a4,s0,6092 <_dtoa_r+0x7d2>
    5d90:	00341713          	slli	a4,s0,0x3
    5d94:	00003797          	auipc	a5,0x3
    5d98:	48478793          	addi	a5,a5,1156 # 9218 <__mprec_tens>
    5d9c:	97ba                	add	a5,a5,a4
    5d9e:	0007ab03          	lw	s6,0(a5)
    5da2:	0047ab83          	lw	s7,4(a5)
    5da6:	47b2                	lw	a5,12(sp)
    5da8:	2007d263          	bgez	a5,5fac <_dtoa_r+0x6ec>
    5dac:	21b04063          	bgtz	s11,5fac <_dtoa_r+0x6ec>
    5db0:	4e0d9763          	bnez	s11,629e <_dtoa_r+0x9de>
    5db4:	00003797          	auipc	a5,0x3
    5db8:	3ac78793          	addi	a5,a5,940 # 9160 <__clz_tab+0x178>
    5dbc:	4390                	lw	a2,0(a5)
    5dbe:	43d4                	lw	a3,4(a5)
    5dc0:	855a                	mv	a0,s6
    5dc2:	85de                	mv	a1,s7
    5dc4:	b40fe0ef          	jal	ra,4104 <__muldf3>
    5dc8:	8652                	mv	a2,s4
    5dca:	86e2                	mv	a3,s8
    5dcc:	261010ef          	jal	ra,782c <__gedf2>
    5dd0:	4a81                	li	s5,0
    5dd2:	4901                	li	s2,0
    5dd4:	4a055063          	bgez	a0,6274 <_dtoa_r+0x9b4>
    5dd8:	4782                	lw	a5,0(sp)
    5dda:	4702                	lw	a4,0(sp)
    5ddc:	0405                	addi	s0,s0,1
    5dde:	00178a13          	addi	s4,a5,1
    5de2:	03100793          	li	a5,49
    5de6:	00f70023          	sb	a5,0(a4)
    5dea:	a949                	j	627c <_dtoa_r+0x9bc>
    5dec:	001cf713          	andi	a4,s9,1
    5df0:	cb09                	beqz	a4,5e02 <_dtoa_r+0x542>
    5df2:	000d2603          	lw	a2,0(s10)
    5df6:	004d2683          	lw	a3,4(s10)
    5dfa:	0905                	addi	s2,s2,1
    5dfc:	b08fe0ef          	jal	ra,4104 <__muldf3>
    5e00:	4785                	li	a5,1
    5e02:	401cdc93          	srai	s9,s9,0x1
    5e06:	0d21                	addi	s10,s10,8
    5e08:	b575                	j	5cb4 <_dtoa_r+0x3f4>
    5e0a:	8d22                	mv	s10,s0
    5e0c:	87ee                	mv	a5,s11
    5e0e:	bde5                	j	5d06 <_dtoa_r+0x446>
    5e10:	8d22                	mv	s10,s0
    5e12:	4781                	li	a5,0
    5e14:	bdcd                	j	5d06 <_dtoa_r+0x446>
    5e16:	fff78693          	addi	a3,a5,-1
    5e1a:	00369613          	slli	a2,a3,0x3
    5e1e:	00003697          	auipc	a3,0x3
    5e22:	3fa68693          	addi	a3,a3,1018 # 9218 <__mprec_tens>
    5e26:	96b2                	add	a3,a3,a2
    5e28:	4288                	lw	a0,0(a3)
    5e2a:	42cc                	lw	a1,4(a3)
    5e2c:	4682                	lw	a3,0(sp)
    5e2e:	97b6                	add	a5,a5,a3
    5e30:	da3e                	sw	a5,52(sp)
    5e32:	47c2                	lw	a5,16(sp)
    5e34:	c3e9                	beqz	a5,5ef6 <_dtoa_r+0x636>
    5e36:	00003797          	auipc	a5,0x3
    5e3a:	33278793          	addi	a5,a5,818 # 9168 <__clz_tab+0x180>
    5e3e:	862a                	mv	a2,a0
    5e40:	86ae                	mv	a3,a1
    5e42:	4388                	lw	a0,0(a5)
    5e44:	43cc                	lw	a1,4(a5)
    5e46:	de4a                	sw	s2,60(sp)
    5e48:	d052                	sw	s4,32(sp)
    5e4a:	d0bfd0ef          	jal	ra,3b54 <__divdf3>
    5e4e:	5802                	lw	a6,32(sp)
    5e50:	5772                	lw	a4,60(sp)
    5e52:	00003917          	auipc	s2,0x3
    5e56:	2fe90913          	addi	s2,s2,766 # 9150 <__clz_tab+0x168>
    5e5a:	8642                	mv	a2,a6
    5e5c:	86ba                	mv	a3,a4
    5e5e:	333010ef          	jal	ra,7990 <__subdf3>
    5e62:	4a02                	lw	s4,0(sp)
    5e64:	d02a                	sw	a0,32(sp)
    5e66:	d22e                	sw	a1,36(sp)
    5e68:	85e6                	mv	a1,s9
    5e6a:	8562                	mv	a0,s8
    5e6c:	29e020ef          	jal	ra,810a <__fixdfsi>
    5e70:	de2a                	sw	a0,60(sp)
    5e72:	300020ef          	jal	ra,8172 <__floatsidf>
    5e76:	862a                	mv	a2,a0
    5e78:	86ae                	mv	a3,a1
    5e7a:	8562                	mv	a0,s8
    5e7c:	85e6                	mv	a1,s9
    5e7e:	313010ef          	jal	ra,7990 <__subdf3>
    5e82:	57f2                	lw	a5,60(sp)
    5e84:	8c2a                	mv	s8,a0
    5e86:	8cae                	mv	s9,a1
    5e88:	862a                	mv	a2,a0
    5e8a:	86ae                	mv	a3,a1
    5e8c:	5502                	lw	a0,32(sp)
    5e8e:	5592                	lw	a1,36(sp)
    5e90:	0a05                	addi	s4,s4,1
    5e92:	03078793          	addi	a5,a5,48
    5e96:	fefa0fa3          	sb	a5,-1(s4)
    5e9a:	193010ef          	jal	ra,782c <__gedf2>
    5e9e:	0ea04863          	bgtz	a0,5f8e <_dtoa_r+0x6ce>
    5ea2:	00003797          	auipc	a5,0x3
    5ea6:	2a678793          	addi	a5,a5,678 # 9148 <__clz_tab+0x160>
    5eaa:	4388                	lw	a0,0(a5)
    5eac:	43cc                	lw	a1,4(a5)
    5eae:	8662                	mv	a2,s8
    5eb0:	86e6                	mv	a3,s9
    5eb2:	2df010ef          	jal	ra,7990 <__subdf3>
    5eb6:	862a                	mv	a2,a0
    5eb8:	86ae                	mv	a3,a1
    5eba:	5502                	lw	a0,32(sp)
    5ebc:	5592                	lw	a1,36(sp)
    5ebe:	16f010ef          	jal	ra,782c <__gedf2>
    5ec2:	18a04163          	bgtz	a0,6044 <_dtoa_r+0x784>
    5ec6:	57d2                	lw	a5,52(sp)
    5ec8:	eafa0ce3          	beq	s4,a5,5d80 <_dtoa_r+0x4c0>
    5ecc:	00092603          	lw	a2,0(s2)
    5ed0:	00492683          	lw	a3,4(s2)
    5ed4:	5502                	lw	a0,32(sp)
    5ed6:	5592                	lw	a1,36(sp)
    5ed8:	a2cfe0ef          	jal	ra,4104 <__muldf3>
    5edc:	00092603          	lw	a2,0(s2)
    5ee0:	00492683          	lw	a3,4(s2)
    5ee4:	d02a                	sw	a0,32(sp)
    5ee6:	d22e                	sw	a1,36(sp)
    5ee8:	8562                	mv	a0,s8
    5eea:	85e6                	mv	a1,s9
    5eec:	a18fe0ef          	jal	ra,4104 <__muldf3>
    5ef0:	8c2a                	mv	s8,a0
    5ef2:	8cae                	mv	s9,a1
    5ef4:	bf95                	j	5e68 <_dtoa_r+0x5a8>
    5ef6:	8652                	mv	a2,s4
    5ef8:	86ca                	mv	a3,s2
    5efa:	a0afe0ef          	jal	ra,4104 <__muldf3>
    5efe:	5a52                	lw	s4,52(sp)
    5f00:	4902                	lw	s2,0(sp)
    5f02:	d02a                	sw	a0,32(sp)
    5f04:	d22e                	sw	a1,36(sp)
    5f06:	85e6                	mv	a1,s9
    5f08:	8562                	mv	a0,s8
    5f0a:	200020ef          	jal	ra,810a <__fixdfsi>
    5f0e:	de2a                	sw	a0,60(sp)
    5f10:	262020ef          	jal	ra,8172 <__floatsidf>
    5f14:	862a                	mv	a2,a0
    5f16:	86ae                	mv	a3,a1
    5f18:	8562                	mv	a0,s8
    5f1a:	85e6                	mv	a1,s9
    5f1c:	275010ef          	jal	ra,7990 <__subdf3>
    5f20:	5772                	lw	a4,60(sp)
    5f22:	57d2                	lw	a5,52(sp)
    5f24:	0905                	addi	s2,s2,1
    5f26:	03070713          	addi	a4,a4,48
    5f2a:	fee90fa3          	sb	a4,-1(s2)
    5f2e:	8c2a                	mv	s8,a0
    5f30:	8cae                	mv	s9,a1
    5f32:	06f91263          	bne	s2,a5,5f96 <_dtoa_r+0x6d6>
    5f36:	00003917          	auipc	s2,0x3
    5f3a:	23290913          	addi	s2,s2,562 # 9168 <__clz_tab+0x180>
    5f3e:	00092603          	lw	a2,0(s2)
    5f42:	00492683          	lw	a3,4(s2)
    5f46:	5502                	lw	a0,32(sp)
    5f48:	5592                	lw	a1,36(sp)
    5f4a:	148010ef          	jal	ra,7092 <__adddf3>
    5f4e:	862a                	mv	a2,a0
    5f50:	86ae                	mv	a3,a1
    5f52:	8562                	mv	a0,s8
    5f54:	85e6                	mv	a1,s9
    5f56:	0d7010ef          	jal	ra,782c <__gedf2>
    5f5a:	0ea04563          	bgtz	a0,6044 <_dtoa_r+0x784>
    5f5e:	5602                	lw	a2,32(sp)
    5f60:	5692                	lw	a3,36(sp)
    5f62:	00092503          	lw	a0,0(s2)
    5f66:	00492583          	lw	a1,4(s2)
    5f6a:	227010ef          	jal	ra,7990 <__subdf3>
    5f6e:	862a                	mv	a2,a0
    5f70:	86ae                	mv	a3,a1
    5f72:	8562                	mv	a0,s8
    5f74:	85e6                	mv	a1,s9
    5f76:	165010ef          	jal	ra,78da <__ledf2>
    5f7a:	03000793          	li	a5,48
    5f7e:	e00551e3          	bgez	a0,5d80 <_dtoa_r+0x4c0>
    5f82:	fffa4703          	lbu	a4,-1(s4)
    5f86:	fffa0693          	addi	a3,s4,-1
    5f8a:	00f70463          	beq	a4,a5,5f92 <_dtoa_r+0x6d2>
    5f8e:	846a                	mv	s0,s10
    5f90:	a859                	j	6026 <_dtoa_r+0x766>
    5f92:	8a36                	mv	s4,a3
    5f94:	b7fd                	j	5f82 <_dtoa_r+0x6c2>
    5f96:	00003797          	auipc	a5,0x3
    5f9a:	1ba78793          	addi	a5,a5,442 # 9150 <__clz_tab+0x168>
    5f9e:	4390                	lw	a2,0(a5)
    5fa0:	43d4                	lw	a3,4(a5)
    5fa2:	962fe0ef          	jal	ra,4104 <__muldf3>
    5fa6:	8c2a                	mv	s8,a0
    5fa8:	8cae                	mv	s9,a1
    5faa:	bfb1                	j	5f06 <_dtoa_r+0x646>
    5fac:	87e2                	mv	a5,s8
    5fae:	8cbe                	mv	s9,a5
    5fb0:	4782                	lw	a5,0(sp)
    5fb2:	8c52                	mv	s8,s4
    5fb4:	00003a97          	auipc	s5,0x3
    5fb8:	19ca8a93          	addi	s5,s5,412 # 9150 <__clz_tab+0x168>
    5fbc:	00178913          	addi	s2,a5,1
    5fc0:	9dbe                	add	s11,s11,a5
    5fc2:	865a                	mv	a2,s6
    5fc4:	86de                	mv	a3,s7
    5fc6:	8562                	mv	a0,s8
    5fc8:	85e6                	mv	a1,s9
    5fca:	b8bfd0ef          	jal	ra,3b54 <__divdf3>
    5fce:	13c020ef          	jal	ra,810a <__fixdfsi>
    5fd2:	8d2a                	mv	s10,a0
    5fd4:	19e020ef          	jal	ra,8172 <__floatsidf>
    5fd8:	865a                	mv	a2,s6
    5fda:	86de                	mv	a3,s7
    5fdc:	928fe0ef          	jal	ra,4104 <__muldf3>
    5fe0:	862a                	mv	a2,a0
    5fe2:	86ae                	mv	a3,a1
    5fe4:	8562                	mv	a0,s8
    5fe6:	85e6                	mv	a1,s9
    5fe8:	1a9010ef          	jal	ra,7990 <__subdf3>
    5fec:	030d0793          	addi	a5,s10,48
    5ff0:	fef90fa3          	sb	a5,-1(s2)
    5ff4:	862a                	mv	a2,a0
    5ff6:	86ae                	mv	a3,a1
    5ff8:	8a4a                	mv	s4,s2
    5ffa:	072d9d63          	bne	s11,s2,6074 <_dtoa_r+0x7b4>
    5ffe:	094010ef          	jal	ra,7092 <__adddf3>
    6002:	865a                	mv	a2,s6
    6004:	86de                	mv	a3,s7
    6006:	8c2a                	mv	s8,a0
    6008:	8cae                	mv	s9,a1
    600a:	023010ef          	jal	ra,782c <__gedf2>
    600e:	02a04a63          	bgtz	a0,6042 <_dtoa_r+0x782>
    6012:	865a                	mv	a2,s6
    6014:	86de                	mv	a3,s7
    6016:	8562                	mv	a0,s8
    6018:	85e6                	mv	a1,s9
    601a:	7a8010ef          	jal	ra,77c2 <__eqdf2>
    601e:	e501                	bnez	a0,6026 <_dtoa_r+0x766>
    6020:	001d7793          	andi	a5,s10,1
    6024:	ef99                	bnez	a5,6042 <_dtoa_r+0x782>
    6026:	85ce                	mv	a1,s3
    6028:	8526                	mv	a0,s1
    602a:	2b49                	jal	65bc <_Bfree>
    602c:	57c2                	lw	a5,48(sp)
    602e:	000a0023          	sb	zero,0(s4)
    6032:	0405                	addi	s0,s0,1
    6034:	c380                	sw	s0,0(a5)
    6036:	47d2                	lw	a5,20(sp)
    6038:	94078ae3          	beqz	a5,598c <_dtoa_r+0xcc>
    603c:	0147a023          	sw	s4,0(a5)
    6040:	b2b1                	j	598c <_dtoa_r+0xcc>
    6042:	8d22                	mv	s10,s0
    6044:	03900713          	li	a4,57
    6048:	fffa4683          	lbu	a3,-1(s4)
    604c:	fffa0793          	addi	a5,s4,-1
    6050:	00e69a63          	bne	a3,a4,6064 <_dtoa_r+0x7a4>
    6054:	4682                	lw	a3,0(sp)
    6056:	00f69d63          	bne	a3,a5,6070 <_dtoa_r+0x7b0>
    605a:	03000713          	li	a4,48
    605e:	0d05                	addi	s10,s10,1
    6060:	00e68023          	sb	a4,0(a3)
    6064:	0007c703          	lbu	a4,0(a5)
    6068:	0705                	addi	a4,a4,1
    606a:	00e78023          	sb	a4,0(a5)
    606e:	b705                	j	5f8e <_dtoa_r+0x6ce>
    6070:	8a3e                	mv	s4,a5
    6072:	bfd9                	j	6048 <_dtoa_r+0x788>
    6074:	000aa603          	lw	a2,0(s5)
    6078:	004aa683          	lw	a3,4(s5)
    607c:	0905                	addi	s2,s2,1
    607e:	886fe0ef          	jal	ra,4104 <__muldf3>
    6082:	4601                	li	a2,0
    6084:	4681                	li	a3,0
    6086:	8c2a                	mv	s8,a0
    6088:	8cae                	mv	s9,a1
    608a:	738010ef          	jal	ra,77c2 <__eqdf2>
    608e:	f915                	bnez	a0,5fc2 <_dtoa_r+0x702>
    6090:	bf59                	j	6026 <_dtoa_r+0x766>
    6092:	4742                	lw	a4,16(sp)
    6094:	0e070e63          	beqz	a4,6190 <_dtoa_r+0x8d0>
    6098:	4692                	lw	a3,4(sp)
    609a:	4705                	li	a4,1
    609c:	0cd74363          	blt	a4,a3,6162 <_dtoa_r+0x8a2>
    60a0:	5762                	lw	a4,56(sp)
    60a2:	43378793          	addi	a5,a5,1075
    60a6:	e709                	bnez	a4,60b0 <_dtoa_r+0x7f0>
    60a8:	4726                	lw	a4,72(sp)
    60aa:	03600793          	li	a5,54
    60ae:	8f99                	sub	a5,a5,a4
    60b0:	8d56                	mv	s10,s5
    60b2:	8cda                	mv	s9,s6
    60b4:	4585                	li	a1,1
    60b6:	8526                	mv	a0,s1
    60b8:	9b3e                	add	s6,s6,a5
    60ba:	9bbe                	add	s7,s7,a5
    60bc:	68c000ef          	jal	ra,6748 <__i2b>
    60c0:	892a                	mv	s2,a0
    60c2:	01905e63          	blez	s9,60de <_dtoa_r+0x81e>
    60c6:	01705c63          	blez	s7,60de <_dtoa_r+0x81e>
    60ca:	87e6                	mv	a5,s9
    60cc:	019bd363          	bge	s7,s9,60d2 <_dtoa_r+0x812>
    60d0:	87de                	mv	a5,s7
    60d2:	40fb0b33          	sub	s6,s6,a5
    60d6:	40fc8cb3          	sub	s9,s9,a5
    60da:	40fb8bb3          	sub	s7,s7,a5
    60de:	020a8f63          	beqz	s5,611c <_dtoa_r+0x85c>
    60e2:	47c2                	lw	a5,16(sp)
    60e4:	cbd5                	beqz	a5,6198 <_dtoa_r+0x8d8>
    60e6:	03a05363          	blez	s10,610c <_dtoa_r+0x84c>
    60ea:	85ca                	mv	a1,s2
    60ec:	866a                	mv	a2,s10
    60ee:	8526                	mv	a0,s1
    60f0:	7b8000ef          	jal	ra,68a8 <__pow5mult>
    60f4:	864e                	mv	a2,s3
    60f6:	85aa                	mv	a1,a0
    60f8:	892a                	mv	s2,a0
    60fa:	8526                	mv	a0,s1
    60fc:	668000ef          	jal	ra,6764 <__multiply>
    6100:	ce2a                	sw	a0,28(sp)
    6102:	85ce                	mv	a1,s3
    6104:	8526                	mv	a0,s1
    6106:	295d                	jal	65bc <_Bfree>
    6108:	47f2                	lw	a5,28(sp)
    610a:	89be                	mv	s3,a5
    610c:	41aa8633          	sub	a2,s5,s10
    6110:	c611                	beqz	a2,611c <_dtoa_r+0x85c>
    6112:	85ce                	mv	a1,s3
    6114:	8526                	mv	a0,s1
    6116:	792000ef          	jal	ra,68a8 <__pow5mult>
    611a:	89aa                	mv	s3,a0
    611c:	4585                	li	a1,1
    611e:	8526                	mv	a0,s1
    6120:	2525                	jal	6748 <__i2b>
    6122:	47e2                	lw	a5,24(sp)
    6124:	8aaa                	mv	s5,a0
    6126:	06f05b63          	blez	a5,619c <_dtoa_r+0x8dc>
    612a:	863e                	mv	a2,a5
    612c:	85aa                	mv	a1,a0
    612e:	8526                	mv	a0,s1
    6130:	778000ef          	jal	ra,68a8 <__pow5mult>
    6134:	4712                	lw	a4,4(sp)
    6136:	4785                	li	a5,1
    6138:	8aaa                	mv	s5,a0
    613a:	4d01                	li	s10,0
    613c:	06e7c863          	blt	a5,a4,61ac <_dtoa_r+0x8ec>
    6140:	4d01                	li	s10,0
    6142:	060a1263          	bnez	s4,61a6 <_dtoa_r+0x8e6>
    6146:	00cc1793          	slli	a5,s8,0xc
    614a:	8d52                	mv	s10,s4
    614c:	efa9                	bnez	a5,61a6 <_dtoa_r+0x8e6>
    614e:	7ff005b7          	lui	a1,0x7ff00
    6152:	00bc7c33          	and	s8,s8,a1
    6156:	040c0863          	beqz	s8,61a6 <_dtoa_r+0x8e6>
    615a:	0b05                	addi	s6,s6,1
    615c:	0b85                	addi	s7,s7,1
    615e:	4d05                	li	s10,1
    6160:	a099                	j	61a6 <_dtoa_r+0x8e6>
    6162:	fffd8d13          	addi	s10,s11,-1
    6166:	01aaca63          	blt	s5,s10,617a <_dtoa_r+0x8ba>
    616a:	41aa8d33          	sub	s10,s5,s10
    616e:	000dde63          	bgez	s11,618a <_dtoa_r+0x8ca>
    6172:	41bb0cb3          	sub	s9,s6,s11
    6176:	4781                	li	a5,0
    6178:	bf35                	j	60b4 <_dtoa_r+0x7f4>
    617a:	47e2                	lw	a5,24(sp)
    617c:	415d0ab3          	sub	s5,s10,s5
    6180:	97d6                	add	a5,a5,s5
    6182:	cc3e                	sw	a5,24(sp)
    6184:	8aea                	mv	s5,s10
    6186:	4d01                	li	s10,0
    6188:	b7dd                	j	616e <_dtoa_r+0x8ae>
    618a:	8cda                	mv	s9,s6
    618c:	87ee                	mv	a5,s11
    618e:	b71d                	j	60b4 <_dtoa_r+0x7f4>
    6190:	8d56                	mv	s10,s5
    6192:	8cda                	mv	s9,s6
    6194:	4901                	li	s2,0
    6196:	b735                	j	60c2 <_dtoa_r+0x802>
    6198:	8656                	mv	a2,s5
    619a:	bfa5                	j	6112 <_dtoa_r+0x852>
    619c:	4712                	lw	a4,4(sp)
    619e:	4785                	li	a5,1
    61a0:	4d01                	li	s10,0
    61a2:	f8e7dfe3          	bge	a5,a4,6140 <_dtoa_r+0x880>
    61a6:	47e2                	lw	a5,24(sp)
    61a8:	4505                	li	a0,1
    61aa:	cf81                	beqz	a5,61c2 <_dtoa_r+0x902>
    61ac:	010aa783          	lw	a5,16(s5)
    61b0:	078d                	addi	a5,a5,3
    61b2:	078a                	slli	a5,a5,0x2
    61b4:	97d6                	add	a5,a5,s5
    61b6:	43c8                	lw	a0,4(a5)
    61b8:	21c5                	jal	6698 <__hi0bits>
    61ba:	02000793          	li	a5,32
    61be:	40a78533          	sub	a0,a5,a0
    61c2:	955e                	add	a0,a0,s7
    61c4:	897d                	andi	a0,a0,31
    61c6:	c141                	beqz	a0,6246 <_dtoa_r+0x986>
    61c8:	02000793          	li	a5,32
    61cc:	8f89                	sub	a5,a5,a0
    61ce:	4711                	li	a4,4
    61d0:	06f75863          	bge	a4,a5,6240 <_dtoa_r+0x980>
    61d4:	47f1                	li	a5,28
    61d6:	40a78533          	sub	a0,a5,a0
    61da:	9b2a                	add	s6,s6,a0
    61dc:	9caa                	add	s9,s9,a0
    61de:	9baa                	add	s7,s7,a0
    61e0:	01605863          	blez	s6,61f0 <_dtoa_r+0x930>
    61e4:	85ce                	mv	a1,s3
    61e6:	865a                	mv	a2,s6
    61e8:	8526                	mv	a0,s1
    61ea:	77c000ef          	jal	ra,6966 <__lshift>
    61ee:	89aa                	mv	s3,a0
    61f0:	01705863          	blez	s7,6200 <_dtoa_r+0x940>
    61f4:	85d6                	mv	a1,s5
    61f6:	865e                	mv	a2,s7
    61f8:	8526                	mv	a0,s1
    61fa:	76c000ef          	jal	ra,6966 <__lshift>
    61fe:	8aaa                	mv	s5,a0
    6200:	57b2                	lw	a5,44(sp)
    6202:	c7a1                	beqz	a5,624a <_dtoa_r+0x98a>
    6204:	85d6                	mv	a1,s5
    6206:	854e                	mv	a0,s3
    6208:	02d000ef          	jal	ra,6a34 <__mcmp>
    620c:	02055f63          	bgez	a0,624a <_dtoa_r+0x98a>
    6210:	85ce                	mv	a1,s3
    6212:	4681                	li	a3,0
    6214:	4629                	li	a2,10
    6216:	8526                	mv	a0,s1
    6218:	26e5                	jal	6600 <__multadd>
    621a:	47c2                	lw	a5,16(sp)
    621c:	147d                	addi	s0,s0,-1
    621e:	89aa                	mv	s3,a0
    6220:	24078f63          	beqz	a5,647e <_dtoa_r+0xbbe>
    6224:	85ca                	mv	a1,s2
    6226:	4681                	li	a3,0
    6228:	4629                	li	a2,10
    622a:	8526                	mv	a0,s1
    622c:	2ed1                	jal	6600 <__multadd>
    622e:	47a2                	lw	a5,8(sp)
    6230:	892a                	mv	s2,a0
    6232:	08f04163          	bgtz	a5,62b4 <_dtoa_r+0x9f4>
    6236:	4712                	lw	a4,4(sp)
    6238:	4789                	li	a5,2
    623a:	06e7dd63          	bge	a5,a4,62b4 <_dtoa_r+0x9f4>
    623e:	a829                	j	6258 <_dtoa_r+0x998>
    6240:	fae780e3          	beq	a5,a4,61e0 <_dtoa_r+0x920>
    6244:	853e                	mv	a0,a5
    6246:	0571                	addi	a0,a0,28
    6248:	bf49                	j	61da <_dtoa_r+0x91a>
    624a:	07b04163          	bgtz	s11,62ac <_dtoa_r+0x9ec>
    624e:	4712                	lw	a4,4(sp)
    6250:	4789                	li	a5,2
    6252:	04e7dd63          	bge	a5,a4,62ac <_dtoa_r+0x9ec>
    6256:	c46e                	sw	s11,8(sp)
    6258:	47a2                	lw	a5,8(sp)
    625a:	ef89                	bnez	a5,6274 <_dtoa_r+0x9b4>
    625c:	85d6                	mv	a1,s5
    625e:	4681                	li	a3,0
    6260:	4615                	li	a2,5
    6262:	8526                	mv	a0,s1
    6264:	2e71                	jal	6600 <__multadd>
    6266:	8aaa                	mv	s5,a0
    6268:	85aa                	mv	a1,a0
    626a:	854e                	mv	a0,s3
    626c:	7c8000ef          	jal	ra,6a34 <__mcmp>
    6270:	b6a044e3          	bgtz	a0,5dd8 <_dtoa_r+0x518>
    6274:	47b2                	lw	a5,12(sp)
    6276:	4a02                	lw	s4,0(sp)
    6278:	fff7c413          	not	s0,a5
    627c:	4b01                	li	s6,0
    627e:	85d6                	mv	a1,s5
    6280:	8526                	mv	a0,s1
    6282:	2e2d                	jal	65bc <_Bfree>
    6284:	da0901e3          	beqz	s2,6026 <_dtoa_r+0x766>
    6288:	000b0763          	beqz	s6,6296 <_dtoa_r+0x9d6>
    628c:	012b0563          	beq	s6,s2,6296 <_dtoa_r+0x9d6>
    6290:	85da                	mv	a1,s6
    6292:	8526                	mv	a0,s1
    6294:	2625                	jal	65bc <_Bfree>
    6296:	85ca                	mv	a1,s2
    6298:	8526                	mv	a0,s1
    629a:	260d                	jal	65bc <_Bfree>
    629c:	b369                	j	6026 <_dtoa_r+0x766>
    629e:	4a81                	li	s5,0
    62a0:	4901                	li	s2,0
    62a2:	bfc9                	j	6274 <_dtoa_r+0x9b4>
    62a4:	846a                	mv	s0,s10
    62a6:	4a81                	li	s5,0
    62a8:	4901                	li	s2,0
    62aa:	b63d                	j	5dd8 <_dtoa_r+0x518>
    62ac:	47c2                	lw	a5,16(sp)
    62ae:	c46e                	sw	s11,8(sp)
    62b0:	1c078e63          	beqz	a5,648c <_dtoa_r+0xbcc>
    62b4:	01905863          	blez	s9,62c4 <_dtoa_r+0xa04>
    62b8:	85ca                	mv	a1,s2
    62ba:	8666                	mv	a2,s9
    62bc:	8526                	mv	a0,s1
    62be:	6a8000ef          	jal	ra,6966 <__lshift>
    62c2:	892a                	mv	s2,a0
    62c4:	854a                	mv	a0,s2
    62c6:	020d0563          	beqz	s10,62f0 <_dtoa_r+0xa30>
    62ca:	00492583          	lw	a1,4(s2)
    62ce:	8526                	mv	a0,s1
    62d0:	2495                	jal	6534 <_Balloc>
    62d2:	01092603          	lw	a2,16(s2)
    62d6:	8b2a                	mv	s6,a0
    62d8:	00c90593          	addi	a1,s2,12
    62dc:	0609                	addi	a2,a2,2
    62de:	060a                	slli	a2,a2,0x2
    62e0:	0531                	addi	a0,a0,12
    62e2:	bd2fe0ef          	jal	ra,46b4 <memcpy>
    62e6:	4605                	li	a2,1
    62e8:	85da                	mv	a1,s6
    62ea:	8526                	mv	a0,s1
    62ec:	67a000ef          	jal	ra,6966 <__lshift>
    62f0:	4782                	lw	a5,0(sp)
    62f2:	4722                	lw	a4,8(sp)
    62f4:	8b4a                	mv	s6,s2
    62f6:	00178c13          	addi	s8,a5,1
    62fa:	97ba                	add	a5,a5,a4
    62fc:	c63e                	sw	a5,12(sp)
    62fe:	001a7793          	andi	a5,s4,1
    6302:	892a                	mv	s2,a0
    6304:	c43e                	sw	a5,8(sp)
    6306:	85d6                	mv	a1,s5
    6308:	854e                	mv	a0,s3
    630a:	c7cff0ef          	jal	ra,5786 <quorem>
    630e:	85da                	mv	a1,s6
    6310:	8d2a                	mv	s10,a0
    6312:	03050d93          	addi	s11,a0,48
    6316:	854e                	mv	a0,s3
    6318:	71c000ef          	jal	ra,6a34 <__mcmp>
    631c:	864a                	mv	a2,s2
    631e:	8baa                	mv	s7,a0
    6320:	85d6                	mv	a1,s5
    6322:	8526                	mv	a0,s1
    6324:	742000ef          	jal	ra,6a66 <__mdiff>
    6328:	4550                	lw	a2,12(a0)
    632a:	fffc0c93          	addi	s9,s8,-1
    632e:	8a2a                	mv	s4,a0
    6330:	4705                	li	a4,1
    6332:	e611                	bnez	a2,633e <_dtoa_r+0xa7e>
    6334:	85aa                	mv	a1,a0
    6336:	854e                	mv	a0,s3
    6338:	6fc000ef          	jal	ra,6a34 <__mcmp>
    633c:	872a                	mv	a4,a0
    633e:	85d2                	mv	a1,s4
    6340:	8526                	mv	a0,s1
    6342:	c83a                	sw	a4,16(sp)
    6344:	2ca5                	jal	65bc <_Bfree>
    6346:	4792                	lw	a5,4(sp)
    6348:	4742                	lw	a4,16(sp)
    634a:	8a62                	mv	s4,s8
    634c:	00e7e6b3          	or	a3,a5,a4
    6350:	47a2                	lw	a5,8(sp)
    6352:	8edd                	or	a3,a3,a5
    6354:	ee81                	bnez	a3,636c <_dtoa_r+0xaac>
    6356:	03900713          	li	a4,57
    635a:	04ed8763          	beq	s11,a4,63a8 <_dtoa_r+0xae8>
    635e:	01705463          	blez	s7,6366 <_dtoa_r+0xaa6>
    6362:	031d0d93          	addi	s11,s10,49
    6366:	01bc8023          	sb	s11,0(s9)
    636a:	bf11                	j	627e <_dtoa_r+0x9be>
    636c:	000bca63          	bltz	s7,6380 <_dtoa_r+0xac0>
    6370:	4792                	lw	a5,4(sp)
    6372:	0177ebb3          	or	s7,a5,s7
    6376:	47a2                	lw	a5,8(sp)
    6378:	00fbebb3          	or	s7,s7,a5
    637c:	040b9463          	bnez	s7,63c4 <_dtoa_r+0xb04>
    6380:	fee053e3          	blez	a4,6366 <_dtoa_r+0xaa6>
    6384:	85ce                	mv	a1,s3
    6386:	4605                	li	a2,1
    6388:	8526                	mv	a0,s1
    638a:	2bf1                	jal	6966 <__lshift>
    638c:	85d6                	mv	a1,s5
    638e:	89aa                	mv	s3,a0
    6390:	6a4000ef          	jal	ra,6a34 <__mcmp>
    6394:	00a04663          	bgtz	a0,63a0 <_dtoa_r+0xae0>
    6398:	f579                	bnez	a0,6366 <_dtoa_r+0xaa6>
    639a:	001df713          	andi	a4,s11,1
    639e:	d761                	beqz	a4,6366 <_dtoa_r+0xaa6>
    63a0:	03900713          	li	a4,57
    63a4:	faed9fe3          	bne	s11,a4,6362 <_dtoa_r+0xaa2>
    63a8:	03900793          	li	a5,57
    63ac:	00fc8023          	sb	a5,0(s9)
    63b0:	03900693          	li	a3,57
    63b4:	fffa4783          	lbu	a5,-1(s4)
    63b8:	fffa0713          	addi	a4,s4,-1
    63bc:	08d78763          	beq	a5,a3,644a <_dtoa_r+0xb8a>
    63c0:	0785                	addi	a5,a5,1
    63c2:	a859                	j	6458 <_dtoa_r+0xb98>
    63c4:	00e05b63          	blez	a4,63da <_dtoa_r+0xb1a>
    63c8:	03900713          	li	a4,57
    63cc:	fced8ee3          	beq	s11,a4,63a8 <_dtoa_r+0xae8>
    63d0:	001d8793          	addi	a5,s11,1
    63d4:	00fc8023          	sb	a5,0(s9)
    63d8:	b55d                	j	627e <_dtoa_r+0x9be>
    63da:	47b2                	lw	a5,12(sp)
    63dc:	ffbc0fa3          	sb	s11,-1(s8)
    63e0:	03878d63          	beq	a5,s8,641a <_dtoa_r+0xb5a>
    63e4:	85ce                	mv	a1,s3
    63e6:	4681                	li	a3,0
    63e8:	4629                	li	a2,10
    63ea:	8526                	mv	a0,s1
    63ec:	2c11                	jal	6600 <__multadd>
    63ee:	89aa                	mv	s3,a0
    63f0:	4681                	li	a3,0
    63f2:	4629                	li	a2,10
    63f4:	85da                	mv	a1,s6
    63f6:	8526                	mv	a0,s1
    63f8:	012b1763          	bne	s6,s2,6406 <_dtoa_r+0xb46>
    63fc:	2411                	jal	6600 <__multadd>
    63fe:	8b2a                	mv	s6,a0
    6400:	892a                	mv	s2,a0
    6402:	0c05                	addi	s8,s8,1
    6404:	b709                	j	6306 <_dtoa_r+0xa46>
    6406:	2aed                	jal	6600 <__multadd>
    6408:	85ca                	mv	a1,s2
    640a:	8b2a                	mv	s6,a0
    640c:	4681                	li	a3,0
    640e:	4629                	li	a2,10
    6410:	8526                	mv	a0,s1
    6412:	22fd                	jal	6600 <__multadd>
    6414:	892a                	mv	s2,a0
    6416:	b7f5                	j	6402 <_dtoa_r+0xb42>
    6418:	4b01                	li	s6,0
    641a:	85ce                	mv	a1,s3
    641c:	4605                	li	a2,1
    641e:	8526                	mv	a0,s1
    6420:	2399                	jal	6966 <__lshift>
    6422:	85d6                	mv	a1,s5
    6424:	89aa                	mv	s3,a0
    6426:	60e000ef          	jal	ra,6a34 <__mcmp>
    642a:	f8a043e3          	bgtz	a0,63b0 <_dtoa_r+0xaf0>
    642e:	e501                	bnez	a0,6436 <_dtoa_r+0xb76>
    6430:	001df793          	andi	a5,s11,1
    6434:	ffb5                	bnez	a5,63b0 <_dtoa_r+0xaf0>
    6436:	03000793          	li	a5,48
    643a:	fffa4703          	lbu	a4,-1(s4)
    643e:	fffa0693          	addi	a3,s4,-1
    6442:	e2f71ee3          	bne	a4,a5,627e <_dtoa_r+0x9be>
    6446:	8a36                	mv	s4,a3
    6448:	bfcd                	j	643a <_dtoa_r+0xb7a>
    644a:	4782                	lw	a5,0(sp)
    644c:	00e79963          	bne	a5,a4,645e <_dtoa_r+0xb9e>
    6450:	4702                	lw	a4,0(sp)
    6452:	0405                	addi	s0,s0,1
    6454:	03100793          	li	a5,49
    6458:	00f70023          	sb	a5,0(a4)
    645c:	b50d                	j	627e <_dtoa_r+0x9be>
    645e:	8a3a                	mv	s4,a4
    6460:	bf91                	j	63b4 <_dtoa_r+0xaf4>
    6462:	4752                	lw	a4,20(sp)
    6464:	00003797          	auipc	a5,0x3
    6468:	d0c78793          	addi	a5,a5,-756 # 9170 <__clz_tab+0x188>
    646c:	c03e                	sw	a5,0(sp)
    646e:	00003797          	auipc	a5,0x3
    6472:	d0a78793          	addi	a5,a5,-758 # 9178 <__clz_tab+0x190>
    6476:	d0071963          	bnez	a4,5988 <_dtoa_r+0xc8>
    647a:	d12ff06f          	j	598c <_dtoa_r+0xcc>
    647e:	47a2                	lw	a5,8(sp)
    6480:	00f04663          	bgtz	a5,648c <_dtoa_r+0xbcc>
    6484:	4712                	lw	a4,4(sp)
    6486:	4789                	li	a5,2
    6488:	dce7c8e3          	blt	a5,a4,6258 <_dtoa_r+0x998>
    648c:	4a02                	lw	s4,0(sp)
    648e:	85d6                	mv	a1,s5
    6490:	854e                	mv	a0,s3
    6492:	af4ff0ef          	jal	ra,5786 <quorem>
    6496:	4782                	lw	a5,0(sp)
    6498:	0a05                	addi	s4,s4,1
    649a:	03050d93          	addi	s11,a0,48
    649e:	40fa0733          	sub	a4,s4,a5
    64a2:	47a2                	lw	a5,8(sp)
    64a4:	ffba0fa3          	sb	s11,-1(s4)
    64a8:	f6f758e3          	bge	a4,a5,6418 <_dtoa_r+0xb58>
    64ac:	85ce                	mv	a1,s3
    64ae:	4681                	li	a3,0
    64b0:	4629                	li	a2,10
    64b2:	8526                	mv	a0,s1
    64b4:	22b1                	jal	6600 <__multadd>
    64b6:	89aa                	mv	s3,a0
    64b8:	bfd9                	j	648e <_dtoa_r+0xbce>

000064ba <__locale_ctype_ptr_l>:
    64ba:	0ec52503          	lw	a0,236(a0)
    64be:	8082                	ret

000064c0 <_localeconv_r>:
    64c0:	1fffa797          	auipc	a5,0x1fffa
    64c4:	66c78793          	addi	a5,a5,1644 # 20000b2c <_impure_ptr>
    64c8:	439c                	lw	a5,0(a5)
    64ca:	5388                	lw	a0,32(a5)
    64cc:	e509                	bnez	a0,64d6 <_localeconv_r+0x16>
    64ce:	1fffa517          	auipc	a0,0x1fffa
    64d2:	4ea50513          	addi	a0,a0,1258 # 200009b8 <__global_locale>
    64d6:	0f050513          	addi	a0,a0,240
    64da:	8082                	ret

000064dc <__ascii_mbtowc>:
    64dc:	e185                	bnez	a1,64fc <__ascii_mbtowc+0x20>
    64de:	1141                	addi	sp,sp,-16
    64e0:	006c                	addi	a1,sp,12
    64e2:	4501                	li	a0,0
    64e4:	ca11                	beqz	a2,64f8 <__ascii_mbtowc+0x1c>
    64e6:	5579                	li	a0,-2
    64e8:	ca81                	beqz	a3,64f8 <__ascii_mbtowc+0x1c>
    64ea:	00064783          	lbu	a5,0(a2) # 10000 <_data_lma+0x6bfc>
    64ee:	c19c                	sw	a5,0(a1)
    64f0:	00064503          	lbu	a0,0(a2)
    64f4:	00a03533          	snez	a0,a0
    64f8:	0141                	addi	sp,sp,16
    64fa:	8082                	ret
    64fc:	4501                	li	a0,0
    64fe:	ca19                	beqz	a2,6514 <__ascii_mbtowc+0x38>
    6500:	5579                	li	a0,-2
    6502:	ca89                	beqz	a3,6514 <__ascii_mbtowc+0x38>
    6504:	00064783          	lbu	a5,0(a2)
    6508:	c19c                	sw	a5,0(a1)
    650a:	00064503          	lbu	a0,0(a2)
    650e:	00a03533          	snez	a0,a0
    6512:	8082                	ret
    6514:	8082                	ret

00006516 <memchr>:
    6516:	0ff5f593          	andi	a1,a1,255
    651a:	962a                	add	a2,a2,a0
    651c:	00c51463          	bne	a0,a2,6524 <memchr+0xe>
    6520:	4501                	li	a0,0
    6522:	8082                	ret
    6524:	00054783          	lbu	a5,0(a0)
    6528:	feb78de3          	beq	a5,a1,6522 <memchr+0xc>
    652c:	0505                	addi	a0,a0,1
    652e:	b7fd                	j	651c <memchr+0x6>

00006530 <__malloc_lock>:
    6530:	8082                	ret

00006532 <__malloc_unlock>:
    6532:	8082                	ret

00006534 <_Balloc>:
    6534:	515c                	lw	a5,36(a0)
    6536:	1141                	addi	sp,sp,-16
    6538:	c422                	sw	s0,8(sp)
    653a:	c04a                	sw	s2,0(sp)
    653c:	c606                	sw	ra,12(sp)
    653e:	c226                	sw	s1,4(sp)
    6540:	842a                	mv	s0,a0
    6542:	892e                	mv	s2,a1
    6544:	ef89                	bnez	a5,655e <_Balloc+0x2a>
    6546:	4541                	li	a0,16
    6548:	950fe0ef          	jal	ra,4698 <malloc>
    654c:	d048                	sw	a0,36(s0)
    654e:	00052223          	sw	zero,4(a0)
    6552:	00052423          	sw	zero,8(a0)
    6556:	00052023          	sw	zero,0(a0)
    655a:	00052623          	sw	zero,12(a0)
    655e:	5044                	lw	s1,36(s0)
    6560:	44dc                	lw	a5,12(s1)
    6562:	c795                	beqz	a5,658e <_Balloc+0x5a>
    6564:	5058                	lw	a4,36(s0)
    6566:	00291793          	slli	a5,s2,0x2
    656a:	4758                	lw	a4,12(a4)
    656c:	97ba                	add	a5,a5,a4
    656e:	4388                	lw	a0,0(a5)
    6570:	ed1d                	bnez	a0,65ae <_Balloc+0x7a>
    6572:	4485                	li	s1,1
    6574:	012494b3          	sll	s1,s1,s2
    6578:	00548613          	addi	a2,s1,5
    657c:	060a                	slli	a2,a2,0x2
    657e:	4585                	li	a1,1
    6580:	8522                	mv	a0,s0
    6582:	256d                	jal	6c2c <_calloc_r>
    6584:	cd11                	beqz	a0,65a0 <_Balloc+0x6c>
    6586:	01252223          	sw	s2,4(a0)
    658a:	c504                	sw	s1,8(a0)
    658c:	a01d                	j	65b2 <_Balloc+0x7e>
    658e:	02100613          	li	a2,33
    6592:	4591                	li	a1,4
    6594:	8522                	mv	a0,s0
    6596:	2d59                	jal	6c2c <_calloc_r>
    6598:	505c                	lw	a5,36(s0)
    659a:	c4c8                	sw	a0,12(s1)
    659c:	47dc                	lw	a5,12(a5)
    659e:	f3f9                	bnez	a5,6564 <_Balloc+0x30>
    65a0:	4501                	li	a0,0
    65a2:	40b2                	lw	ra,12(sp)
    65a4:	4422                	lw	s0,8(sp)
    65a6:	4492                	lw	s1,4(sp)
    65a8:	4902                	lw	s2,0(sp)
    65aa:	0141                	addi	sp,sp,16
    65ac:	8082                	ret
    65ae:	4118                	lw	a4,0(a0)
    65b0:	c398                	sw	a4,0(a5)
    65b2:	00052823          	sw	zero,16(a0)
    65b6:	00052623          	sw	zero,12(a0)
    65ba:	b7e5                	j	65a2 <_Balloc+0x6e>

000065bc <_Bfree>:
    65bc:	515c                	lw	a5,36(a0)
    65be:	1101                	addi	sp,sp,-32
    65c0:	cc22                	sw	s0,24(sp)
    65c2:	ce06                	sw	ra,28(sp)
    65c4:	842a                	mv	s0,a0
    65c6:	ef99                	bnez	a5,65e4 <_Bfree+0x28>
    65c8:	4541                	li	a0,16
    65ca:	c62e                	sw	a1,12(sp)
    65cc:	8ccfe0ef          	jal	ra,4698 <malloc>
    65d0:	45b2                	lw	a1,12(sp)
    65d2:	d048                	sw	a0,36(s0)
    65d4:	00052223          	sw	zero,4(a0)
    65d8:	00052423          	sw	zero,8(a0)
    65dc:	00052023          	sw	zero,0(a0)
    65e0:	00052623          	sw	zero,12(a0)
    65e4:	c991                	beqz	a1,65f8 <_Bfree+0x3c>
    65e6:	5054                	lw	a3,36(s0)
    65e8:	41dc                	lw	a5,4(a1)
    65ea:	00279713          	slli	a4,a5,0x2
    65ee:	46dc                	lw	a5,12(a3)
    65f0:	97ba                	add	a5,a5,a4
    65f2:	4398                	lw	a4,0(a5)
    65f4:	c198                	sw	a4,0(a1)
    65f6:	c38c                	sw	a1,0(a5)
    65f8:	40f2                	lw	ra,28(sp)
    65fa:	4462                	lw	s0,24(sp)
    65fc:	6105                	addi	sp,sp,32
    65fe:	8082                	ret

00006600 <__multadd>:
    6600:	7179                	addi	sp,sp,-48
    6602:	ce4e                	sw	s3,28(sp)
    6604:	89aa                	mv	s3,a0
    6606:	6541                	lui	a0,0x10
    6608:	d422                	sw	s0,40(sp)
    660a:	d226                	sw	s1,36(sp)
    660c:	842e                	mv	s0,a1
    660e:	4984                	lw	s1,16(a1)
    6610:	d606                	sw	ra,44(sp)
    6612:	d04a                	sw	s2,32(sp)
    6614:	05d1                	addi	a1,a1,20
    6616:	4801                	li	a6,0
    6618:	157d                	addi	a0,a0,-1
    661a:	419c                	lw	a5,0(a1)
    661c:	0591                	addi	a1,a1,4
    661e:	0805                	addi	a6,a6,1
    6620:	00a7f733          	and	a4,a5,a0
    6624:	02c70733          	mul	a4,a4,a2
    6628:	83c1                	srli	a5,a5,0x10
    662a:	02c787b3          	mul	a5,a5,a2
    662e:	9736                	add	a4,a4,a3
    6630:	01075693          	srli	a3,a4,0x10
    6634:	8f69                	and	a4,a4,a0
    6636:	97b6                	add	a5,a5,a3
    6638:	0107d693          	srli	a3,a5,0x10
    663c:	07c2                	slli	a5,a5,0x10
    663e:	97ba                	add	a5,a5,a4
    6640:	fef5ae23          	sw	a5,-4(a1) # 7feffffc <_eusrstack+0x5fef7ffc>
    6644:	fc984be3          	blt	a6,s1,661a <__multadd+0x1a>
    6648:	c2a1                	beqz	a3,6688 <__multadd+0x88>
    664a:	441c                	lw	a5,8(s0)
    664c:	02f4c763          	blt	s1,a5,667a <__multadd+0x7a>
    6650:	404c                	lw	a1,4(s0)
    6652:	854e                	mv	a0,s3
    6654:	c636                	sw	a3,12(sp)
    6656:	0585                	addi	a1,a1,1
    6658:	eddff0ef          	jal	ra,6534 <_Balloc>
    665c:	4810                	lw	a2,16(s0)
    665e:	00c40593          	addi	a1,s0,12
    6662:	892a                	mv	s2,a0
    6664:	0609                	addi	a2,a2,2
    6666:	060a                	slli	a2,a2,0x2
    6668:	0531                	addi	a0,a0,12
    666a:	84afe0ef          	jal	ra,46b4 <memcpy>
    666e:	85a2                	mv	a1,s0
    6670:	854e                	mv	a0,s3
    6672:	f4bff0ef          	jal	ra,65bc <_Bfree>
    6676:	46b2                	lw	a3,12(sp)
    6678:	844a                	mv	s0,s2
    667a:	00448793          	addi	a5,s1,4
    667e:	078a                	slli	a5,a5,0x2
    6680:	97a2                	add	a5,a5,s0
    6682:	c3d4                	sw	a3,4(a5)
    6684:	0485                	addi	s1,s1,1
    6686:	c804                	sw	s1,16(s0)
    6688:	8522                	mv	a0,s0
    668a:	50b2                	lw	ra,44(sp)
    668c:	5422                	lw	s0,40(sp)
    668e:	5492                	lw	s1,36(sp)
    6690:	5902                	lw	s2,32(sp)
    6692:	49f2                	lw	s3,28(sp)
    6694:	6145                	addi	sp,sp,48
    6696:	8082                	ret

00006698 <__hi0bits>:
    6698:	7741                	lui	a4,0xffff0
    669a:	8f69                	and	a4,a4,a0
    669c:	87aa                	mv	a5,a0
    669e:	4501                	li	a0,0
    66a0:	e319                	bnez	a4,66a6 <__hi0bits+0xe>
    66a2:	07c2                	slli	a5,a5,0x10
    66a4:	4541                	li	a0,16
    66a6:	ff000737          	lui	a4,0xff000
    66aa:	8f7d                	and	a4,a4,a5
    66ac:	e319                	bnez	a4,66b2 <__hi0bits+0x1a>
    66ae:	0521                	addi	a0,a0,8
    66b0:	07a2                	slli	a5,a5,0x8
    66b2:	f0000737          	lui	a4,0xf0000
    66b6:	8f7d                	and	a4,a4,a5
    66b8:	e319                	bnez	a4,66be <__hi0bits+0x26>
    66ba:	0511                	addi	a0,a0,4
    66bc:	0792                	slli	a5,a5,0x4
    66be:	c0000737          	lui	a4,0xc0000
    66c2:	8f7d                	and	a4,a4,a5
    66c4:	e319                	bnez	a4,66ca <__hi0bits+0x32>
    66c6:	0509                	addi	a0,a0,2
    66c8:	078a                	slli	a5,a5,0x2
    66ca:	0007c963          	bltz	a5,66dc <__hi0bits+0x44>
    66ce:	00179713          	slli	a4,a5,0x1
    66d2:	0505                	addi	a0,a0,1
    66d4:	00074463          	bltz	a4,66dc <__hi0bits+0x44>
    66d8:	02000513          	li	a0,32
    66dc:	8082                	ret

000066de <__lo0bits>:
    66de:	411c                	lw	a5,0(a0)
    66e0:	0077f713          	andi	a4,a5,7
    66e4:	c30d                	beqz	a4,6706 <__lo0bits+0x28>
    66e6:	0017f693          	andi	a3,a5,1
    66ea:	4701                	li	a4,0
    66ec:	e699                	bnez	a3,66fa <__lo0bits+0x1c>
    66ee:	0027f713          	andi	a4,a5,2
    66f2:	c711                	beqz	a4,66fe <__lo0bits+0x20>
    66f4:	8385                	srli	a5,a5,0x1
    66f6:	c11c                	sw	a5,0(a0)
    66f8:	4705                	li	a4,1
    66fa:	853a                	mv	a0,a4
    66fc:	8082                	ret
    66fe:	8389                	srli	a5,a5,0x2
    6700:	c11c                	sw	a5,0(a0)
    6702:	4709                	li	a4,2
    6704:	bfdd                	j	66fa <__lo0bits+0x1c>
    6706:	01079693          	slli	a3,a5,0x10
    670a:	82c1                	srli	a3,a3,0x10
    670c:	4701                	li	a4,0
    670e:	e299                	bnez	a3,6714 <__lo0bits+0x36>
    6710:	83c1                	srli	a5,a5,0x10
    6712:	4741                	li	a4,16
    6714:	0ff7f693          	andi	a3,a5,255
    6718:	e299                	bnez	a3,671e <__lo0bits+0x40>
    671a:	0721                	addi	a4,a4,8
    671c:	83a1                	srli	a5,a5,0x8
    671e:	00f7f693          	andi	a3,a5,15
    6722:	e299                	bnez	a3,6728 <__lo0bits+0x4a>
    6724:	0711                	addi	a4,a4,4
    6726:	8391                	srli	a5,a5,0x4
    6728:	0037f693          	andi	a3,a5,3
    672c:	e299                	bnez	a3,6732 <__lo0bits+0x54>
    672e:	0709                	addi	a4,a4,2
    6730:	8389                	srli	a5,a5,0x2
    6732:	0017f693          	andi	a3,a5,1
    6736:	e681                	bnez	a3,673e <__lo0bits+0x60>
    6738:	8385                	srli	a5,a5,0x1
    673a:	0705                	addi	a4,a4,1
    673c:	c399                	beqz	a5,6742 <__lo0bits+0x64>
    673e:	c11c                	sw	a5,0(a0)
    6740:	bf6d                	j	66fa <__lo0bits+0x1c>
    6742:	02000713          	li	a4,32
    6746:	bf55                	j	66fa <__lo0bits+0x1c>

00006748 <__i2b>:
    6748:	1141                	addi	sp,sp,-16
    674a:	c422                	sw	s0,8(sp)
    674c:	842e                	mv	s0,a1
    674e:	4585                	li	a1,1
    6750:	c606                	sw	ra,12(sp)
    6752:	de3ff0ef          	jal	ra,6534 <_Balloc>
    6756:	c940                	sw	s0,20(a0)
    6758:	40b2                	lw	ra,12(sp)
    675a:	4422                	lw	s0,8(sp)
    675c:	4705                	li	a4,1
    675e:	c918                	sw	a4,16(a0)
    6760:	0141                	addi	sp,sp,16
    6762:	8082                	ret

00006764 <__multiply>:
    6764:	4998                	lw	a4,16(a1)
    6766:	4a1c                	lw	a5,16(a2)
    6768:	7179                	addi	sp,sp,-48
    676a:	d226                	sw	s1,36(sp)
    676c:	d606                	sw	ra,44(sp)
    676e:	d422                	sw	s0,40(sp)
    6770:	d04a                	sw	s2,32(sp)
    6772:	ce4e                	sw	s3,28(sp)
    6774:	84ae                	mv	s1,a1
    6776:	00f75463          	bge	a4,a5,677e <__multiply+0x1a>
    677a:	84b2                	mv	s1,a2
    677c:	862e                	mv	a2,a1
    677e:	0104a983          	lw	s3,16(s1)
    6782:	01062903          	lw	s2,16(a2)
    6786:	449c                	lw	a5,8(s1)
    6788:	40cc                	lw	a1,4(s1)
    678a:	01298433          	add	s0,s3,s2
    678e:	0087d363          	bge	a5,s0,6794 <__multiply+0x30>
    6792:	0585                	addi	a1,a1,1
    6794:	c632                	sw	a2,12(sp)
    6796:	d9fff0ef          	jal	ra,6534 <_Balloc>
    679a:	4632                	lw	a2,12(sp)
    679c:	01450813          	addi	a6,a0,20 # 10014 <_data_lma+0x6c10>
    67a0:	00241313          	slli	t1,s0,0x2
    67a4:	9342                	add	t1,t1,a6
    67a6:	87c2                	mv	a5,a6
    67a8:	0267ed63          	bltu	a5,t1,67e2 <__multiply+0x7e>
    67ac:	01448593          	addi	a1,s1,20
    67b0:	00299893          	slli	a7,s3,0x2
    67b4:	0651                	addi	a2,a2,20
    67b6:	00291e13          	slli	t3,s2,0x2
    67ba:	66c1                	lui	a3,0x10
    67bc:	98ae                	add	a7,a7,a1
    67be:	9e32                	add	t3,t3,a2
    67c0:	16fd                	addi	a3,a3,-1
    67c2:	03c66463          	bltu	a2,t3,67ea <__multiply+0x86>
    67c6:	00805663          	blez	s0,67d2 <__multiply+0x6e>
    67ca:	1371                	addi	t1,t1,-4
    67cc:	00032783          	lw	a5,0(t1)
    67d0:	cbf1                	beqz	a5,68a4 <__multiply+0x140>
    67d2:	c900                	sw	s0,16(a0)
    67d4:	50b2                	lw	ra,44(sp)
    67d6:	5422                	lw	s0,40(sp)
    67d8:	5492                	lw	s1,36(sp)
    67da:	5902                	lw	s2,32(sp)
    67dc:	49f2                	lw	s3,28(sp)
    67de:	6145                	addi	sp,sp,48
    67e0:	8082                	ret
    67e2:	0007a023          	sw	zero,0(a5)
    67e6:	0791                	addi	a5,a5,4
    67e8:	b7c1                	j	67a8 <__multiply+0x44>
    67ea:	00062f83          	lw	t6,0(a2)
    67ee:	00dfffb3          	and	t6,t6,a3
    67f2:	040f8a63          	beqz	t6,6846 <__multiply+0xe2>
    67f6:	8f42                	mv	t5,a6
    67f8:	82ae                	mv	t0,a1
    67fa:	4481                	li	s1,0
    67fc:	0002a703          	lw	a4,0(t0) # a9c <memset+0x8e>
    6800:	000f2383          	lw	t2,0(t5)
    6804:	0f11                	addi	t5,t5,4
    6806:	00d77eb3          	and	t4,a4,a3
    680a:	03fe8eb3          	mul	t4,t4,t6
    680e:	00d3f7b3          	and	a5,t2,a3
    6812:	0103d393          	srli	t2,t2,0x10
    6816:	0291                	addi	t0,t0,4
    6818:	9ebe                	add	t4,t4,a5
    681a:	01075793          	srli	a5,a4,0x10
    681e:	03f787b3          	mul	a5,a5,t6
    6822:	9ea6                	add	t4,t4,s1
    6824:	010ed713          	srli	a4,t4,0x10
    6828:	00defeb3          	and	t4,t4,a3
    682c:	979e                	add	a5,a5,t2
    682e:	97ba                	add	a5,a5,a4
    6830:	0107d493          	srli	s1,a5,0x10
    6834:	07c2                	slli	a5,a5,0x10
    6836:	01d7e7b3          	or	a5,a5,t4
    683a:	feff2e23          	sw	a5,-4(t5)
    683e:	fb12efe3          	bltu	t0,a7,67fc <__multiply+0x98>
    6842:	009f2023          	sw	s1,0(t5)
    6846:	00265283          	lhu	t0,2(a2)
    684a:	04028a63          	beqz	t0,689e <__multiply+0x13a>
    684e:	00082783          	lw	a5,0(a6)
    6852:	8ec2                	mv	t4,a6
    6854:	8f2e                	mv	t5,a1
    6856:	4f81                	li	t6,0
    6858:	000f2703          	lw	a4,0(t5)
    685c:	002ed383          	lhu	t2,2(t4)
    6860:	8ff5                	and	a5,a5,a3
    6862:	8f75                	and	a4,a4,a3
    6864:	02570733          	mul	a4,a4,t0
    6868:	0e91                	addi	t4,t4,4
    686a:	0f11                	addi	t5,t5,4
    686c:	971e                	add	a4,a4,t2
    686e:	977e                	add	a4,a4,t6
    6870:	01071f93          	slli	t6,a4,0x10
    6874:	00ffe7b3          	or	a5,t6,a5
    6878:	fefeae23          	sw	a5,-4(t4)
    687c:	ffef5783          	lhu	a5,-2(t5)
    6880:	000eaf83          	lw	t6,0(t4)
    6884:	8341                	srli	a4,a4,0x10
    6886:	025787b3          	mul	a5,a5,t0
    688a:	00dfffb3          	and	t6,t6,a3
    688e:	97fe                	add	a5,a5,t6
    6890:	97ba                	add	a5,a5,a4
    6892:	0107df93          	srli	t6,a5,0x10
    6896:	fd1f61e3          	bltu	t5,a7,6858 <__multiply+0xf4>
    689a:	00fea023          	sw	a5,0(t4)
    689e:	0611                	addi	a2,a2,4
    68a0:	0811                	addi	a6,a6,4
    68a2:	b705                	j	67c2 <__multiply+0x5e>
    68a4:	147d                	addi	s0,s0,-1
    68a6:	b705                	j	67c6 <__multiply+0x62>

000068a8 <__pow5mult>:
    68a8:	1101                	addi	sp,sp,-32
    68aa:	ca26                	sw	s1,20(sp)
    68ac:	c84a                	sw	s2,16(sp)
    68ae:	c64e                	sw	s3,12(sp)
    68b0:	ce06                	sw	ra,28(sp)
    68b2:	cc22                	sw	s0,24(sp)
    68b4:	c452                	sw	s4,8(sp)
    68b6:	00367793          	andi	a5,a2,3
    68ba:	892a                	mv	s2,a0
    68bc:	84b2                	mv	s1,a2
    68be:	89ae                	mv	s3,a1
    68c0:	cf89                	beqz	a5,68da <__pow5mult+0x32>
    68c2:	17fd                	addi	a5,a5,-1
    68c4:	00003717          	auipc	a4,0x3
    68c8:	a1c70713          	addi	a4,a4,-1508 # 92e0 <p05.3319>
    68cc:	078a                	slli	a5,a5,0x2
    68ce:	97ba                	add	a5,a5,a4
    68d0:	4390                	lw	a2,0(a5)
    68d2:	4681                	li	a3,0
    68d4:	d2dff0ef          	jal	ra,6600 <__multadd>
    68d8:	89aa                	mv	s3,a0
    68da:	8489                	srai	s1,s1,0x2
    68dc:	cca5                	beqz	s1,6954 <__pow5mult+0xac>
    68de:	02492783          	lw	a5,36(s2)
    68e2:	ef91                	bnez	a5,68fe <__pow5mult+0x56>
    68e4:	4541                	li	a0,16
    68e6:	db3fd0ef          	jal	ra,4698 <malloc>
    68ea:	02a92223          	sw	a0,36(s2)
    68ee:	00052223          	sw	zero,4(a0)
    68f2:	00052423          	sw	zero,8(a0)
    68f6:	00052023          	sw	zero,0(a0)
    68fa:	00052623          	sw	zero,12(a0)
    68fe:	02492a03          	lw	s4,36(s2)
    6902:	008a2403          	lw	s0,8(s4)
    6906:	e819                	bnez	s0,691c <__pow5mult+0x74>
    6908:	27100593          	li	a1,625
    690c:	854a                	mv	a0,s2
    690e:	e3bff0ef          	jal	ra,6748 <__i2b>
    6912:	00aa2423          	sw	a0,8(s4)
    6916:	842a                	mv	s0,a0
    6918:	00052023          	sw	zero,0(a0)
    691c:	0014f793          	andi	a5,s1,1
    6920:	cf81                	beqz	a5,6938 <__pow5mult+0x90>
    6922:	85ce                	mv	a1,s3
    6924:	8622                	mv	a2,s0
    6926:	854a                	mv	a0,s2
    6928:	e3dff0ef          	jal	ra,6764 <__multiply>
    692c:	8a2a                	mv	s4,a0
    692e:	85ce                	mv	a1,s3
    6930:	854a                	mv	a0,s2
    6932:	c8bff0ef          	jal	ra,65bc <_Bfree>
    6936:	89d2                	mv	s3,s4
    6938:	8485                	srai	s1,s1,0x1
    693a:	cc89                	beqz	s1,6954 <__pow5mult+0xac>
    693c:	4008                	lw	a0,0(s0)
    693e:	e909                	bnez	a0,6950 <__pow5mult+0xa8>
    6940:	8622                	mv	a2,s0
    6942:	85a2                	mv	a1,s0
    6944:	854a                	mv	a0,s2
    6946:	e1fff0ef          	jal	ra,6764 <__multiply>
    694a:	c008                	sw	a0,0(s0)
    694c:	00052023          	sw	zero,0(a0)
    6950:	842a                	mv	s0,a0
    6952:	b7e9                	j	691c <__pow5mult+0x74>
    6954:	40f2                	lw	ra,28(sp)
    6956:	4462                	lw	s0,24(sp)
    6958:	854e                	mv	a0,s3
    695a:	44d2                	lw	s1,20(sp)
    695c:	4942                	lw	s2,16(sp)
    695e:	49b2                	lw	s3,12(sp)
    6960:	4a22                	lw	s4,8(sp)
    6962:	6105                	addi	sp,sp,32
    6964:	8082                	ret

00006966 <__lshift>:
    6966:	7179                	addi	sp,sp,-48
    6968:	d226                	sw	s1,36(sp)
    696a:	84ae                	mv	s1,a1
    696c:	ce4e                	sw	s3,28(sp)
    696e:	0104a983          	lw	s3,16(s1)
    6972:	d422                	sw	s0,40(sp)
    6974:	41cc                	lw	a1,4(a1)
    6976:	40565413          	srai	s0,a2,0x5
    697a:	449c                	lw	a5,8(s1)
    697c:	99a2                	add	s3,s3,s0
    697e:	d04a                	sw	s2,32(sp)
    6980:	ca56                	sw	s5,20(sp)
    6982:	d606                	sw	ra,44(sp)
    6984:	cc52                	sw	s4,24(sp)
    6986:	8aaa                	mv	s5,a0
    6988:	00198913          	addi	s2,s3,1
    698c:	0927c463          	blt	a5,s2,6a14 <__lshift+0xae>
    6990:	8556                	mv	a0,s5
    6992:	c632                	sw	a2,12(sp)
    6994:	ba1ff0ef          	jal	ra,6534 <_Balloc>
    6998:	4632                	lw	a2,12(sp)
    699a:	01450793          	addi	a5,a0,20
    699e:	8a2a                	mv	s4,a0
    69a0:	86be                	mv	a3,a5
    69a2:	4701                	li	a4,0
    69a4:	0691                	addi	a3,a3,4
    69a6:	06874a63          	blt	a4,s0,6a1a <__lshift+0xb4>
    69aa:	00045363          	bgez	s0,69b0 <__lshift+0x4a>
    69ae:	4401                	li	s0,0
    69b0:	4894                	lw	a3,16(s1)
    69b2:	040a                	slli	s0,s0,0x2
    69b4:	00878733          	add	a4,a5,s0
    69b8:	068a                	slli	a3,a3,0x2
    69ba:	01448793          	addi	a5,s1,20
    69be:	8a7d                	andi	a2,a2,31
    69c0:	96be                	add	a3,a3,a5
    69c2:	c225                	beqz	a2,6a22 <__lshift+0xbc>
    69c4:	02000813          	li	a6,32
    69c8:	40c80833          	sub	a6,a6,a2
    69cc:	4581                	li	a1,0
    69ce:	4388                	lw	a0,0(a5)
    69d0:	0711                	addi	a4,a4,4
    69d2:	0791                	addi	a5,a5,4
    69d4:	00c51533          	sll	a0,a0,a2
    69d8:	8dc9                	or	a1,a1,a0
    69da:	feb72e23          	sw	a1,-4(a4)
    69de:	ffc7a583          	lw	a1,-4(a5)
    69e2:	0105d5b3          	srl	a1,a1,a6
    69e6:	fed7e4e3          	bltu	a5,a3,69ce <__lshift+0x68>
    69ea:	c30c                	sw	a1,0(a4)
    69ec:	c199                	beqz	a1,69f2 <__lshift+0x8c>
    69ee:	00298913          	addi	s2,s3,2
    69f2:	197d                	addi	s2,s2,-1
    69f4:	012a2823          	sw	s2,16(s4)
    69f8:	8556                	mv	a0,s5
    69fa:	85a6                	mv	a1,s1
    69fc:	bc1ff0ef          	jal	ra,65bc <_Bfree>
    6a00:	50b2                	lw	ra,44(sp)
    6a02:	5422                	lw	s0,40(sp)
    6a04:	8552                	mv	a0,s4
    6a06:	5492                	lw	s1,36(sp)
    6a08:	5902                	lw	s2,32(sp)
    6a0a:	49f2                	lw	s3,28(sp)
    6a0c:	4a62                	lw	s4,24(sp)
    6a0e:	4ad2                	lw	s5,20(sp)
    6a10:	6145                	addi	sp,sp,48
    6a12:	8082                	ret
    6a14:	0585                	addi	a1,a1,1
    6a16:	0786                	slli	a5,a5,0x1
    6a18:	bf95                	j	698c <__lshift+0x26>
    6a1a:	fe06ae23          	sw	zero,-4(a3) # fffc <_data_lma+0x6bf8>
    6a1e:	0705                	addi	a4,a4,1
    6a20:	b751                	j	69a4 <__lshift+0x3e>
    6a22:	0791                	addi	a5,a5,4
    6a24:	ffc7a603          	lw	a2,-4(a5)
    6a28:	0711                	addi	a4,a4,4
    6a2a:	fec72e23          	sw	a2,-4(a4)
    6a2e:	fed7eae3          	bltu	a5,a3,6a22 <__lshift+0xbc>
    6a32:	b7c1                	j	69f2 <__lshift+0x8c>

00006a34 <__mcmp>:
    6a34:	491c                	lw	a5,16(a0)
    6a36:	4998                	lw	a4,16(a1)
    6a38:	8f99                	sub	a5,a5,a4
    6a3a:	e38d                	bnez	a5,6a5c <__mcmp+0x28>
    6a3c:	070a                	slli	a4,a4,0x2
    6a3e:	0551                	addi	a0,a0,20
    6a40:	05d1                	addi	a1,a1,20
    6a42:	00e506b3          	add	a3,a0,a4
    6a46:	95ba                	add	a1,a1,a4
    6a48:	16f1                	addi	a3,a3,-4
    6a4a:	15f1                	addi	a1,a1,-4
    6a4c:	4290                	lw	a2,0(a3)
    6a4e:	4198                	lw	a4,0(a1)
    6a50:	00e60863          	beq	a2,a4,6a60 <__mcmp+0x2c>
    6a54:	57fd                	li	a5,-1
    6a56:	00e66363          	bltu	a2,a4,6a5c <__mcmp+0x28>
    6a5a:	4785                	li	a5,1
    6a5c:	853e                	mv	a0,a5
    6a5e:	8082                	ret
    6a60:	fed564e3          	bltu	a0,a3,6a48 <__mcmp+0x14>
    6a64:	bfe5                	j	6a5c <__mcmp+0x28>

00006a66 <__mdiff>:
    6a66:	1101                	addi	sp,sp,-32
    6a68:	ca26                	sw	s1,20(sp)
    6a6a:	84ae                	mv	s1,a1
    6a6c:	c64e                	sw	s3,12(sp)
    6a6e:	85b2                	mv	a1,a2
    6a70:	89aa                	mv	s3,a0
    6a72:	8526                	mv	a0,s1
    6a74:	cc22                	sw	s0,24(sp)
    6a76:	ce06                	sw	ra,28(sp)
    6a78:	c84a                	sw	s2,16(sp)
    6a7a:	8432                	mv	s0,a2
    6a7c:	fb9ff0ef          	jal	ra,6a34 <__mcmp>
    6a80:	e105                	bnez	a0,6aa0 <__mdiff+0x3a>
    6a82:	4581                	li	a1,0
    6a84:	854e                	mv	a0,s3
    6a86:	aafff0ef          	jal	ra,6534 <_Balloc>
    6a8a:	4785                	li	a5,1
    6a8c:	c91c                	sw	a5,16(a0)
    6a8e:	00052a23          	sw	zero,20(a0)
    6a92:	40f2                	lw	ra,28(sp)
    6a94:	4462                	lw	s0,24(sp)
    6a96:	44d2                	lw	s1,20(sp)
    6a98:	4942                	lw	s2,16(sp)
    6a9a:	49b2                	lw	s3,12(sp)
    6a9c:	6105                	addi	sp,sp,32
    6a9e:	8082                	ret
    6aa0:	4905                	li	s2,1
    6aa2:	00054663          	bltz	a0,6aae <__mdiff+0x48>
    6aa6:	87a2                	mv	a5,s0
    6aa8:	4901                	li	s2,0
    6aaa:	8426                	mv	s0,s1
    6aac:	84be                	mv	s1,a5
    6aae:	404c                	lw	a1,4(s0)
    6ab0:	854e                	mv	a0,s3
    6ab2:	a83ff0ef          	jal	ra,6534 <_Balloc>
    6ab6:	01042303          	lw	t1,16(s0)
    6aba:	0104a883          	lw	a7,16(s1)
    6abe:	01440613          	addi	a2,s0,20
    6ac2:	00231e13          	slli	t3,t1,0x2
    6ac6:	01448813          	addi	a6,s1,20
    6aca:	088a                	slli	a7,a7,0x2
    6acc:	6ec1                	lui	t4,0x10
    6ace:	01252623          	sw	s2,12(a0)
    6ad2:	9e32                	add	t3,t3,a2
    6ad4:	98c2                	add	a7,a7,a6
    6ad6:	01450693          	addi	a3,a0,20
    6ada:	4f01                	li	t5,0
    6adc:	1efd                	addi	t4,t4,-1
    6ade:	4218                	lw	a4,0(a2)
    6ae0:	00082f83          	lw	t6,0(a6)
    6ae4:	0691                	addi	a3,a3,4
    6ae6:	01d775b3          	and	a1,a4,t4
    6aea:	01dff7b3          	and	a5,t6,t4
    6aee:	95fa                	add	a1,a1,t5
    6af0:	8d9d                	sub	a1,a1,a5
    6af2:	010fdf93          	srli	t6,t6,0x10
    6af6:	01075793          	srli	a5,a4,0x10
    6afa:	41f787b3          	sub	a5,a5,t6
    6afe:	4105d713          	srai	a4,a1,0x10
    6b02:	97ba                	add	a5,a5,a4
    6b04:	4107df13          	srai	t5,a5,0x10
    6b08:	01d5f5b3          	and	a1,a1,t4
    6b0c:	07c2                	slli	a5,a5,0x10
    6b0e:	8fcd                	or	a5,a5,a1
    6b10:	0811                	addi	a6,a6,4
    6b12:	fef6ae23          	sw	a5,-4(a3)
    6b16:	0611                	addi	a2,a2,4
    6b18:	fd1863e3          	bltu	a6,a7,6ade <__mdiff+0x78>
    6b1c:	65c1                	lui	a1,0x10
    6b1e:	15fd                	addi	a1,a1,-1
    6b20:	01c66863          	bltu	a2,t3,6b30 <__mdiff+0xca>
    6b24:	16f1                	addi	a3,a3,-4
    6b26:	429c                	lw	a5,0(a3)
    6b28:	c795                	beqz	a5,6b54 <__mdiff+0xee>
    6b2a:	00652823          	sw	t1,16(a0)
    6b2e:	b795                	j	6a92 <__mdiff+0x2c>
    6b30:	421c                	lw	a5,0(a2)
    6b32:	0691                	addi	a3,a3,4
    6b34:	0611                	addi	a2,a2,4
    6b36:	00b7f733          	and	a4,a5,a1
    6b3a:	977a                	add	a4,a4,t5
    6b3c:	41075813          	srai	a6,a4,0x10
    6b40:	83c1                	srli	a5,a5,0x10
    6b42:	97c2                	add	a5,a5,a6
    6b44:	4107df13          	srai	t5,a5,0x10
    6b48:	8f6d                	and	a4,a4,a1
    6b4a:	07c2                	slli	a5,a5,0x10
    6b4c:	8fd9                	or	a5,a5,a4
    6b4e:	fef6ae23          	sw	a5,-4(a3)
    6b52:	b7f9                	j	6b20 <__mdiff+0xba>
    6b54:	137d                	addi	t1,t1,-1
    6b56:	b7f9                	j	6b24 <__mdiff+0xbe>

00006b58 <__d2b>:
    6b58:	7179                	addi	sp,sp,-48
    6b5a:	d422                	sw	s0,40(sp)
    6b5c:	842e                	mv	s0,a1
    6b5e:	4585                	li	a1,1
    6b60:	d226                	sw	s1,36(sp)
    6b62:	d04a                	sw	s2,32(sp)
    6b64:	84b2                	mv	s1,a2
    6b66:	ce4e                	sw	s3,28(sp)
    6b68:	cc52                	sw	s4,24(sp)
    6b6a:	893a                	mv	s2,a4
    6b6c:	d606                	sw	ra,44(sp)
    6b6e:	8a36                	mv	s4,a3
    6b70:	9c5ff0ef          	jal	ra,6534 <_Balloc>
    6b74:	00100737          	lui	a4,0x100
    6b78:	fff70793          	addi	a5,a4,-1 # fffff <_data_lma+0xf6bfb>
    6b7c:	8fe5                	and	a5,a5,s1
    6b7e:	80d1                	srli	s1,s1,0x14
    6b80:	7ff4f493          	andi	s1,s1,2047
    6b84:	89aa                	mv	s3,a0
    6b86:	e0b5                	bnez	s1,6bea <__d2b+0x92>
    6b88:	c63e                	sw	a5,12(sp)
    6b8a:	c42d                	beqz	s0,6bf4 <__d2b+0x9c>
    6b8c:	0028                	addi	a0,sp,8
    6b8e:	c422                	sw	s0,8(sp)
    6b90:	b4fff0ef          	jal	ra,66de <__lo0bits>
    6b94:	46a2                	lw	a3,8(sp)
    6b96:	cd21                	beqz	a0,6bee <__d2b+0x96>
    6b98:	4732                	lw	a4,12(sp)
    6b9a:	02000793          	li	a5,32
    6b9e:	8f89                	sub	a5,a5,a0
    6ba0:	00f717b3          	sll	a5,a4,a5
    6ba4:	8fd5                	or	a5,a5,a3
    6ba6:	00a75733          	srl	a4,a4,a0
    6baa:	00f9aa23          	sw	a5,20(s3)
    6bae:	c63a                	sw	a4,12(sp)
    6bb0:	4432                	lw	s0,12(sp)
    6bb2:	0089ac23          	sw	s0,24(s3)
    6bb6:	00803433          	snez	s0,s0
    6bba:	0405                	addi	s0,s0,1
    6bbc:	0089a823          	sw	s0,16(s3)
    6bc0:	c4b9                	beqz	s1,6c0e <__d2b+0xb6>
    6bc2:	bcd48493          	addi	s1,s1,-1075
    6bc6:	94aa                	add	s1,s1,a0
    6bc8:	03500793          	li	a5,53
    6bcc:	009a2023          	sw	s1,0(s4)
    6bd0:	40a78533          	sub	a0,a5,a0
    6bd4:	00a92023          	sw	a0,0(s2)
    6bd8:	50b2                	lw	ra,44(sp)
    6bda:	5422                	lw	s0,40(sp)
    6bdc:	854e                	mv	a0,s3
    6bde:	5492                	lw	s1,36(sp)
    6be0:	5902                	lw	s2,32(sp)
    6be2:	49f2                	lw	s3,28(sp)
    6be4:	4a62                	lw	s4,24(sp)
    6be6:	6145                	addi	sp,sp,48
    6be8:	8082                	ret
    6bea:	8fd9                	or	a5,a5,a4
    6bec:	bf71                	j	6b88 <__d2b+0x30>
    6bee:	00d9aa23          	sw	a3,20(s3)
    6bf2:	bf7d                	j	6bb0 <__d2b+0x58>
    6bf4:	0068                	addi	a0,sp,12
    6bf6:	ae9ff0ef          	jal	ra,66de <__lo0bits>
    6bfa:	47b2                	lw	a5,12(sp)
    6bfc:	02050513          	addi	a0,a0,32
    6c00:	4405                	li	s0,1
    6c02:	00f9aa23          	sw	a5,20(s3)
    6c06:	4785                	li	a5,1
    6c08:	00f9a823          	sw	a5,16(s3)
    6c0c:	bf55                	j	6bc0 <__d2b+0x68>
    6c0e:	00241793          	slli	a5,s0,0x2
    6c12:	bce50513          	addi	a0,a0,-1074
    6c16:	97ce                	add	a5,a5,s3
    6c18:	00aa2023          	sw	a0,0(s4)
    6c1c:	4b88                	lw	a0,16(a5)
    6c1e:	0416                	slli	s0,s0,0x5
    6c20:	a79ff0ef          	jal	ra,6698 <__hi0bits>
    6c24:	8c09                	sub	s0,s0,a0
    6c26:	00892023          	sw	s0,0(s2)
    6c2a:	b77d                	j	6bd8 <__d2b+0x80>

00006c2c <_calloc_r>:
    6c2c:	02c58633          	mul	a2,a1,a2
    6c30:	1101                	addi	sp,sp,-32
    6c32:	cc22                	sw	s0,24(sp)
    6c34:	ce06                	sw	ra,28(sp)
    6c36:	85b2                	mv	a1,a2
    6c38:	c632                	sw	a2,12(sp)
    6c3a:	bd9fd0ef          	jal	ra,4812 <_malloc_r>
    6c3e:	842a                	mv	s0,a0
    6c40:	c509                	beqz	a0,6c4a <_calloc_r+0x1e>
    6c42:	4632                	lw	a2,12(sp)
    6c44:	4581                	li	a1,0
    6c46:	dc9f90ef          	jal	ra,a0e <memset>
    6c4a:	8522                	mv	a0,s0
    6c4c:	40f2                	lw	ra,28(sp)
    6c4e:	4462                	lw	s0,24(sp)
    6c50:	6105                	addi	sp,sp,32
    6c52:	8082                	ret

00006c54 <__ssputs_r>:
    6c54:	1101                	addi	sp,sp,-32
    6c56:	c84a                	sw	s2,16(sp)
    6c58:	0085a903          	lw	s2,8(a1) # 10008 <_data_lma+0x6c04>
    6c5c:	cc22                	sw	s0,24(sp)
    6c5e:	c452                	sw	s4,8(sp)
    6c60:	c05a                	sw	s6,0(sp)
    6c62:	ce06                	sw	ra,28(sp)
    6c64:	ca26                	sw	s1,20(sp)
    6c66:	c64e                	sw	s3,12(sp)
    6c68:	c256                	sw	s5,4(sp)
    6c6a:	842e                	mv	s0,a1
    6c6c:	8b32                	mv	s6,a2
    6c6e:	8a36                	mv	s4,a3
    6c70:	0926ee63          	bltu	a3,s2,6d0c <__ssputs_r+0xb8>
    6c74:	00c5d783          	lhu	a5,12(a1)
    6c78:	4807f713          	andi	a4,a5,1152
    6c7c:	c751                	beqz	a4,6d08 <__ssputs_r+0xb4>
    6c7e:	4004                	lw	s1,0(s0)
    6c80:	498c                	lw	a1,16(a1)
    6c82:	4858                	lw	a4,20(s0)
    6c84:	8aaa                	mv	s5,a0
    6c86:	40b489b3          	sub	s3,s1,a1
    6c8a:	448d                	li	s1,3
    6c8c:	02e484b3          	mul	s1,s1,a4
    6c90:	4709                	li	a4,2
    6c92:	02e4c4b3          	div	s1,s1,a4
    6c96:	00168713          	addi	a4,a3,1
    6c9a:	974e                	add	a4,a4,s3
    6c9c:	00e4f363          	bgeu	s1,a4,6ca2 <__ssputs_r+0x4e>
    6ca0:	84ba                	mv	s1,a4
    6ca2:	4007f793          	andi	a5,a5,1024
    6ca6:	c3d1                	beqz	a5,6d2a <__ssputs_r+0xd6>
    6ca8:	85a6                	mv	a1,s1
    6caa:	8556                	mv	a0,s5
    6cac:	b67fd0ef          	jal	ra,4812 <_malloc_r>
    6cb0:	892a                	mv	s2,a0
    6cb2:	e50d                	bnez	a0,6cdc <__ssputs_r+0x88>
    6cb4:	47b1                	li	a5,12
    6cb6:	00faa023          	sw	a5,0(s5)
    6cba:	00c45783          	lhu	a5,12(s0)
    6cbe:	557d                	li	a0,-1
    6cc0:	0407e793          	ori	a5,a5,64
    6cc4:	00f41623          	sh	a5,12(s0)
    6cc8:	40f2                	lw	ra,28(sp)
    6cca:	4462                	lw	s0,24(sp)
    6ccc:	44d2                	lw	s1,20(sp)
    6cce:	4942                	lw	s2,16(sp)
    6cd0:	49b2                	lw	s3,12(sp)
    6cd2:	4a22                	lw	s4,8(sp)
    6cd4:	4a92                	lw	s5,4(sp)
    6cd6:	4b02                	lw	s6,0(sp)
    6cd8:	6105                	addi	sp,sp,32
    6cda:	8082                	ret
    6cdc:	480c                	lw	a1,16(s0)
    6cde:	864e                	mv	a2,s3
    6ce0:	9d5fd0ef          	jal	ra,46b4 <memcpy>
    6ce4:	00c45783          	lhu	a5,12(s0)
    6ce8:	b7f7f793          	andi	a5,a5,-1153
    6cec:	0807e793          	ori	a5,a5,128
    6cf0:	00f41623          	sh	a5,12(s0)
    6cf4:	01242823          	sw	s2,16(s0)
    6cf8:	c844                	sw	s1,20(s0)
    6cfa:	994e                	add	s2,s2,s3
    6cfc:	413484b3          	sub	s1,s1,s3
    6d00:	01242023          	sw	s2,0(s0)
    6d04:	c404                	sw	s1,8(s0)
    6d06:	8952                	mv	s2,s4
    6d08:	012a7363          	bgeu	s4,s2,6d0e <__ssputs_r+0xba>
    6d0c:	8952                	mv	s2,s4
    6d0e:	4008                	lw	a0,0(s0)
    6d10:	864a                	mv	a2,s2
    6d12:	85da                	mv	a1,s6
    6d14:	24e1                	jal	6fdc <memmove>
    6d16:	441c                	lw	a5,8(s0)
    6d18:	4501                	li	a0,0
    6d1a:	412787b3          	sub	a5,a5,s2
    6d1e:	c41c                	sw	a5,8(s0)
    6d20:	401c                	lw	a5,0(s0)
    6d22:	993e                	add	s2,s2,a5
    6d24:	01242023          	sw	s2,0(s0)
    6d28:	b745                	j	6cc8 <__ssputs_r+0x74>
    6d2a:	8626                	mv	a2,s1
    6d2c:	8556                	mv	a0,s5
    6d2e:	2ce5                	jal	7026 <_realloc_r>
    6d30:	892a                	mv	s2,a0
    6d32:	f169                	bnez	a0,6cf4 <__ssputs_r+0xa0>
    6d34:	480c                	lw	a1,16(s0)
    6d36:	8556                	mv	a0,s5
    6d38:	a33fd0ef          	jal	ra,476a <_free_r>
    6d3c:	bfa5                	j	6cb4 <__ssputs_r+0x60>

00006d3e <_svfiprintf_r>:
    6d3e:	00c5d783          	lhu	a5,12(a1)
    6d42:	7171                	addi	sp,sp,-176
    6d44:	d326                	sw	s1,164(sp)
    6d46:	d14a                	sw	s2,160(sp)
    6d48:	cf4e                	sw	s3,156(sp)
    6d4a:	d706                	sw	ra,172(sp)
    6d4c:	d522                	sw	s0,168(sp)
    6d4e:	cd52                	sw	s4,152(sp)
    6d50:	cb56                	sw	s5,148(sp)
    6d52:	c95a                	sw	s6,144(sp)
    6d54:	c75e                	sw	s7,140(sp)
    6d56:	c562                	sw	s8,136(sp)
    6d58:	c366                	sw	s9,132(sp)
    6d5a:	0807f793          	andi	a5,a5,128
    6d5e:	89aa                	mv	s3,a0
    6d60:	892e                	mv	s2,a1
    6d62:	84b2                	mv	s1,a2
    6d64:	c3b9                	beqz	a5,6daa <_svfiprintf_r+0x6c>
    6d66:	499c                	lw	a5,16(a1)
    6d68:	e3a9                	bnez	a5,6daa <_svfiprintf_r+0x6c>
    6d6a:	04000593          	li	a1,64
    6d6e:	c636                	sw	a3,12(sp)
    6d70:	aa3fd0ef          	jal	ra,4812 <_malloc_r>
    6d74:	00a92023          	sw	a0,0(s2)
    6d78:	00a92823          	sw	a0,16(s2)
    6d7c:	46b2                	lw	a3,12(sp)
    6d7e:	e115                	bnez	a0,6da2 <_svfiprintf_r+0x64>
    6d80:	47b1                	li	a5,12
    6d82:	00f9a023          	sw	a5,0(s3)
    6d86:	557d                	li	a0,-1
    6d88:	50ba                	lw	ra,172(sp)
    6d8a:	542a                	lw	s0,168(sp)
    6d8c:	549a                	lw	s1,164(sp)
    6d8e:	590a                	lw	s2,160(sp)
    6d90:	49fa                	lw	s3,156(sp)
    6d92:	4a6a                	lw	s4,152(sp)
    6d94:	4ada                	lw	s5,148(sp)
    6d96:	4b4a                	lw	s6,144(sp)
    6d98:	4bba                	lw	s7,140(sp)
    6d9a:	4c2a                	lw	s8,136(sp)
    6d9c:	4c9a                	lw	s9,132(sp)
    6d9e:	614d                	addi	sp,sp,176
    6da0:	8082                	ret
    6da2:	04000793          	li	a5,64
    6da6:	00f92a23          	sw	a5,20(s2)
    6daa:	02000793          	li	a5,32
    6dae:	02f10ca3          	sb	a5,57(sp)
    6db2:	03000793          	li	a5,48
    6db6:	da02                	sw	zero,52(sp)
    6db8:	02f10d23          	sb	a5,58(sp)
    6dbc:	ce36                	sw	a3,28(sp)
    6dbe:	02500b93          	li	s7,37
    6dc2:	00002a97          	auipc	s5,0x2
    6dc6:	52aa8a93          	addi	s5,s5,1322 # 92ec <p05.3319+0xc>
    6dca:	4c05                	li	s8,1
    6dcc:	4b29                	li	s6,10
    6dce:	8426                	mv	s0,s1
    6dd0:	00044783          	lbu	a5,0(s0)
    6dd4:	c399                	beqz	a5,6dda <_svfiprintf_r+0x9c>
    6dd6:	09779d63          	bne	a5,s7,6e70 <_svfiprintf_r+0x132>
    6dda:	40940cb3          	sub	s9,s0,s1
    6dde:	000c8e63          	beqz	s9,6dfa <_svfiprintf_r+0xbc>
    6de2:	86e6                	mv	a3,s9
    6de4:	8626                	mv	a2,s1
    6de6:	85ca                	mv	a1,s2
    6de8:	854e                	mv	a0,s3
    6dea:	e6bff0ef          	jal	ra,6c54 <__ssputs_r>
    6dee:	57fd                	li	a5,-1
    6df0:	1af50263          	beq	a0,a5,6f94 <_svfiprintf_r+0x256>
    6df4:	56d2                	lw	a3,52(sp)
    6df6:	96e6                	add	a3,a3,s9
    6df8:	da36                	sw	a3,52(sp)
    6dfa:	00044783          	lbu	a5,0(s0)
    6dfe:	18078b63          	beqz	a5,6f94 <_svfiprintf_r+0x256>
    6e02:	57fd                	li	a5,-1
    6e04:	00140493          	addi	s1,s0,1
    6e08:	d002                	sw	zero,32(sp)
    6e0a:	d602                	sw	zero,44(sp)
    6e0c:	d23e                	sw	a5,36(sp)
    6e0e:	d402                	sw	zero,40(sp)
    6e10:	060101a3          	sb	zero,99(sp)
    6e14:	dc82                	sw	zero,120(sp)
    6e16:	0004c583          	lbu	a1,0(s1)
    6e1a:	4615                	li	a2,5
    6e1c:	8556                	mv	a0,s5
    6e1e:	ef8ff0ef          	jal	ra,6516 <memchr>
    6e22:	00148413          	addi	s0,s1,1
    6e26:	5782                	lw	a5,32(sp)
    6e28:	e531                	bnez	a0,6e74 <_svfiprintf_r+0x136>
    6e2a:	0107f713          	andi	a4,a5,16
    6e2e:	c709                	beqz	a4,6e38 <_svfiprintf_r+0xfa>
    6e30:	02000713          	li	a4,32
    6e34:	06e101a3          	sb	a4,99(sp)
    6e38:	0087f713          	andi	a4,a5,8
    6e3c:	c709                	beqz	a4,6e46 <_svfiprintf_r+0x108>
    6e3e:	02b00713          	li	a4,43
    6e42:	06e101a3          	sb	a4,99(sp)
    6e46:	0004c683          	lbu	a3,0(s1)
    6e4a:	02a00713          	li	a4,42
    6e4e:	02e68b63          	beq	a3,a4,6e84 <_svfiprintf_r+0x146>
    6e52:	57b2                	lw	a5,44(sp)
    6e54:	8426                	mv	s0,s1
    6e56:	4681                	li	a3,0
    6e58:	4625                	li	a2,9
    6e5a:	00044703          	lbu	a4,0(s0)
    6e5e:	00140593          	addi	a1,s0,1
    6e62:	fd070713          	addi	a4,a4,-48
    6e66:	06e67463          	bgeu	a2,a4,6ece <_svfiprintf_r+0x190>
    6e6a:	c68d                	beqz	a3,6e94 <_svfiprintf_r+0x156>
    6e6c:	d63e                	sw	a5,44(sp)
    6e6e:	a01d                	j	6e94 <_svfiprintf_r+0x156>
    6e70:	0405                	addi	s0,s0,1
    6e72:	bfb9                	j	6dd0 <_svfiprintf_r+0x92>
    6e74:	41550533          	sub	a0,a0,s5
    6e78:	00ac1533          	sll	a0,s8,a0
    6e7c:	8fc9                	or	a5,a5,a0
    6e7e:	d03e                	sw	a5,32(sp)
    6e80:	84a2                	mv	s1,s0
    6e82:	bf51                	j	6e16 <_svfiprintf_r+0xd8>
    6e84:	4772                	lw	a4,28(sp)
    6e86:	00470693          	addi	a3,a4,4
    6e8a:	4318                	lw	a4,0(a4)
    6e8c:	ce36                	sw	a3,28(sp)
    6e8e:	02074963          	bltz	a4,6ec0 <_svfiprintf_r+0x182>
    6e92:	d63a                	sw	a4,44(sp)
    6e94:	00044703          	lbu	a4,0(s0)
    6e98:	02e00793          	li	a5,46
    6e9c:	04f71f63          	bne	a4,a5,6efa <_svfiprintf_r+0x1bc>
    6ea0:	00144703          	lbu	a4,1(s0)
    6ea4:	02a00793          	li	a5,42
    6ea8:	02f71b63          	bne	a4,a5,6ede <_svfiprintf_r+0x1a0>
    6eac:	47f2                	lw	a5,28(sp)
    6eae:	0409                	addi	s0,s0,2
    6eb0:	00478713          	addi	a4,a5,4
    6eb4:	439c                	lw	a5,0(a5)
    6eb6:	ce3a                	sw	a4,28(sp)
    6eb8:	0207c163          	bltz	a5,6eda <_svfiprintf_r+0x19c>
    6ebc:	d23e                	sw	a5,36(sp)
    6ebe:	a835                	j	6efa <_svfiprintf_r+0x1bc>
    6ec0:	40e00733          	neg	a4,a4
    6ec4:	0027e793          	ori	a5,a5,2
    6ec8:	d63a                	sw	a4,44(sp)
    6eca:	d03e                	sw	a5,32(sp)
    6ecc:	b7e1                	j	6e94 <_svfiprintf_r+0x156>
    6ece:	036787b3          	mul	a5,a5,s6
    6ed2:	4685                	li	a3,1
    6ed4:	842e                	mv	s0,a1
    6ed6:	97ba                	add	a5,a5,a4
    6ed8:	b749                	j	6e5a <_svfiprintf_r+0x11c>
    6eda:	57fd                	li	a5,-1
    6edc:	b7c5                	j	6ebc <_svfiprintf_r+0x17e>
    6ede:	0405                	addi	s0,s0,1
    6ee0:	d202                	sw	zero,36(sp)
    6ee2:	4681                	li	a3,0
    6ee4:	4781                	li	a5,0
    6ee6:	4625                	li	a2,9
    6ee8:	00044703          	lbu	a4,0(s0)
    6eec:	00140593          	addi	a1,s0,1
    6ef0:	fd070713          	addi	a4,a4,-48
    6ef4:	06e67863          	bgeu	a2,a4,6f64 <_svfiprintf_r+0x226>
    6ef8:	f2f1                	bnez	a3,6ebc <_svfiprintf_r+0x17e>
    6efa:	00044583          	lbu	a1,0(s0)
    6efe:	460d                	li	a2,3
    6f00:	00002517          	auipc	a0,0x2
    6f04:	3f450513          	addi	a0,a0,1012 # 92f4 <p05.3319+0x14>
    6f08:	e0eff0ef          	jal	ra,6516 <memchr>
    6f0c:	cd11                	beqz	a0,6f28 <_svfiprintf_r+0x1ea>
    6f0e:	00002797          	auipc	a5,0x2
    6f12:	3e678793          	addi	a5,a5,998 # 92f4 <p05.3319+0x14>
    6f16:	8d1d                	sub	a0,a0,a5
    6f18:	04000793          	li	a5,64
    6f1c:	00a797b3          	sll	a5,a5,a0
    6f20:	5502                	lw	a0,32(sp)
    6f22:	0405                	addi	s0,s0,1
    6f24:	8d5d                	or	a0,a0,a5
    6f26:	d02a                	sw	a0,32(sp)
    6f28:	00044583          	lbu	a1,0(s0)
    6f2c:	4619                	li	a2,6
    6f2e:	00002517          	auipc	a0,0x2
    6f32:	3ca50513          	addi	a0,a0,970 # 92f8 <p05.3319+0x18>
    6f36:	00140493          	addi	s1,s0,1
    6f3a:	02b10c23          	sb	a1,56(sp)
    6f3e:	dd8ff0ef          	jal	ra,6516 <memchr>
    6f42:	c135                	beqz	a0,6fa6 <_svfiprintf_r+0x268>
    6f44:	ffffe797          	auipc	a5,0xffffe
    6f48:	b2278793          	addi	a5,a5,-1246 # 4a66 <_printf_float>
    6f4c:	e795                	bnez	a5,6f78 <_svfiprintf_r+0x23a>
    6f4e:	5702                	lw	a4,32(sp)
    6f50:	47f2                	lw	a5,28(sp)
    6f52:	10077713          	andi	a4,a4,256
    6f56:	cf09                	beqz	a4,6f70 <_svfiprintf_r+0x232>
    6f58:	0791                	addi	a5,a5,4
    6f5a:	ce3e                	sw	a5,28(sp)
    6f5c:	57d2                	lw	a5,52(sp)
    6f5e:	97d2                	add	a5,a5,s4
    6f60:	da3e                	sw	a5,52(sp)
    6f62:	b5b5                	j	6dce <_svfiprintf_r+0x90>
    6f64:	036787b3          	mul	a5,a5,s6
    6f68:	4685                	li	a3,1
    6f6a:	842e                	mv	s0,a1
    6f6c:	97ba                	add	a5,a5,a4
    6f6e:	bfad                	j	6ee8 <_svfiprintf_r+0x1aa>
    6f70:	079d                	addi	a5,a5,7
    6f72:	9be1                	andi	a5,a5,-8
    6f74:	07a1                	addi	a5,a5,8
    6f76:	b7d5                	j	6f5a <_svfiprintf_r+0x21c>
    6f78:	0878                	addi	a4,sp,28
    6f7a:	00000697          	auipc	a3,0x0
    6f7e:	cda68693          	addi	a3,a3,-806 # 6c54 <__ssputs_r>
    6f82:	864a                	mv	a2,s2
    6f84:	100c                	addi	a1,sp,32
    6f86:	854e                	mv	a0,s3
    6f88:	adffd0ef          	jal	ra,4a66 <_printf_float>
    6f8c:	57fd                	li	a5,-1
    6f8e:	8a2a                	mv	s4,a0
    6f90:	fcf516e3          	bne	a0,a5,6f5c <_svfiprintf_r+0x21e>
    6f94:	00c95783          	lhu	a5,12(s2)
    6f98:	557d                	li	a0,-1
    6f9a:	0407f793          	andi	a5,a5,64
    6f9e:	de0795e3          	bnez	a5,6d88 <_svfiprintf_r+0x4a>
    6fa2:	5552                	lw	a0,52(sp)
    6fa4:	b3d5                	j	6d88 <_svfiprintf_r+0x4a>
    6fa6:	0878                	addi	a4,sp,28
    6fa8:	00000697          	auipc	a3,0x0
    6fac:	cac68693          	addi	a3,a3,-852 # 6c54 <__ssputs_r>
    6fb0:	864a                	mv	a2,s2
    6fb2:	100c                	addi	a1,sp,32
    6fb4:	854e                	mv	a0,s3
    6fb6:	880fe0ef          	jal	ra,5036 <_printf_i>
    6fba:	bfc9                	j	6f8c <_svfiprintf_r+0x24e>

00006fbc <__ascii_wctomb>:
    6fbc:	cd91                	beqz	a1,6fd8 <__ascii_wctomb+0x1c>
    6fbe:	0ff00793          	li	a5,255
    6fc2:	00c7f763          	bgeu	a5,a2,6fd0 <__ascii_wctomb+0x14>
    6fc6:	08a00793          	li	a5,138
    6fca:	c11c                	sw	a5,0(a0)
    6fcc:	557d                	li	a0,-1
    6fce:	8082                	ret
    6fd0:	00c58023          	sb	a2,0(a1)
    6fd4:	4505                	li	a0,1
    6fd6:	8082                	ret
    6fd8:	4501                	li	a0,0
    6fda:	8082                	ret

00006fdc <memmove>:
    6fdc:	04a5f363          	bgeu	a1,a0,7022 <memmove+0x46>
    6fe0:	00c586b3          	add	a3,a1,a2
    6fe4:	02d57f63          	bgeu	a0,a3,7022 <memmove+0x46>
    6fe8:	fff64593          	not	a1,a2
    6fec:	4781                	li	a5,0
    6fee:	17fd                	addi	a5,a5,-1
    6ff0:	00f59363          	bne	a1,a5,6ff6 <memmove+0x1a>
    6ff4:	8082                	ret
    6ff6:	00f68733          	add	a4,a3,a5
    6ffa:	00074803          	lbu	a6,0(a4)
    6ffe:	00c78733          	add	a4,a5,a2
    7002:	972a                	add	a4,a4,a0
    7004:	01070023          	sb	a6,0(a4)
    7008:	b7dd                	j	6fee <memmove+0x12>
    700a:	00f58733          	add	a4,a1,a5
    700e:	00074683          	lbu	a3,0(a4)
    7012:	00f50733          	add	a4,a0,a5
    7016:	0785                	addi	a5,a5,1
    7018:	00d70023          	sb	a3,0(a4)
    701c:	fef617e3          	bne	a2,a5,700a <memmove+0x2e>
    7020:	8082                	ret
    7022:	4781                	li	a5,0
    7024:	bfe5                	j	701c <memmove+0x40>

00007026 <_realloc_r>:
    7026:	e581                	bnez	a1,702e <_realloc_r+0x8>
    7028:	85b2                	mv	a1,a2
    702a:	fe8fd06f          	j	4812 <_malloc_r>
    702e:	1101                	addi	sp,sp,-32
    7030:	cc22                	sw	s0,24(sp)
    7032:	ce06                	sw	ra,28(sp)
    7034:	ca26                	sw	s1,20(sp)
    7036:	c84a                	sw	s2,16(sp)
    7038:	c64e                	sw	s3,12(sp)
    703a:	8432                	mv	s0,a2
    703c:	ee01                	bnez	a2,7054 <_realloc_r+0x2e>
    703e:	f2cfd0ef          	jal	ra,476a <_free_r>
    7042:	4901                	li	s2,0
    7044:	40f2                	lw	ra,28(sp)
    7046:	4462                	lw	s0,24(sp)
    7048:	854a                	mv	a0,s2
    704a:	44d2                	lw	s1,20(sp)
    704c:	4942                	lw	s2,16(sp)
    704e:	49b2                	lw	s3,12(sp)
    7050:	6105                	addi	sp,sp,32
    7052:	8082                	ret
    7054:	84ae                	mv	s1,a1
    7056:	89aa                	mv	s3,a0
    7058:	201d                	jal	707e <_malloc_usable_size_r>
    705a:	8926                	mv	s2,s1
    705c:	fe8574e3          	bgeu	a0,s0,7044 <_realloc_r+0x1e>
    7060:	85a2                	mv	a1,s0
    7062:	854e                	mv	a0,s3
    7064:	faefd0ef          	jal	ra,4812 <_malloc_r>
    7068:	892a                	mv	s2,a0
    706a:	dd69                	beqz	a0,7044 <_realloc_r+0x1e>
    706c:	85a6                	mv	a1,s1
    706e:	8622                	mv	a2,s0
    7070:	e44fd0ef          	jal	ra,46b4 <memcpy>
    7074:	85a6                	mv	a1,s1
    7076:	854e                	mv	a0,s3
    7078:	ef2fd0ef          	jal	ra,476a <_free_r>
    707c:	b7e1                	j	7044 <_realloc_r+0x1e>

0000707e <_malloc_usable_size_r>:
    707e:	ffc5a783          	lw	a5,-4(a1)
    7082:	ffc78513          	addi	a0,a5,-4
    7086:	0007d563          	bgez	a5,7090 <_malloc_usable_size_r+0x12>
    708a:	95aa                	add	a1,a1,a0
    708c:	419c                	lw	a5,0(a1)
    708e:	953e                	add	a0,a0,a5
    7090:	8082                	ret

00007092 <__adddf3>:
    7092:	00100837          	lui	a6,0x100
    7096:	1101                	addi	sp,sp,-32
    7098:	187d                	addi	a6,a6,-1
    709a:	00b87733          	and	a4,a6,a1
    709e:	ca26                	sw	s1,20(sp)
    70a0:	00d87833          	and	a6,a6,a3
    70a4:	0145d493          	srli	s1,a1,0x14
    70a8:	0146d313          	srli	t1,a3,0x14
    70ac:	00371e13          	slli	t3,a4,0x3
    70b0:	c64e                	sw	s3,12(sp)
    70b2:	01d55713          	srli	a4,a0,0x1d
    70b6:	080e                	slli	a6,a6,0x3
    70b8:	01d65793          	srli	a5,a2,0x1d
    70bc:	7ff4f493          	andi	s1,s1,2047
    70c0:	7ff37313          	andi	t1,t1,2047
    70c4:	ce06                	sw	ra,28(sp)
    70c6:	cc22                	sw	s0,24(sp)
    70c8:	c84a                	sw	s2,16(sp)
    70ca:	01f5d993          	srli	s3,a1,0x1f
    70ce:	01f6de93          	srli	t4,a3,0x1f
    70d2:	01c76733          	or	a4,a4,t3
    70d6:	00351f13          	slli	t5,a0,0x3
    70da:	0107e833          	or	a6,a5,a6
    70de:	00361f93          	slli	t6,a2,0x3
    70e2:	40648e33          	sub	t3,s1,t1
    70e6:	19d98063          	beq	s3,t4,7266 <__adddf3+0x1d4>
    70ea:	13c05663          	blez	t3,7216 <__adddf3+0x184>
    70ee:	1c030463          	beqz	t1,72b6 <__adddf3+0x224>
    70f2:	008006b7          	lui	a3,0x800
    70f6:	7ff00793          	li	a5,2047
    70fa:	00d86833          	or	a6,a6,a3
    70fe:	36f48f63          	beq	s1,a5,747c <__adddf3+0x3ea>
    7102:	03800793          	li	a5,56
    7106:	35c7c063          	blt	a5,t3,7446 <__adddf3+0x3b4>
    710a:	47fd                	li	a5,31
    710c:	47c7cd63          	blt	a5,t3,7586 <__adddf3+0x4f4>
    7110:	02000513          	li	a0,32
    7114:	41c50533          	sub	a0,a0,t3
    7118:	01cfd7b3          	srl	a5,t6,t3
    711c:	00a816b3          	sll	a3,a6,a0
    7120:	00af9933          	sll	s2,t6,a0
    7124:	8edd                	or	a3,a3,a5
    7126:	01203933          	snez	s2,s2
    712a:	01c857b3          	srl	a5,a6,t3
    712e:	0126e933          	or	s2,a3,s2
    7132:	8f1d                	sub	a4,a4,a5
    7134:	412f0933          	sub	s2,t5,s2
    7138:	012f37b3          	sltu	a5,t5,s2
    713c:	40f70633          	sub	a2,a4,a5
    7140:	00861793          	slli	a5,a2,0x8
    7144:	2407d463          	bgez	a5,738c <__adddf3+0x2fa>
    7148:	00800737          	lui	a4,0x800
    714c:	177d                	addi	a4,a4,-1
    714e:	00e67433          	and	s0,a2,a4
    7152:	2c040c63          	beqz	s0,742a <__adddf3+0x398>
    7156:	8522                	mv	a0,s0
    7158:	cc2fd0ef          	jal	ra,461a <__clzsi2>
    715c:	ff850713          	addi	a4,a0,-8
    7160:	02000793          	li	a5,32
    7164:	8f99                	sub	a5,a5,a4
    7166:	00f957b3          	srl	a5,s2,a5
    716a:	00e41633          	sll	a2,s0,a4
    716e:	8fd1                	or	a5,a5,a2
    7170:	00e91933          	sll	s2,s2,a4
    7174:	2a974163          	blt	a4,s1,7416 <__adddf3+0x384>
    7178:	40970533          	sub	a0,a4,s1
    717c:	00150613          	addi	a2,a0,1
    7180:	477d                	li	a4,31
    7182:	38c74d63          	blt	a4,a2,751c <__adddf3+0x48a>
    7186:	02000713          	li	a4,32
    718a:	8f11                	sub	a4,a4,a2
    718c:	00c956b3          	srl	a3,s2,a2
    7190:	00e91933          	sll	s2,s2,a4
    7194:	00e79733          	sll	a4,a5,a4
    7198:	8f55                	or	a4,a4,a3
    719a:	01203933          	snez	s2,s2
    719e:	01276933          	or	s2,a4,s2
    71a2:	00c7d633          	srl	a2,a5,a2
    71a6:	4481                	li	s1,0
    71a8:	00797793          	andi	a5,s2,7
    71ac:	cf81                	beqz	a5,71c4 <__adddf3+0x132>
    71ae:	00f97713          	andi	a4,s2,15
    71b2:	4791                	li	a5,4
    71b4:	00f70863          	beq	a4,a5,71c4 <__adddf3+0x132>
    71b8:	00490713          	addi	a4,s2,4
    71bc:	01273933          	sltu	s2,a4,s2
    71c0:	964a                	add	a2,a2,s2
    71c2:	893a                	mv	s2,a4
    71c4:	00861793          	slli	a5,a2,0x8
    71c8:	1c07d663          	bgez	a5,7394 <__adddf3+0x302>
    71cc:	00148513          	addi	a0,s1,1
    71d0:	7ff00793          	li	a5,2047
    71d4:	85ce                	mv	a1,s3
    71d6:	20f50463          	beq	a0,a5,73de <__adddf3+0x34c>
    71da:	ff8007b7          	lui	a5,0xff800
    71de:	17fd                	addi	a5,a5,-1
    71e0:	8ff1                	and	a5,a5,a2
    71e2:	01d79893          	slli	a7,a5,0x1d
    71e6:	00395913          	srli	s2,s2,0x3
    71ea:	07a6                	slli	a5,a5,0x9
    71ec:	0128e8b3          	or	a7,a7,s2
    71f0:	83b1                	srli	a5,a5,0xc
    71f2:	7ff57513          	andi	a0,a0,2047
    71f6:	00c79693          	slli	a3,a5,0xc
    71fa:	0552                	slli	a0,a0,0x14
    71fc:	40f2                	lw	ra,28(sp)
    71fe:	4462                	lw	s0,24(sp)
    7200:	82b1                	srli	a3,a3,0xc
    7202:	05fe                	slli	a1,a1,0x1f
    7204:	8ec9                	or	a3,a3,a0
    7206:	8ecd                	or	a3,a3,a1
    7208:	44d2                	lw	s1,20(sp)
    720a:	4942                	lw	s2,16(sp)
    720c:	49b2                	lw	s3,12(sp)
    720e:	8546                	mv	a0,a7
    7210:	85b6                	mv	a1,a3
    7212:	6105                	addi	sp,sp,32
    7214:	8082                	ret
    7216:	0a0e1e63          	bnez	t3,72d2 <__adddf3+0x240>
    721a:	00148313          	addi	t1,s1,1
    721e:	7fe37313          	andi	t1,t1,2046
    7222:	22031763          	bnez	t1,7450 <__adddf3+0x3be>
    7226:	01e767b3          	or	a5,a4,t5
    722a:	01f868b3          	or	a7,a6,t6
    722e:	1a049d63          	bnez	s1,73e8 <__adddf3+0x356>
    7232:	40078763          	beqz	a5,7640 <__adddf3+0x5ae>
    7236:	44088663          	beqz	a7,7682 <__adddf3+0x5f0>
    723a:	41ff0933          	sub	s2,t5,t6
    723e:	410707b3          	sub	a5,a4,a6
    7242:	012f3633          	sltu	a2,t5,s2
    7246:	40c78633          	sub	a2,a5,a2
    724a:	00861793          	slli	a5,a2,0x8
    724e:	4c07d663          	bgez	a5,771a <__adddf3+0x688>
    7252:	41ef8933          	sub	s2,t6,t5
    7256:	40e807b3          	sub	a5,a6,a4
    725a:	012fb633          	sltu	a2,t6,s2
    725e:	40c78633          	sub	a2,a5,a2
    7262:	89f6                	mv	s3,t4
    7264:	b791                	j	71a8 <__adddf3+0x116>
    7266:	0fc05063          	blez	t3,7346 <__adddf3+0x2b4>
    726a:	0c030063          	beqz	t1,732a <__adddf3+0x298>
    726e:	008006b7          	lui	a3,0x800
    7272:	7ff00793          	li	a5,2047
    7276:	00d86833          	or	a6,a6,a3
    727a:	3af48a63          	beq	s1,a5,762e <__adddf3+0x59c>
    727e:	03800793          	li	a5,56
    7282:	13c7cb63          	blt	a5,t3,73b8 <__adddf3+0x326>
    7286:	47fd                	li	a5,31
    7288:	35c7df63          	bge	a5,t3,75e6 <__adddf3+0x554>
    728c:	fe0e0913          	addi	s2,t3,-32
    7290:	02000793          	li	a5,32
    7294:	012856b3          	srl	a3,a6,s2
    7298:	00fe0a63          	beq	t3,a5,72ac <__adddf3+0x21a>
    729c:	04000913          	li	s2,64
    72a0:	41c90933          	sub	s2,s2,t3
    72a4:	01281933          	sll	s2,a6,s2
    72a8:	012fefb3          	or	t6,t6,s2
    72ac:	01f03933          	snez	s2,t6
    72b0:	00d96933          	or	s2,s2,a3
    72b4:	a231                	j	73c0 <__adddf3+0x32e>
    72b6:	01f867b3          	or	a5,a6,t6
    72ba:	1c078a63          	beqz	a5,748e <__adddf3+0x3fc>
    72be:	fffe0793          	addi	a5,t3,-1
    72c2:	38078c63          	beqz	a5,765a <__adddf3+0x5c8>
    72c6:	7ff00693          	li	a3,2047
    72ca:	1ade0963          	beq	t3,a3,747c <__adddf3+0x3ea>
    72ce:	8e3e                	mv	t3,a5
    72d0:	bd0d                	j	7102 <__adddf3+0x70>
    72d2:	409305b3          	sub	a1,t1,s1
    72d6:	22049163          	bnez	s1,74f8 <__adddf3+0x466>
    72da:	01e767b3          	or	a5,a4,t5
    72de:	32078763          	beqz	a5,760c <__adddf3+0x57a>
    72e2:	fff58793          	addi	a5,a1,-1
    72e6:	44078163          	beqz	a5,7728 <__adddf3+0x696>
    72ea:	7ff00693          	li	a3,2047
    72ee:	20d58c63          	beq	a1,a3,7506 <__adddf3+0x474>
    72f2:	85be                	mv	a1,a5
    72f4:	03800793          	li	a5,56
    72f8:	2ab7cc63          	blt	a5,a1,75b0 <__adddf3+0x51e>
    72fc:	47fd                	li	a5,31
    72fe:	3cb7cf63          	blt	a5,a1,76dc <__adddf3+0x64a>
    7302:	02000793          	li	a5,32
    7306:	8f8d                	sub	a5,a5,a1
    7308:	00f71933          	sll	s2,a4,a5
    730c:	00bf56b3          	srl	a3,t5,a1
    7310:	00ff17b3          	sll	a5,t5,a5
    7314:	00d96933          	or	s2,s2,a3
    7318:	00f037b3          	snez	a5,a5
    731c:	00b75733          	srl	a4,a4,a1
    7320:	00f96933          	or	s2,s2,a5
    7324:	40e80833          	sub	a6,a6,a4
    7328:	ac41                	j	75b8 <__adddf3+0x526>
    732a:	01f867b3          	or	a5,a6,t6
    732e:	34078063          	beqz	a5,766e <__adddf3+0x5dc>
    7332:	fffe0793          	addi	a5,t3,-1
    7336:	20078a63          	beqz	a5,754a <__adddf3+0x4b8>
    733a:	7ff00693          	li	a3,2047
    733e:	2ede0863          	beq	t3,a3,762e <__adddf3+0x59c>
    7342:	8e3e                	mv	t3,a5
    7344:	bf2d                	j	727e <__adddf3+0x1ec>
    7346:	140e1e63          	bnez	t3,74a2 <__adddf3+0x410>
    734a:	00148693          	addi	a3,s1,1
    734e:	7fe6f793          	andi	a5,a3,2046
    7352:	34079163          	bnez	a5,7694 <__adddf3+0x602>
    7356:	01e767b3          	or	a5,a4,t5
    735a:	2c049563          	bnez	s1,7624 <__adddf3+0x592>
    735e:	3e078063          	beqz	a5,773e <__adddf3+0x6ac>
    7362:	01f867b3          	or	a5,a6,t6
    7366:	30078e63          	beqz	a5,7682 <__adddf3+0x5f0>
    736a:	01ff0933          	add	s2,t5,t6
    736e:	010707b3          	add	a5,a4,a6
    7372:	01e93f33          	sltu	t5,s2,t5
    7376:	01e78633          	add	a2,a5,t5
    737a:	00861793          	slli	a5,a2,0x8
    737e:	0007d763          	bgez	a5,738c <__adddf3+0x2fa>
    7382:	ff8007b7          	lui	a5,0xff800
    7386:	17fd                	addi	a5,a5,-1
    7388:	8e7d                	and	a2,a2,a5
    738a:	4485                	li	s1,1
    738c:	00797793          	andi	a5,s2,7
    7390:	e0079fe3          	bnez	a5,71ae <__adddf3+0x11c>
    7394:	01d61793          	slli	a5,a2,0x1d
    7398:	00395893          	srli	a7,s2,0x3
    739c:	00f8e8b3          	or	a7,a7,a5
    73a0:	00365793          	srli	a5,a2,0x3
    73a4:	7ff00713          	li	a4,2047
    73a8:	04e48d63          	beq	s1,a4,7402 <__adddf3+0x370>
    73ac:	07b2                	slli	a5,a5,0xc
    73ae:	83b1                	srli	a5,a5,0xc
    73b0:	7ff4f513          	andi	a0,s1,2047
    73b4:	85ce                	mv	a1,s3
    73b6:	b581                	j	71f6 <__adddf3+0x164>
    73b8:	01f86933          	or	s2,a6,t6
    73bc:	01203933          	snez	s2,s2
    73c0:	997a                	add	s2,s2,t5
    73c2:	01e937b3          	sltu	a5,s2,t5
    73c6:	00e78633          	add	a2,a5,a4
    73ca:	00861793          	slli	a5,a2,0x8
    73ce:	fa07dfe3          	bgez	a5,738c <__adddf3+0x2fa>
    73d2:	0485                	addi	s1,s1,1
    73d4:	7ff00793          	li	a5,2047
    73d8:	18f49663          	bne	s1,a5,7564 <__adddf3+0x4d2>
    73dc:	85ce                	mv	a1,s3
    73de:	7ff00513          	li	a0,2047
    73e2:	4781                	li	a5,0
    73e4:	4881                	li	a7,0
    73e6:	bd01                	j	71f6 <__adddf3+0x164>
    73e8:	ebc1                	bnez	a5,7478 <__adddf3+0x3e6>
    73ea:	3a088463          	beqz	a7,7792 <__adddf3+0x700>
    73ee:	00361693          	slli	a3,a2,0x3
    73f2:	01d81793          	slli	a5,a6,0x1d
    73f6:	828d                	srli	a3,a3,0x3
    73f8:	00d7e8b3          	or	a7,a5,a3
    73fc:	89f6                	mv	s3,t4
    73fe:	00385793          	srli	a5,a6,0x3
    7402:	00f8e7b3          	or	a5,a7,a5
    7406:	dbf9                	beqz	a5,73dc <__adddf3+0x34a>
    7408:	4581                	li	a1,0
    740a:	7ff00513          	li	a0,2047
    740e:	000807b7          	lui	a5,0x80
    7412:	4881                	li	a7,0
    7414:	b3cd                	j	71f6 <__adddf3+0x164>
    7416:	ff800637          	lui	a2,0xff800
    741a:	167d                	addi	a2,a2,-1
    741c:	8e7d                	and	a2,a2,a5
    741e:	00797793          	andi	a5,s2,7
    7422:	8c99                	sub	s1,s1,a4
    7424:	d80795e3          	bnez	a5,71ae <__adddf3+0x11c>
    7428:	b7b5                	j	7394 <__adddf3+0x302>
    742a:	854a                	mv	a0,s2
    742c:	9eefd0ef          	jal	ra,461a <__clzsi2>
    7430:	01850713          	addi	a4,a0,24
    7434:	47fd                	li	a5,31
    7436:	d2e7d5e3          	bge	a5,a4,7160 <__adddf3+0xce>
    743a:	ff850613          	addi	a2,a0,-8
    743e:	00c917b3          	sll	a5,s2,a2
    7442:	4901                	li	s2,0
    7444:	bb05                	j	7174 <__adddf3+0xe2>
    7446:	01f86933          	or	s2,a6,t6
    744a:	01203933          	snez	s2,s2
    744e:	b1dd                	j	7134 <__adddf3+0xa2>
    7450:	41ff0933          	sub	s2,t5,t6
    7454:	41070633          	sub	a2,a4,a6
    7458:	012f3433          	sltu	s0,t5,s2
    745c:	40860433          	sub	s0,a2,s0
    7460:	00841793          	slli	a5,s0,0x8
    7464:	2407cd63          	bltz	a5,76be <__adddf3+0x62c>
    7468:	008968b3          	or	a7,s2,s0
    746c:	ce0893e3          	bnez	a7,7152 <__adddf3+0xc0>
    7470:	4781                	li	a5,0
    7472:	4981                	li	s3,0
    7474:	4481                	li	s1,0
    7476:	bf1d                	j	73ac <__adddf3+0x31a>
    7478:	f80898e3          	bnez	a7,7408 <__adddf3+0x376>
    747c:	050e                	slli	a0,a0,0x3
    747e:	01d71793          	slli	a5,a4,0x1d
    7482:	810d                	srli	a0,a0,0x3
    7484:	00a7e8b3          	or	a7,a5,a0
    7488:	00375793          	srli	a5,a4,0x3
    748c:	bf9d                	j	7402 <__adddf3+0x370>
    748e:	050e                	slli	a0,a0,0x3
    7490:	01d71793          	slli	a5,a4,0x1d
    7494:	810d                	srli	a0,a0,0x3
    7496:	00a7e8b3          	or	a7,a5,a0
    749a:	84f2                	mv	s1,t3
    749c:	00375793          	srli	a5,a4,0x3
    74a0:	b711                	j	73a4 <__adddf3+0x312>
    74a2:	40930533          	sub	a0,t1,s1
    74a6:	12048263          	beqz	s1,75ca <__adddf3+0x538>
    74aa:	008006b7          	lui	a3,0x800
    74ae:	7ff00793          	li	a5,2047
    74b2:	8f55                	or	a4,a4,a3
    74b4:	2ef30d63          	beq	t1,a5,77ae <__adddf3+0x71c>
    74b8:	03800793          	li	a5,56
    74bc:	20a7cb63          	blt	a5,a0,76d2 <__adddf3+0x640>
    74c0:	47fd                	li	a5,31
    74c2:	2aa7c363          	blt	a5,a0,7768 <__adddf3+0x6d6>
    74c6:	02000793          	li	a5,32
    74ca:	8f89                	sub	a5,a5,a0
    74cc:	00f71933          	sll	s2,a4,a5
    74d0:	00af56b3          	srl	a3,t5,a0
    74d4:	00ff17b3          	sll	a5,t5,a5
    74d8:	00d96933          	or	s2,s2,a3
    74dc:	00f037b3          	snez	a5,a5
    74e0:	00a75733          	srl	a4,a4,a0
    74e4:	00f96933          	or	s2,s2,a5
    74e8:	983a                	add	a6,a6,a4
    74ea:	997e                	add	s2,s2,t6
    74ec:	01f937b3          	sltu	a5,s2,t6
    74f0:	01078633          	add	a2,a5,a6
    74f4:	849a                	mv	s1,t1
    74f6:	bdd1                	j	73ca <__adddf3+0x338>
    74f8:	008006b7          	lui	a3,0x800
    74fc:	7ff00793          	li	a5,2047
    7500:	8f55                	or	a4,a4,a3
    7502:	def319e3          	bne	t1,a5,72f4 <__adddf3+0x262>
    7506:	00361793          	slli	a5,a2,0x3
    750a:	838d                	srli	a5,a5,0x3
    750c:	01d81893          	slli	a7,a6,0x1d
    7510:	0117e8b3          	or	a7,a5,a7
    7514:	89f6                	mv	s3,t4
    7516:	00385793          	srli	a5,a6,0x3
    751a:	b5e5                	j	7402 <__adddf3+0x370>
    751c:	fe150713          	addi	a4,a0,-31
    7520:	02000693          	li	a3,32
    7524:	00e7d733          	srl	a4,a5,a4
    7528:	00d60a63          	beq	a2,a3,753c <__adddf3+0x4aa>
    752c:	04000693          	li	a3,64
    7530:	40c68633          	sub	a2,a3,a2
    7534:	00c79633          	sll	a2,a5,a2
    7538:	00c96933          	or	s2,s2,a2
    753c:	01203933          	snez	s2,s2
    7540:	00e96933          	or	s2,s2,a4
    7544:	4601                	li	a2,0
    7546:	4481                	li	s1,0
    7548:	b591                	j	738c <__adddf3+0x2fa>
    754a:	01ff0933          	add	s2,t5,t6
    754e:	010707b3          	add	a5,a4,a6
    7552:	01e93633          	sltu	a2,s2,t5
    7556:	963e                	add	a2,a2,a5
    7558:	00861793          	slli	a5,a2,0x8
    755c:	4485                	li	s1,1
    755e:	e207d7e3          	bgez	a5,738c <__adddf3+0x2fa>
    7562:	4489                	li	s1,2
    7564:	ff8007b7          	lui	a5,0xff800
    7568:	17fd                	addi	a5,a5,-1
    756a:	8ff1                	and	a5,a5,a2
    756c:	00195713          	srli	a4,s2,0x1
    7570:	00197913          	andi	s2,s2,1
    7574:	01276933          	or	s2,a4,s2
    7578:	01f79893          	slli	a7,a5,0x1f
    757c:	0128e933          	or	s2,a7,s2
    7580:	0017d613          	srli	a2,a5,0x1
    7584:	b115                	j	71a8 <__adddf3+0x116>
    7586:	fe0e0913          	addi	s2,t3,-32
    758a:	02000793          	li	a5,32
    758e:	012856b3          	srl	a3,a6,s2
    7592:	00fe0a63          	beq	t3,a5,75a6 <__adddf3+0x514>
    7596:	04000913          	li	s2,64
    759a:	41c90933          	sub	s2,s2,t3
    759e:	01281933          	sll	s2,a6,s2
    75a2:	012fefb3          	or	t6,t6,s2
    75a6:	01f03933          	snez	s2,t6
    75aa:	00d96933          	or	s2,s2,a3
    75ae:	b659                	j	7134 <__adddf3+0xa2>
    75b0:	01e76933          	or	s2,a4,t5
    75b4:	01203933          	snez	s2,s2
    75b8:	412f8933          	sub	s2,t6,s2
    75bc:	012fb7b3          	sltu	a5,t6,s2
    75c0:	40f80633          	sub	a2,a6,a5
    75c4:	849a                	mv	s1,t1
    75c6:	89f6                	mv	s3,t4
    75c8:	bea5                	j	7140 <__adddf3+0xae>
    75ca:	01e767b3          	or	a5,a4,t5
    75ce:	18078263          	beqz	a5,7752 <__adddf3+0x6c0>
    75d2:	fff50793          	addi	a5,a0,-1
    75d6:	1c078463          	beqz	a5,779e <__adddf3+0x70c>
    75da:	7ff00693          	li	a3,2047
    75de:	12d50463          	beq	a0,a3,7706 <__adddf3+0x674>
    75e2:	853e                	mv	a0,a5
    75e4:	bdd1                	j	74b8 <__adddf3+0x426>
    75e6:	02000793          	li	a5,32
    75ea:	41c787b3          	sub	a5,a5,t3
    75ee:	00f816b3          	sll	a3,a6,a5
    75f2:	00ff9933          	sll	s2,t6,a5
    75f6:	01cfd633          	srl	a2,t6,t3
    75fa:	8ed1                	or	a3,a3,a2
    75fc:	01203933          	snez	s2,s2
    7600:	01c857b3          	srl	a5,a6,t3
    7604:	0126e933          	or	s2,a3,s2
    7608:	973e                	add	a4,a4,a5
    760a:	bb5d                	j	73c0 <__adddf3+0x32e>
    760c:	00361793          	slli	a5,a2,0x3
    7610:	838d                	srli	a5,a5,0x3
    7612:	01d81893          	slli	a7,a6,0x1d
    7616:	0117e8b3          	or	a7,a5,a7
    761a:	84ae                	mv	s1,a1
    761c:	00385793          	srli	a5,a6,0x3
    7620:	89f6                	mv	s3,t4
    7622:	b349                	j	73a4 <__adddf3+0x312>
    7624:	c3ed                	beqz	a5,7706 <__adddf3+0x674>
    7626:	01f86933          	or	s2,a6,t6
    762a:	dc091fe3          	bnez	s2,7408 <__adddf3+0x376>
    762e:	050e                	slli	a0,a0,0x3
    7630:	01d71793          	slli	a5,a4,0x1d
    7634:	810d                	srli	a0,a0,0x3
    7636:	00f568b3          	or	a7,a0,a5
    763a:	00375793          	srli	a5,a4,0x3
    763e:	b3d1                	j	7402 <__adddf3+0x370>
    7640:	0e088163          	beqz	a7,7722 <__adddf3+0x690>
    7644:	00361693          	slli	a3,a2,0x3
    7648:	01d81793          	slli	a5,a6,0x1d
    764c:	828d                	srli	a3,a3,0x3
    764e:	00d7e8b3          	or	a7,a5,a3
    7652:	89f6                	mv	s3,t4
    7654:	00385793          	srli	a5,a6,0x3
    7658:	bb91                	j	73ac <__adddf3+0x31a>
    765a:	41ff0933          	sub	s2,t5,t6
    765e:	410707b3          	sub	a5,a4,a6
    7662:	012f3f33          	sltu	t5,t5,s2
    7666:	41e78633          	sub	a2,a5,t5
    766a:	4485                	li	s1,1
    766c:	bcd1                	j	7140 <__adddf3+0xae>
    766e:	050e                	slli	a0,a0,0x3
    7670:	01d71793          	slli	a5,a4,0x1d
    7674:	810d                	srli	a0,a0,0x3
    7676:	00f568b3          	or	a7,a0,a5
    767a:	84f2                	mv	s1,t3
    767c:	00375793          	srli	a5,a4,0x3
    7680:	b315                	j	73a4 <__adddf3+0x312>
    7682:	050e                	slli	a0,a0,0x3
    7684:	01d71793          	slli	a5,a4,0x1d
    7688:	810d                	srli	a0,a0,0x3
    768a:	00a7e8b3          	or	a7,a5,a0
    768e:	00375793          	srli	a5,a4,0x3
    7692:	bb29                	j	73ac <__adddf3+0x31a>
    7694:	7ff00793          	li	a5,2047
    7698:	d4f682e3          	beq	a3,a5,73dc <__adddf3+0x34a>
    769c:	01ff0933          	add	s2,t5,t6
    76a0:	01e93633          	sltu	a2,s2,t5
    76a4:	010707b3          	add	a5,a4,a6
    76a8:	97b2                	add	a5,a5,a2
    76aa:	01f79893          	slli	a7,a5,0x1f
    76ae:	00195913          	srli	s2,s2,0x1
    76b2:	0128e933          	or	s2,a7,s2
    76b6:	0017d613          	srli	a2,a5,0x1
    76ba:	84b6                	mv	s1,a3
    76bc:	b9c1                	j	738c <__adddf3+0x2fa>
    76be:	41ef8933          	sub	s2,t6,t5
    76c2:	40e80733          	sub	a4,a6,a4
    76c6:	012fb633          	sltu	a2,t6,s2
    76ca:	40c70433          	sub	s0,a4,a2
    76ce:	89f6                	mv	s3,t4
    76d0:	b449                	j	7152 <__adddf3+0xc0>
    76d2:	01e76933          	or	s2,a4,t5
    76d6:	01203933          	snez	s2,s2
    76da:	bd01                	j	74ea <__adddf3+0x458>
    76dc:	fe058793          	addi	a5,a1,-32
    76e0:	02000693          	li	a3,32
    76e4:	00f757b3          	srl	a5,a4,a5
    76e8:	00d58a63          	beq	a1,a3,76fc <__adddf3+0x66a>
    76ec:	04000693          	li	a3,64
    76f0:	40b685b3          	sub	a1,a3,a1
    76f4:	00b71733          	sll	a4,a4,a1
    76f8:	00ef6f33          	or	t5,t5,a4
    76fc:	01e03933          	snez	s2,t5
    7700:	00f96933          	or	s2,s2,a5
    7704:	bd55                	j	75b8 <__adddf3+0x526>
    7706:	00361793          	slli	a5,a2,0x3
    770a:	838d                	srli	a5,a5,0x3
    770c:	01d81893          	slli	a7,a6,0x1d
    7710:	0117e8b3          	or	a7,a5,a7
    7714:	00385793          	srli	a5,a6,0x3
    7718:	b1ed                	j	7402 <__adddf3+0x370>
    771a:	00c968b3          	or	a7,s2,a2
    771e:	c60897e3          	bnez	a7,738c <__adddf3+0x2fa>
    7722:	4781                	li	a5,0
    7724:	4981                	li	s3,0
    7726:	b159                	j	73ac <__adddf3+0x31a>
    7728:	41ef8933          	sub	s2,t6,t5
    772c:	40e807b3          	sub	a5,a6,a4
    7730:	012fb633          	sltu	a2,t6,s2
    7734:	40c78633          	sub	a2,a5,a2
    7738:	89f6                	mv	s3,t4
    773a:	4485                	li	s1,1
    773c:	b411                	j	7140 <__adddf3+0xae>
    773e:	00361693          	slli	a3,a2,0x3
    7742:	01d81793          	slli	a5,a6,0x1d
    7746:	828d                	srli	a3,a3,0x3
    7748:	00d7e8b3          	or	a7,a5,a3
    774c:	00385793          	srli	a5,a6,0x3
    7750:	b9b1                	j	73ac <__adddf3+0x31a>
    7752:	00361693          	slli	a3,a2,0x3
    7756:	01d81793          	slli	a5,a6,0x1d
    775a:	828d                	srli	a3,a3,0x3
    775c:	00d7e8b3          	or	a7,a5,a3
    7760:	84aa                	mv	s1,a0
    7762:	00385793          	srli	a5,a6,0x3
    7766:	b93d                	j	73a4 <__adddf3+0x312>
    7768:	fe050793          	addi	a5,a0,-32
    776c:	02000693          	li	a3,32
    7770:	00f757b3          	srl	a5,a4,a5
    7774:	00d50a63          	beq	a0,a3,7788 <__adddf3+0x6f6>
    7778:	04000693          	li	a3,64
    777c:	40a68533          	sub	a0,a3,a0
    7780:	00a71733          	sll	a4,a4,a0
    7784:	00ef6f33          	or	t5,t5,a4
    7788:	01e03933          	snez	s2,t5
    778c:	00f96933          	or	s2,s2,a5
    7790:	bba9                	j	74ea <__adddf3+0x458>
    7792:	4581                	li	a1,0
    7794:	7ff00513          	li	a0,2047
    7798:	000807b7          	lui	a5,0x80
    779c:	bca9                	j	71f6 <__adddf3+0x164>
    779e:	01ff0933          	add	s2,t5,t6
    77a2:	010707b3          	add	a5,a4,a6
    77a6:	01f93633          	sltu	a2,s2,t6
    77aa:	963e                	add	a2,a2,a5
    77ac:	b375                	j	7558 <__adddf3+0x4c6>
    77ae:	00361693          	slli	a3,a2,0x3
    77b2:	01d81793          	slli	a5,a6,0x1d
    77b6:	828d                	srli	a3,a3,0x3
    77b8:	00d7e8b3          	or	a7,a5,a3
    77bc:	00385793          	srli	a5,a6,0x3
    77c0:	b189                	j	7402 <__adddf3+0x370>

000077c2 <__eqdf2>:
    77c2:	0145d713          	srli	a4,a1,0x14
    77c6:	001007b7          	lui	a5,0x100
    77ca:	17fd                	addi	a5,a5,-1
    77cc:	0146d813          	srli	a6,a3,0x14
    77d0:	7ff77713          	andi	a4,a4,2047
    77d4:	7ff00893          	li	a7,2047
    77d8:	00b7fe33          	and	t3,a5,a1
    77dc:	8eaa                	mv	t4,a0
    77de:	8ff5                	and	a5,a5,a3
    77e0:	81fd                	srli	a1,a1,0x1f
    77e2:	8f32                	mv	t5,a2
    77e4:	7ff87813          	andi	a6,a6,2047
    77e8:	82fd                	srli	a3,a3,0x1f
    77ea:	01170b63          	beq	a4,a7,7800 <__eqdf2+0x3e>
    77ee:	4305                	li	t1,1
    77f0:	01180663          	beq	a6,a7,77fc <__eqdf2+0x3a>
    77f4:	01071463          	bne	a4,a6,77fc <__eqdf2+0x3a>
    77f8:	00fe0d63          	beq	t3,a5,7812 <__eqdf2+0x50>
    77fc:	851a                	mv	a0,t1
    77fe:	8082                	ret
    7800:	00ae68b3          	or	a7,t3,a0
    7804:	4305                	li	t1,1
    7806:	fe089be3          	bnez	a7,77fc <__eqdf2+0x3a>
    780a:	fee819e3          	bne	a6,a4,77fc <__eqdf2+0x3a>
    780e:	8fd1                	or	a5,a5,a2
    7810:	f7f5                	bnez	a5,77fc <__eqdf2+0x3a>
    7812:	4305                	li	t1,1
    7814:	ffee94e3          	bne	t4,t5,77fc <__eqdf2+0x3a>
    7818:	4301                	li	t1,0
    781a:	fed581e3          	beq	a1,a3,77fc <__eqdf2+0x3a>
    781e:	4305                	li	t1,1
    7820:	ff71                	bnez	a4,77fc <__eqdf2+0x3a>
    7822:	00ae6533          	or	a0,t3,a0
    7826:	00a03333          	snez	t1,a0
    782a:	bfc9                	j	77fc <__eqdf2+0x3a>

0000782c <__gedf2>:
    782c:	0145d713          	srli	a4,a1,0x14
    7830:	001007b7          	lui	a5,0x100
    7834:	17fd                	addi	a5,a5,-1
    7836:	0146d813          	srli	a6,a3,0x14
    783a:	7ff77713          	andi	a4,a4,2047
    783e:	7ff00893          	li	a7,2047
    7842:	00b7f333          	and	t1,a5,a1
    7846:	8e2a                	mv	t3,a0
    7848:	8ff5                	and	a5,a5,a3
    784a:	81fd                	srli	a1,a1,0x1f
    784c:	8eb2                	mv	t4,a2
    784e:	7ff87813          	andi	a6,a6,2047
    7852:	82fd                	srli	a3,a3,0x1f
    7854:	03170863          	beq	a4,a7,7884 <__gedf2+0x58>
    7858:	03180063          	beq	a6,a7,7878 <__gedf2+0x4c>
    785c:	eb0d                	bnez	a4,788e <__gedf2+0x62>
    785e:	00a368b3          	or	a7,t1,a0
    7862:	00081463          	bnez	a6,786a <__gedf2+0x3e>
    7866:	8e5d                	or	a2,a2,a5
    7868:	ca29                	beqz	a2,78ba <__gedf2+0x8e>
    786a:	04088563          	beqz	a7,78b4 <__gedf2+0x88>
    786e:	02d58863          	beq	a1,a3,789e <__gedf2+0x72>
    7872:	4505                	li	a0,1
    7874:	ed95                	bnez	a1,78b0 <__gedf2+0x84>
    7876:	8082                	ret
    7878:	00c7e8b3          	or	a7,a5,a2
    787c:	fe0880e3          	beqz	a7,785c <__gedf2+0x30>
    7880:	5579                	li	a0,-2
    7882:	8082                	ret
    7884:	00a36533          	or	a0,t1,a0
    7888:	fd65                	bnez	a0,7880 <__gedf2+0x54>
    788a:	02e80c63          	beq	a6,a4,78c2 <__gedf2+0x96>
    788e:	00081463          	bnez	a6,7896 <__gedf2+0x6a>
    7892:	8e5d                	or	a2,a2,a5
    7894:	de79                	beqz	a2,7872 <__gedf2+0x46>
    7896:	fcd59ee3          	bne	a1,a3,7872 <__gedf2+0x46>
    789a:	fce84ce3          	blt	a6,a4,7872 <__gedf2+0x46>
    789e:	01074863          	blt	a4,a6,78ae <__gedf2+0x82>
    78a2:	fc67e8e3          	bltu	a5,t1,7872 <__gedf2+0x46>
    78a6:	02f30363          	beq	t1,a5,78cc <__gedf2+0xa0>
    78aa:	00f37f63          	bgeu	t1,a5,78c8 <__gedf2+0x9c>
    78ae:	e581                	bnez	a1,78b6 <__gedf2+0x8a>
    78b0:	557d                	li	a0,-1
    78b2:	8082                	ret
    78b4:	def5                	beqz	a3,78b0 <__gedf2+0x84>
    78b6:	4505                	li	a0,1
    78b8:	8082                	ret
    78ba:	4501                	li	a0,0
    78bc:	fa089be3          	bnez	a7,7872 <__gedf2+0x46>
    78c0:	8082                	ret
    78c2:	8e5d                	or	a2,a2,a5
    78c4:	da69                	beqz	a2,7896 <__gedf2+0x6a>
    78c6:	bf6d                	j	7880 <__gedf2+0x54>
    78c8:	4501                	li	a0,0
    78ca:	8082                	ret
    78cc:	fbcee3e3          	bltu	t4,t3,7872 <__gedf2+0x46>
    78d0:	4501                	li	a0,0
    78d2:	fbde72e3          	bgeu	t3,t4,7876 <__gedf2+0x4a>
    78d6:	f1e5                	bnez	a1,78b6 <__gedf2+0x8a>
    78d8:	bfe1                	j	78b0 <__gedf2+0x84>

000078da <__ledf2>:
    78da:	0145d713          	srli	a4,a1,0x14
    78de:	001007b7          	lui	a5,0x100
    78e2:	17fd                	addi	a5,a5,-1
    78e4:	0146d813          	srli	a6,a3,0x14
    78e8:	7ff77713          	andi	a4,a4,2047
    78ec:	7ff00893          	li	a7,2047
    78f0:	00b7fe33          	and	t3,a5,a1
    78f4:	8eaa                	mv	t4,a0
    78f6:	8ff5                	and	a5,a5,a3
    78f8:	81fd                	srli	a1,a1,0x1f
    78fa:	8f32                	mv	t5,a2
    78fc:	7ff87813          	andi	a6,a6,2047
    7900:	82fd                	srli	a3,a3,0x1f
    7902:	03170e63          	beq	a4,a7,793e <__ledf2+0x64>
    7906:	01180d63          	beq	a6,a7,7920 <__ledf2+0x46>
    790a:	e329                	bnez	a4,794c <__ledf2+0x72>
    790c:	00ae68b3          	or	a7,t3,a0
    7910:	00081f63          	bnez	a6,792e <__ledf2+0x54>
    7914:	8e5d                	or	a2,a2,a5
    7916:	ee01                	bnez	a2,792e <__ledf2+0x54>
    7918:	4301                	li	t1,0
    791a:	04088c63          	beqz	a7,7972 <__ledf2+0x98>
    791e:	a821                	j	7936 <__ledf2+0x5c>
    7920:	00c7e8b3          	or	a7,a5,a2
    7924:	4309                	li	t1,2
    7926:	04089663          	bnez	a7,7972 <__ledf2+0x98>
    792a:	d36d                	beqz	a4,790c <__ledf2+0x32>
    792c:	a005                	j	794c <__ledf2+0x72>
    792e:	04088463          	beqz	a7,7976 <__ledf2+0x9c>
    7932:	02d58563          	beq	a1,a3,795c <__ledf2+0x82>
    7936:	4305                	li	t1,1
    7938:	cd8d                	beqz	a1,7972 <__ledf2+0x98>
    793a:	537d                	li	t1,-1
    793c:	a81d                	j	7972 <__ledf2+0x98>
    793e:	00ae68b3          	or	a7,t3,a0
    7942:	4309                	li	t1,2
    7944:	02089763          	bnez	a7,7972 <__ledf2+0x98>
    7948:	02e80a63          	beq	a6,a4,797c <__ledf2+0xa2>
    794c:	00081463          	bnez	a6,7954 <__ledf2+0x7a>
    7950:	8e5d                	or	a2,a2,a5
    7952:	d275                	beqz	a2,7936 <__ledf2+0x5c>
    7954:	fed591e3          	bne	a1,a3,7936 <__ledf2+0x5c>
    7958:	fce84fe3          	blt	a6,a4,7936 <__ledf2+0x5c>
    795c:	01074963          	blt	a4,a6,796e <__ledf2+0x94>
    7960:	fdc7ebe3          	bltu	a5,t3,7936 <__ledf2+0x5c>
    7964:	00fe0f63          	beq	t3,a5,7982 <__ledf2+0xa8>
    7968:	4301                	li	t1,0
    796a:	00fe7463          	bgeu	t3,a5,7972 <__ledf2+0x98>
    796e:	d5f1                	beqz	a1,793a <__ledf2+0x60>
    7970:	4305                	li	t1,1
    7972:	851a                	mv	a0,t1
    7974:	8082                	ret
    7976:	feed                	bnez	a3,7970 <__ledf2+0x96>
    7978:	537d                	li	t1,-1
    797a:	bfe5                	j	7972 <__ledf2+0x98>
    797c:	8e5d                	or	a2,a2,a5
    797e:	da79                	beqz	a2,7954 <__ledf2+0x7a>
    7980:	bfcd                	j	7972 <__ledf2+0x98>
    7982:	fbdf6ae3          	bltu	t5,t4,7936 <__ledf2+0x5c>
    7986:	4301                	li	t1,0
    7988:	ffeef5e3          	bgeu	t4,t5,7972 <__ledf2+0x98>
    798c:	f1f5                	bnez	a1,7970 <__ledf2+0x96>
    798e:	b775                	j	793a <__ledf2+0x60>

00007990 <__subdf3>:
    7990:	00100737          	lui	a4,0x100
    7994:	177d                	addi	a4,a4,-1
    7996:	1101                	addi	sp,sp,-32
    7998:	00b77333          	and	t1,a4,a1
    799c:	0146d893          	srli	a7,a3,0x14
    79a0:	8f75                	and	a4,a4,a3
    79a2:	01d65e93          	srli	t4,a2,0x1d
    79a6:	cc22                	sw	s0,24(sp)
    79a8:	ca26                	sw	s1,20(sp)
    79aa:	030e                	slli	t1,t1,0x3
    79ac:	0145d493          	srli	s1,a1,0x14
    79b0:	01d55793          	srli	a5,a0,0x1d
    79b4:	070e                	slli	a4,a4,0x3
    79b6:	ce06                	sw	ra,28(sp)
    79b8:	c84a                	sw	s2,16(sp)
    79ba:	c64e                	sw	s3,12(sp)
    79bc:	7ff8f893          	andi	a7,a7,2047
    79c0:	7ff00e13          	li	t3,2047
    79c4:	00eee733          	or	a4,t4,a4
    79c8:	7ff4f493          	andi	s1,s1,2047
    79cc:	01f5d413          	srli	s0,a1,0x1f
    79d0:	0067e333          	or	t1,a5,t1
    79d4:	00351f13          	slli	t5,a0,0x3
    79d8:	82fd                	srli	a3,a3,0x1f
    79da:	00361e93          	slli	t4,a2,0x3
    79de:	19c88063          	beq	a7,t3,7b5e <__subdf3+0x1ce>
    79e2:	0016c693          	xori	a3,a3,1
    79e6:	411485b3          	sub	a1,s1,a7
    79ea:	12d40563          	beq	s0,a3,7b14 <__subdf3+0x184>
    79ee:	18b05163          	blez	a1,7b70 <__subdf3+0x1e0>
    79f2:	1a088b63          	beqz	a7,7ba8 <__subdf3+0x218>
    79f6:	008007b7          	lui	a5,0x800
    79fa:	8f5d                	or	a4,a4,a5
    79fc:	59c48163          	beq	s1,t3,7f7e <__subdf3+0x5ee>
    7a00:	03800793          	li	a5,56
    7a04:	34b7c463          	blt	a5,a1,7d4c <__subdf3+0x3bc>
    7a08:	47fd                	li	a5,31
    7a0a:	48b7c563          	blt	a5,a1,7e94 <__subdf3+0x504>
    7a0e:	02000793          	li	a5,32
    7a12:	8f8d                	sub	a5,a5,a1
    7a14:	00bed9b3          	srl	s3,t4,a1
    7a18:	00f71833          	sll	a6,a4,a5
    7a1c:	00fe9eb3          	sll	t4,t4,a5
    7a20:	01386833          	or	a6,a6,s3
    7a24:	00b75733          	srl	a4,a4,a1
    7a28:	01d039b3          	snez	s3,t4
    7a2c:	01386833          	or	a6,a6,s3
    7a30:	40e30333          	sub	t1,t1,a4
    7a34:	410f09b3          	sub	s3,t5,a6
    7a38:	013f37b3          	sltu	a5,t5,s3
    7a3c:	40f30633          	sub	a2,t1,a5
    7a40:	00861793          	slli	a5,a2,0x8
    7a44:	2407d363          	bgez	a5,7c8a <__subdf3+0x2fa>
    7a48:	00800937          	lui	s2,0x800
    7a4c:	197d                	addi	s2,s2,-1
    7a4e:	01267933          	and	s2,a2,s2
    7a52:	2c090f63          	beqz	s2,7d30 <__subdf3+0x3a0>
    7a56:	854a                	mv	a0,s2
    7a58:	bc3fc0ef          	jal	ra,461a <__clzsi2>
    7a5c:	ff850713          	addi	a4,a0,-8
    7a60:	02000793          	li	a5,32
    7a64:	8f99                	sub	a5,a5,a4
    7a66:	00f9d7b3          	srl	a5,s3,a5
    7a6a:	00e91633          	sll	a2,s2,a4
    7a6e:	8fd1                	or	a5,a5,a2
    7a70:	00e999b3          	sll	s3,s3,a4
    7a74:	2a974463          	blt	a4,s1,7d1c <__subdf3+0x38c>
    7a78:	8f05                	sub	a4,a4,s1
    7a7a:	00170613          	addi	a2,a4,1 # 100001 <_data_lma+0xf6bfd>
    7a7e:	46fd                	li	a3,31
    7a80:	3ac6c563          	blt	a3,a2,7e2a <__subdf3+0x49a>
    7a84:	02000713          	li	a4,32
    7a88:	8f11                	sub	a4,a4,a2
    7a8a:	00c9d6b3          	srl	a3,s3,a2
    7a8e:	00e99833          	sll	a6,s3,a4
    7a92:	00e79733          	sll	a4,a5,a4
    7a96:	8f55                	or	a4,a4,a3
    7a98:	01003833          	snez	a6,a6
    7a9c:	010769b3          	or	s3,a4,a6
    7aa0:	00c7d633          	srl	a2,a5,a2
    7aa4:	4481                	li	s1,0
    7aa6:	0079f793          	andi	a5,s3,7
    7aaa:	cf81                	beqz	a5,7ac2 <__subdf3+0x132>
    7aac:	00f9f693          	andi	a3,s3,15
    7ab0:	4791                	li	a5,4
    7ab2:	00f68863          	beq	a3,a5,7ac2 <__subdf3+0x132>
    7ab6:	00498693          	addi	a3,s3,4
    7aba:	0136b833          	sltu	a6,a3,s3
    7abe:	9642                	add	a2,a2,a6
    7ac0:	89b6                	mv	s3,a3
    7ac2:	00861793          	slli	a5,a2,0x8
    7ac6:	1c07d663          	bgez	a5,7c92 <__subdf3+0x302>
    7aca:	00148713          	addi	a4,s1,1
    7ace:	7ff00793          	li	a5,2047
    7ad2:	8805                	andi	s0,s0,1
    7ad4:	20f70663          	beq	a4,a5,7ce0 <__subdf3+0x350>
    7ad8:	ff8007b7          	lui	a5,0xff800
    7adc:	17fd                	addi	a5,a5,-1
    7ade:	8ff1                	and	a5,a5,a2
    7ae0:	01d79813          	slli	a6,a5,0x1d
    7ae4:	0039d993          	srli	s3,s3,0x3
    7ae8:	07a6                	slli	a5,a5,0x9
    7aea:	01386833          	or	a6,a6,s3
    7aee:	83b1                	srli	a5,a5,0xc
    7af0:	7ff77713          	andi	a4,a4,2047
    7af4:	00c79693          	slli	a3,a5,0xc
    7af8:	0752                	slli	a4,a4,0x14
    7afa:	82b1                	srli	a3,a3,0xc
    7afc:	047e                	slli	s0,s0,0x1f
    7afe:	8ed9                	or	a3,a3,a4
    7b00:	8ec1                	or	a3,a3,s0
    7b02:	40f2                	lw	ra,28(sp)
    7b04:	4462                	lw	s0,24(sp)
    7b06:	44d2                	lw	s1,20(sp)
    7b08:	4942                	lw	s2,16(sp)
    7b0a:	49b2                	lw	s3,12(sp)
    7b0c:	8542                	mv	a0,a6
    7b0e:	85b6                	mv	a1,a3
    7b10:	6105                	addi	sp,sp,32
    7b12:	8082                	ret
    7b14:	0ab05663          	blez	a1,7bc0 <__subdf3+0x230>
    7b18:	12088a63          	beqz	a7,7c4c <__subdf3+0x2bc>
    7b1c:	008007b7          	lui	a5,0x800
    7b20:	8f5d                	or	a4,a4,a5
    7b22:	2dc48763          	beq	s1,t3,7df0 <__subdf3+0x460>
    7b26:	03800793          	li	a5,56
    7b2a:	18b7c763          	blt	a5,a1,7cb8 <__subdf3+0x328>
    7b2e:	47fd                	li	a5,31
    7b30:	3cb7d263          	bge	a5,a1,7ef4 <__subdf3+0x564>
    7b34:	fe058813          	addi	a6,a1,-32
    7b38:	02000793          	li	a5,32
    7b3c:	010759b3          	srl	s3,a4,a6
    7b40:	00f58a63          	beq	a1,a5,7b54 <__subdf3+0x1c4>
    7b44:	04000793          	li	a5,64
    7b48:	40b785b3          	sub	a1,a5,a1
    7b4c:	00b71733          	sll	a4,a4,a1
    7b50:	00eeeeb3          	or	t4,t4,a4
    7b54:	01d03833          	snez	a6,t4
    7b58:	01386833          	or	a6,a6,s3
    7b5c:	a295                	j	7cc0 <__subdf3+0x330>
    7b5e:	01d767b3          	or	a5,a4,t4
    7b62:	80148593          	addi	a1,s1,-2047
    7b66:	e399                	bnez	a5,7b6c <__subdf3+0x1dc>
    7b68:	0016c693          	xori	a3,a3,1
    7b6c:	04d40a63          	beq	s0,a3,7bc0 <__subdf3+0x230>
    7b70:	e1d1                	bnez	a1,7bf4 <__subdf3+0x264>
    7b72:	00148793          	addi	a5,s1,1
    7b76:	7fe7f793          	andi	a5,a5,2046
    7b7a:	1e079963          	bnez	a5,7d6c <__subdf3+0x3dc>
    7b7e:	01e367b3          	or	a5,t1,t5
    7b82:	01d76833          	or	a6,a4,t4
    7b86:	16049263          	bnez	s1,7cea <__subdf3+0x35a>
    7b8a:	3c078263          	beqz	a5,7f4e <__subdf3+0x5be>
    7b8e:	42081663          	bnez	a6,7fba <__subdf3+0x62a>
    7b92:	00351813          	slli	a6,a0,0x3
    7b96:	01d31693          	slli	a3,t1,0x1d
    7b9a:	00385813          	srli	a6,a6,0x3
    7b9e:	0106e833          	or	a6,a3,a6
    7ba2:	00335793          	srli	a5,t1,0x3
    7ba6:	a219                	j	7cac <__subdf3+0x31c>
    7ba8:	01d767b3          	or	a5,a4,t4
    7bac:	1a078563          	beqz	a5,7d56 <__subdf3+0x3c6>
    7bb0:	fff58793          	addi	a5,a1,-1
    7bb4:	3a078b63          	beqz	a5,7f6a <__subdf3+0x5da>
    7bb8:	23c58c63          	beq	a1,t3,7df0 <__subdf3+0x460>
    7bbc:	85be                	mv	a1,a5
    7bbe:	b589                	j	7a00 <__subdf3+0x70>
    7bc0:	1c059963          	bnez	a1,7d92 <__subdf3+0x402>
    7bc4:	00148693          	addi	a3,s1,1
    7bc8:	7fe6f793          	andi	a5,a3,2046
    7bcc:	efc1                	bnez	a5,7c64 <__subdf3+0x2d4>
    7bce:	01e367b3          	or	a5,t1,t5
    7bd2:	36049063          	bnez	s1,7f32 <__subdf3+0x5a2>
    7bd6:	44078d63          	beqz	a5,8030 <__subdf3+0x6a0>
    7bda:	01d767b3          	or	a5,a4,t4
    7bde:	46079463          	bnez	a5,8046 <__subdf3+0x6b6>
    7be2:	050e                	slli	a0,a0,0x3
    7be4:	01d31813          	slli	a6,t1,0x1d
    7be8:	810d                	srli	a0,a0,0x3
    7bea:	00a86833          	or	a6,a6,a0
    7bee:	00335793          	srli	a5,t1,0x3
    7bf2:	a86d                	j	7cac <__subdf3+0x31c>
    7bf4:	409885b3          	sub	a1,a7,s1
    7bf8:	20049763          	bnez	s1,7e06 <__subdf3+0x476>
    7bfc:	01e367b3          	or	a5,t1,t5
    7c00:	30078d63          	beqz	a5,7f1a <__subdf3+0x58a>
    7c04:	fff58793          	addi	a5,a1,-1
    7c08:	40078963          	beqz	a5,801a <__subdf3+0x68a>
    7c0c:	7ff00513          	li	a0,2047
    7c10:	20a58363          	beq	a1,a0,7e16 <__subdf3+0x486>
    7c14:	85be                	mv	a1,a5
    7c16:	03800793          	li	a5,56
    7c1a:	2ab7c263          	blt	a5,a1,7ebe <__subdf3+0x52e>
    7c1e:	47fd                	li	a5,31
    7c20:	3cb7c863          	blt	a5,a1,7ff0 <__subdf3+0x660>
    7c24:	02000793          	li	a5,32
    7c28:	8f8d                	sub	a5,a5,a1
    7c2a:	00f31833          	sll	a6,t1,a5
    7c2e:	00bf5633          	srl	a2,t5,a1
    7c32:	00ff17b3          	sll	a5,t5,a5
    7c36:	00c86833          	or	a6,a6,a2
    7c3a:	00f039b3          	snez	s3,a5
    7c3e:	00b35333          	srl	t1,t1,a1
    7c42:	01386833          	or	a6,a6,s3
    7c46:	40670733          	sub	a4,a4,t1
    7c4a:	acb5                	j	7ec6 <__subdf3+0x536>
    7c4c:	01d767b3          	or	a5,a4,t4
    7c50:	10078363          	beqz	a5,7d56 <__subdf3+0x3c6>
    7c54:	fff58793          	addi	a5,a1,-1
    7c58:	1e078f63          	beqz	a5,7e56 <__subdf3+0x4c6>
    7c5c:	2fc58063          	beq	a1,t3,7f3c <__subdf3+0x5ac>
    7c60:	85be                	mv	a1,a5
    7c62:	b5d1                	j	7b26 <__subdf3+0x196>
    7c64:	7ff00793          	li	a5,2047
    7c68:	06f68b63          	beq	a3,a5,7cde <__subdf3+0x34e>
    7c6c:	9efa                	add	t4,t4,t5
    7c6e:	01eeb633          	sltu	a2,t4,t5
    7c72:	00e307b3          	add	a5,t1,a4
    7c76:	97b2                	add	a5,a5,a2
    7c78:	01f79813          	slli	a6,a5,0x1f
    7c7c:	001ede93          	srli	t4,t4,0x1
    7c80:	01d869b3          	or	s3,a6,t4
    7c84:	0017d613          	srli	a2,a5,0x1
    7c88:	84b6                	mv	s1,a3
    7c8a:	0079f793          	andi	a5,s3,7
    7c8e:	e0079fe3          	bnez	a5,7aac <__subdf3+0x11c>
    7c92:	01d61793          	slli	a5,a2,0x1d
    7c96:	0039d813          	srli	a6,s3,0x3
    7c9a:	00f86833          	or	a6,a6,a5
    7c9e:	85a6                	mv	a1,s1
    7ca0:	00365793          	srli	a5,a2,0x3
    7ca4:	7ff00713          	li	a4,2047
    7ca8:	06e58063          	beq	a1,a4,7d08 <__subdf3+0x378>
    7cac:	07b2                	slli	a5,a5,0xc
    7cae:	83b1                	srli	a5,a5,0xc
    7cb0:	7ff5f713          	andi	a4,a1,2047
    7cb4:	8805                	andi	s0,s0,1
    7cb6:	bd3d                	j	7af4 <__subdf3+0x164>
    7cb8:	01d76733          	or	a4,a4,t4
    7cbc:	00e03833          	snez	a6,a4
    7cc0:	01e809b3          	add	s3,a6,t5
    7cc4:	01e9b7b3          	sltu	a5,s3,t5
    7cc8:	00678633          	add	a2,a5,t1
    7ccc:	00861793          	slli	a5,a2,0x8
    7cd0:	fa07dde3          	bgez	a5,7c8a <__subdf3+0x2fa>
    7cd4:	0485                	addi	s1,s1,1
    7cd6:	7ff00793          	li	a5,2047
    7cda:	18f49c63          	bne	s1,a5,7e72 <__subdf3+0x4e2>
    7cde:	8805                	andi	s0,s0,1
    7ce0:	7ff00713          	li	a4,2047
    7ce4:	4781                	li	a5,0
    7ce6:	4801                	li	a6,0
    7ce8:	b531                	j	7af4 <__subdf3+0x164>
    7cea:	10079163          	bnez	a5,7dec <__subdf3+0x45c>
    7cee:	3c080163          	beqz	a6,80b0 <__subdf3+0x720>
    7cf2:	00361813          	slli	a6,a2,0x3
    7cf6:	01d71793          	slli	a5,a4,0x1d
    7cfa:	00385813          	srli	a6,a6,0x3
    7cfe:	00f86833          	or	a6,a6,a5
    7d02:	8436                	mv	s0,a3
    7d04:	00375793          	srli	a5,a4,0x3
    7d08:	00f867b3          	or	a5,a6,a5
    7d0c:	dbe9                	beqz	a5,7cde <__subdf3+0x34e>
    7d0e:	4401                	li	s0,0
    7d10:	7ff00713          	li	a4,2047
    7d14:	000807b7          	lui	a5,0x80
    7d18:	4801                	li	a6,0
    7d1a:	bbe9                	j	7af4 <__subdf3+0x164>
    7d1c:	ff800637          	lui	a2,0xff800
    7d20:	167d                	addi	a2,a2,-1
    7d22:	8e7d                	and	a2,a2,a5
    7d24:	0079f793          	andi	a5,s3,7
    7d28:	8c99                	sub	s1,s1,a4
    7d2a:	d80791e3          	bnez	a5,7aac <__subdf3+0x11c>
    7d2e:	b795                	j	7c92 <__subdf3+0x302>
    7d30:	854e                	mv	a0,s3
    7d32:	8e9fc0ef          	jal	ra,461a <__clzsi2>
    7d36:	01850713          	addi	a4,a0,24
    7d3a:	47fd                	li	a5,31
    7d3c:	d2e7d2e3          	bge	a5,a4,7a60 <__subdf3+0xd0>
    7d40:	ff850613          	addi	a2,a0,-8
    7d44:	00c997b3          	sll	a5,s3,a2
    7d48:	4981                	li	s3,0
    7d4a:	b32d                	j	7a74 <__subdf3+0xe4>
    7d4c:	01d76833          	or	a6,a4,t4
    7d50:	01003833          	snez	a6,a6
    7d54:	b1c5                	j	7a34 <__subdf3+0xa4>
    7d56:	00351813          	slli	a6,a0,0x3
    7d5a:	01d31793          	slli	a5,t1,0x1d
    7d5e:	00385813          	srli	a6,a6,0x3
    7d62:	00f86833          	or	a6,a6,a5
    7d66:	00335793          	srli	a5,t1,0x3
    7d6a:	bf2d                	j	7ca4 <__subdf3+0x314>
    7d6c:	41df09b3          	sub	s3,t5,t4
    7d70:	40e30933          	sub	s2,t1,a4
    7d74:	013f3633          	sltu	a2,t5,s3
    7d78:	40c90933          	sub	s2,s2,a2
    7d7c:	00891793          	slli	a5,s2,0x8
    7d80:	2007ca63          	bltz	a5,7f94 <__subdf3+0x604>
    7d84:	0129e833          	or	a6,s3,s2
    7d88:	cc0815e3          	bnez	a6,7a52 <__subdf3+0xc2>
    7d8c:	4781                	li	a5,0
    7d8e:	4401                	li	s0,0
    7d90:	bf31                	j	7cac <__subdf3+0x31c>
    7d92:	409885b3          	sub	a1,a7,s1
    7d96:	14048163          	beqz	s1,7ed8 <__subdf3+0x548>
    7d9a:	008006b7          	lui	a3,0x800
    7d9e:	7ff00793          	li	a5,2047
    7da2:	00d36333          	or	t1,t1,a3
    7da6:	20f88163          	beq	a7,a5,7fa8 <__subdf3+0x618>
    7daa:	03800793          	li	a5,56
    7dae:	22b7cc63          	blt	a5,a1,7fe6 <__subdf3+0x656>
    7db2:	47fd                	li	a5,31
    7db4:	2cb7c963          	blt	a5,a1,8086 <__subdf3+0x6f6>
    7db8:	02000793          	li	a5,32
    7dbc:	8f8d                	sub	a5,a5,a1
    7dbe:	00f31833          	sll	a6,t1,a5
    7dc2:	00bf56b3          	srl	a3,t5,a1
    7dc6:	00ff17b3          	sll	a5,t5,a5
    7dca:	00d86833          	or	a6,a6,a3
    7dce:	00f039b3          	snez	s3,a5
    7dd2:	00b35333          	srl	t1,t1,a1
    7dd6:	01386833          	or	a6,a6,s3
    7dda:	971a                	add	a4,a4,t1
    7ddc:	01d809b3          	add	s3,a6,t4
    7de0:	01d9b7b3          	sltu	a5,s3,t4
    7de4:	00e78633          	add	a2,a5,a4
    7de8:	84c6                	mv	s1,a7
    7dea:	b5cd                	j	7ccc <__subdf3+0x33c>
    7dec:	f20811e3          	bnez	a6,7d0e <__subdf3+0x37e>
    7df0:	00351813          	slli	a6,a0,0x3
    7df4:	01d31793          	slli	a5,t1,0x1d
    7df8:	00385813          	srli	a6,a6,0x3
    7dfc:	00f86833          	or	a6,a6,a5
    7e00:	00335793          	srli	a5,t1,0x3
    7e04:	b711                	j	7d08 <__subdf3+0x378>
    7e06:	00800537          	lui	a0,0x800
    7e0a:	7ff00793          	li	a5,2047
    7e0e:	00a36333          	or	t1,t1,a0
    7e12:	e0f892e3          	bne	a7,a5,7c16 <__subdf3+0x286>
    7e16:	060e                	slli	a2,a2,0x3
    7e18:	01d71813          	slli	a6,a4,0x1d
    7e1c:	820d                	srli	a2,a2,0x3
    7e1e:	00c86833          	or	a6,a6,a2
    7e22:	00375793          	srli	a5,a4,0x3
    7e26:	8436                	mv	s0,a3
    7e28:	b5c5                	j	7d08 <__subdf3+0x378>
    7e2a:	1705                	addi	a4,a4,-31
    7e2c:	02000693          	li	a3,32
    7e30:	00e7d733          	srl	a4,a5,a4
    7e34:	00d60a63          	beq	a2,a3,7e48 <__subdf3+0x4b8>
    7e38:	04000693          	li	a3,64
    7e3c:	40c68633          	sub	a2,a3,a2
    7e40:	00c79633          	sll	a2,a5,a2
    7e44:	00c9e9b3          	or	s3,s3,a2
    7e48:	01303833          	snez	a6,s3
    7e4c:	00e869b3          	or	s3,a6,a4
    7e50:	4601                	li	a2,0
    7e52:	4481                	li	s1,0
    7e54:	bd1d                	j	7c8a <__subdf3+0x2fa>
    7e56:	01df09b3          	add	s3,t5,t4
    7e5a:	00e307b3          	add	a5,t1,a4
    7e5e:	01e9bf33          	sltu	t5,s3,t5
    7e62:	01e78633          	add	a2,a5,t5
    7e66:	00861793          	slli	a5,a2,0x8
    7e6a:	4485                	li	s1,1
    7e6c:	e007dfe3          	bgez	a5,7c8a <__subdf3+0x2fa>
    7e70:	4489                	li	s1,2
    7e72:	ff8007b7          	lui	a5,0xff800
    7e76:	17fd                	addi	a5,a5,-1
    7e78:	8ff1                	and	a5,a5,a2
    7e7a:	0019d713          	srli	a4,s3,0x1
    7e7e:	0019f813          	andi	a6,s3,1
    7e82:	01076833          	or	a6,a4,a6
    7e86:	01f79993          	slli	s3,a5,0x1f
    7e8a:	0109e9b3          	or	s3,s3,a6
    7e8e:	0017d613          	srli	a2,a5,0x1
    7e92:	b911                	j	7aa6 <__subdf3+0x116>
    7e94:	fe058813          	addi	a6,a1,-32
    7e98:	02000793          	li	a5,32
    7e9c:	010759b3          	srl	s3,a4,a6
    7ea0:	00f58a63          	beq	a1,a5,7eb4 <__subdf3+0x524>
    7ea4:	04000793          	li	a5,64
    7ea8:	40b785b3          	sub	a1,a5,a1
    7eac:	00b71733          	sll	a4,a4,a1
    7eb0:	00eeeeb3          	or	t4,t4,a4
    7eb4:	01d03833          	snez	a6,t4
    7eb8:	01386833          	or	a6,a6,s3
    7ebc:	bea5                	j	7a34 <__subdf3+0xa4>
    7ebe:	01e36333          	or	t1,t1,t5
    7ec2:	00603833          	snez	a6,t1
    7ec6:	410e89b3          	sub	s3,t4,a6
    7eca:	013eb7b3          	sltu	a5,t4,s3
    7ece:	40f70633          	sub	a2,a4,a5
    7ed2:	84c6                	mv	s1,a7
    7ed4:	8436                	mv	s0,a3
    7ed6:	b6ad                	j	7a40 <__subdf3+0xb0>
    7ed8:	01e367b3          	or	a5,t1,t5
    7edc:	18078763          	beqz	a5,806a <__subdf3+0x6da>
    7ee0:	fff58793          	addi	a5,a1,-1
    7ee4:	1c078c63          	beqz	a5,80bc <__subdf3+0x72c>
    7ee8:	7ff00693          	li	a3,2047
    7eec:	0ad58e63          	beq	a1,a3,7fa8 <__subdf3+0x618>
    7ef0:	85be                	mv	a1,a5
    7ef2:	bd65                	j	7daa <__subdf3+0x41a>
    7ef4:	02000793          	li	a5,32
    7ef8:	8f8d                	sub	a5,a5,a1
    7efa:	00bed9b3          	srl	s3,t4,a1
    7efe:	00f71833          	sll	a6,a4,a5
    7f02:	00fe9eb3          	sll	t4,t4,a5
    7f06:	01386833          	or	a6,a6,s3
    7f0a:	00b75733          	srl	a4,a4,a1
    7f0e:	01d039b3          	snez	s3,t4
    7f12:	01386833          	or	a6,a6,s3
    7f16:	933a                	add	t1,t1,a4
    7f18:	b365                	j	7cc0 <__subdf3+0x330>
    7f1a:	00361813          	slli	a6,a2,0x3
    7f1e:	01d71793          	slli	a5,a4,0x1d
    7f22:	00385813          	srli	a6,a6,0x3
    7f26:	0107e833          	or	a6,a5,a6
    7f2a:	8436                	mv	s0,a3
    7f2c:	00375793          	srli	a5,a4,0x3
    7f30:	bb95                	j	7ca4 <__subdf3+0x314>
    7f32:	cbbd                	beqz	a5,7fa8 <__subdf3+0x618>
    7f34:	01d76733          	or	a4,a4,t4
    7f38:	dc071be3          	bnez	a4,7d0e <__subdf3+0x37e>
    7f3c:	050e                	slli	a0,a0,0x3
    7f3e:	01d31813          	slli	a6,t1,0x1d
    7f42:	810d                	srli	a0,a0,0x3
    7f44:	00a86833          	or	a6,a6,a0
    7f48:	00335793          	srli	a5,t1,0x3
    7f4c:	bb75                	j	7d08 <__subdf3+0x378>
    7f4e:	e2080fe3          	beqz	a6,7d8c <__subdf3+0x3fc>
    7f52:	00361813          	slli	a6,a2,0x3
    7f56:	01d71793          	slli	a5,a4,0x1d
    7f5a:	00385813          	srli	a6,a6,0x3
    7f5e:	00f86833          	or	a6,a6,a5
    7f62:	8436                	mv	s0,a3
    7f64:	00375793          	srli	a5,a4,0x3
    7f68:	b391                	j	7cac <__subdf3+0x31c>
    7f6a:	41df09b3          	sub	s3,t5,t4
    7f6e:	40e307b3          	sub	a5,t1,a4
    7f72:	013f3f33          	sltu	t5,t5,s3
    7f76:	41e78633          	sub	a2,a5,t5
    7f7a:	4485                	li	s1,1
    7f7c:	b4d1                	j	7a40 <__subdf3+0xb0>
    7f7e:	00351813          	slli	a6,a0,0x3
    7f82:	01d31693          	slli	a3,t1,0x1d
    7f86:	00385813          	srli	a6,a6,0x3
    7f8a:	0106e833          	or	a6,a3,a6
    7f8e:	00335793          	srli	a5,t1,0x3
    7f92:	bb9d                	j	7d08 <__subdf3+0x378>
    7f94:	41ee89b3          	sub	s3,t4,t5
    7f98:	40670633          	sub	a2,a4,t1
    7f9c:	013eb933          	sltu	s2,t4,s3
    7fa0:	41260933          	sub	s2,a2,s2
    7fa4:	8436                	mv	s0,a3
    7fa6:	b475                	j	7a52 <__subdf3+0xc2>
    7fa8:	060e                	slli	a2,a2,0x3
    7faa:	01d71813          	slli	a6,a4,0x1d
    7fae:	820d                	srli	a2,a2,0x3
    7fb0:	00c86833          	or	a6,a6,a2
    7fb4:	00375793          	srli	a5,a4,0x3
    7fb8:	bb81                	j	7d08 <__subdf3+0x378>
    7fba:	41df09b3          	sub	s3,t5,t4
    7fbe:	40e307b3          	sub	a5,t1,a4
    7fc2:	013f3633          	sltu	a2,t5,s3
    7fc6:	40c78633          	sub	a2,a5,a2
    7fca:	00861793          	slli	a5,a2,0x8
    7fce:	0a07d763          	bgez	a5,807c <__subdf3+0x6ec>
    7fd2:	41ee89b3          	sub	s3,t4,t5
    7fd6:	406707b3          	sub	a5,a4,t1
    7fda:	013ebeb3          	sltu	t4,t4,s3
    7fde:	41d78633          	sub	a2,a5,t4
    7fe2:	8436                	mv	s0,a3
    7fe4:	b4c9                	j	7aa6 <__subdf3+0x116>
    7fe6:	01e36333          	or	t1,t1,t5
    7fea:	00603833          	snez	a6,t1
    7fee:	b3fd                	j	7ddc <__subdf3+0x44c>
    7ff0:	fe058813          	addi	a6,a1,-32
    7ff4:	02000793          	li	a5,32
    7ff8:	010359b3          	srl	s3,t1,a6
    7ffc:	00f58a63          	beq	a1,a5,8010 <__subdf3+0x680>
    8000:	04000793          	li	a5,64
    8004:	40b785b3          	sub	a1,a5,a1
    8008:	00b31333          	sll	t1,t1,a1
    800c:	006f6f33          	or	t5,t5,t1
    8010:	01e03833          	snez	a6,t5
    8014:	01386833          	or	a6,a6,s3
    8018:	b57d                	j	7ec6 <__subdf3+0x536>
    801a:	41ee89b3          	sub	s3,t4,t5
    801e:	406707b3          	sub	a5,a4,t1
    8022:	013ebeb3          	sltu	t4,t4,s3
    8026:	41d78633          	sub	a2,a5,t4
    802a:	8436                	mv	s0,a3
    802c:	4485                	li	s1,1
    802e:	bc09                	j	7a40 <__subdf3+0xb0>
    8030:	00361813          	slli	a6,a2,0x3
    8034:	01d71793          	slli	a5,a4,0x1d
    8038:	00385813          	srli	a6,a6,0x3
    803c:	00f86833          	or	a6,a6,a5
    8040:	00375793          	srli	a5,a4,0x3
    8044:	b1a5                	j	7cac <__subdf3+0x31c>
    8046:	01df09b3          	add	s3,t5,t4
    804a:	00e307b3          	add	a5,t1,a4
    804e:	01e9bf33          	sltu	t5,s3,t5
    8052:	01e78633          	add	a2,a5,t5
    8056:	00861793          	slli	a5,a2,0x8
    805a:	c207d8e3          	bgez	a5,7c8a <__subdf3+0x2fa>
    805e:	ff8007b7          	lui	a5,0xff800
    8062:	17fd                	addi	a5,a5,-1
    8064:	8e7d                	and	a2,a2,a5
    8066:	4485                	li	s1,1
    8068:	b10d                	j	7c8a <__subdf3+0x2fa>
    806a:	060e                	slli	a2,a2,0x3
    806c:	01d71813          	slli	a6,a4,0x1d
    8070:	820d                	srli	a2,a2,0x3
    8072:	00c86833          	or	a6,a6,a2
    8076:	00375793          	srli	a5,a4,0x3
    807a:	b12d                	j	7ca4 <__subdf3+0x314>
    807c:	00c9e833          	or	a6,s3,a2
    8080:	d00806e3          	beqz	a6,7d8c <__subdf3+0x3fc>
    8084:	b119                	j	7c8a <__subdf3+0x2fa>
    8086:	fe058813          	addi	a6,a1,-32
    808a:	02000793          	li	a5,32
    808e:	010359b3          	srl	s3,t1,a6
    8092:	00f58a63          	beq	a1,a5,80a6 <__subdf3+0x716>
    8096:	04000793          	li	a5,64
    809a:	40b785b3          	sub	a1,a5,a1
    809e:	00b31333          	sll	t1,t1,a1
    80a2:	006f6f33          	or	t5,t5,t1
    80a6:	01e03833          	snez	a6,t5
    80aa:	01386833          	or	a6,a6,s3
    80ae:	b33d                	j	7ddc <__subdf3+0x44c>
    80b0:	4401                	li	s0,0
    80b2:	7ff00713          	li	a4,2047
    80b6:	000807b7          	lui	a5,0x80
    80ba:	bc2d                	j	7af4 <__subdf3+0x164>
    80bc:	01df09b3          	add	s3,t5,t4
    80c0:	00e307b3          	add	a5,t1,a4
    80c4:	01d9beb3          	sltu	t4,s3,t4
    80c8:	01d78633          	add	a2,a5,t4
    80cc:	bb69                	j	7e66 <__subdf3+0x4d6>

000080ce <__unorddf2>:
    80ce:	0145d713          	srli	a4,a1,0x14
    80d2:	001007b7          	lui	a5,0x100
    80d6:	17fd                	addi	a5,a5,-1
    80d8:	fff74713          	not	a4,a4
    80dc:	0146d813          	srli	a6,a3,0x14
    80e0:	8dfd                	and	a1,a1,a5
    80e2:	8ff5                	and	a5,a5,a3
    80e4:	01571693          	slli	a3,a4,0x15
    80e8:	7ff87813          	andi	a6,a6,2047
    80ec:	ca99                	beqz	a3,8102 <__unorddf2+0x34>
    80ee:	7ff00713          	li	a4,2047
    80f2:	4501                	li	a0,0
    80f4:	00e80363          	beq	a6,a4,80fa <__unorddf2+0x2c>
    80f8:	8082                	ret
    80fa:	8fd1                	or	a5,a5,a2
    80fc:	00f03533          	snez	a0,a5
    8100:	8082                	ret
    8102:	8dc9                	or	a1,a1,a0
    8104:	4505                	li	a0,1
    8106:	d5e5                	beqz	a1,80ee <__unorddf2+0x20>
    8108:	8082                	ret

0000810a <__fixdfsi>:
    810a:	0145d793          	srli	a5,a1,0x14
    810e:	001006b7          	lui	a3,0x100
    8112:	fff68713          	addi	a4,a3,-1 # fffff <_data_lma+0xf6bfb>
    8116:	7ff7f793          	andi	a5,a5,2047
    811a:	3fe00613          	li	a2,1022
    811e:	8f6d                	and	a4,a4,a1
    8120:	81fd                	srli	a1,a1,0x1f
    8122:	00f65c63          	bge	a2,a5,813a <__fixdfsi+0x30>
    8126:	41d00613          	li	a2,1053
    812a:	00f65a63          	bge	a2,a5,813e <__fixdfsi+0x34>
    812e:	80000537          	lui	a0,0x80000
    8132:	fff54513          	not	a0,a0
    8136:	952e                	add	a0,a0,a1
    8138:	8082                	ret
    813a:	4501                	li	a0,0
    813c:	8082                	ret
    813e:	43300613          	li	a2,1075
    8142:	8e1d                	sub	a2,a2,a5
    8144:	487d                	li	a6,31
    8146:	8f55                	or	a4,a4,a3
    8148:	00c85d63          	bge	a6,a2,8162 <__fixdfsi+0x58>
    814c:	41300693          	li	a3,1043
    8150:	40f687b3          	sub	a5,a3,a5
    8154:	00f757b3          	srl	a5,a4,a5
    8158:	40f00533          	neg	a0,a5
    815c:	f1e5                	bnez	a1,813c <__fixdfsi+0x32>
    815e:	853e                	mv	a0,a5
    8160:	8082                	ret
    8162:	bed78793          	addi	a5,a5,-1043 # ffbed <_data_lma+0xf67e9>
    8166:	00f717b3          	sll	a5,a4,a5
    816a:	00c55533          	srl	a0,a0,a2
    816e:	8fc9                	or	a5,a5,a0
    8170:	b7e5                	j	8158 <__fixdfsi+0x4e>

00008172 <__floatsidf>:
    8172:	1141                	addi	sp,sp,-16
    8174:	c606                	sw	ra,12(sp)
    8176:	c422                	sw	s0,8(sp)
    8178:	c226                	sw	s1,4(sp)
    817a:	cd0d                	beqz	a0,81b4 <__floatsidf+0x42>
    817c:	41f55793          	srai	a5,a0,0x1f
    8180:	00a7c4b3          	xor	s1,a5,a0
    8184:	8c9d                	sub	s1,s1,a5
    8186:	842a                	mv	s0,a0
    8188:	8526                	mv	a0,s1
    818a:	c90fc0ef          	jal	ra,461a <__clzsi2>
    818e:	41e00693          	li	a3,1054
    8192:	8e89                	sub	a3,a3,a0
    8194:	47a9                	li	a5,10
    8196:	807d                	srli	s0,s0,0x1f
    8198:	7ff6f693          	andi	a3,a3,2047
    819c:	02a7cd63          	blt	a5,a0,81d6 <__floatsidf+0x64>
    81a0:	472d                	li	a4,11
    81a2:	8f09                	sub	a4,a4,a0
    81a4:	00e4d7b3          	srl	a5,s1,a4
    81a8:	0555                	addi	a0,a0,21
    81aa:	07b2                	slli	a5,a5,0xc
    81ac:	00a494b3          	sll	s1,s1,a0
    81b0:	83b1                	srli	a5,a5,0xc
    81b2:	a029                	j	81bc <__floatsidf+0x4a>
    81b4:	4401                	li	s0,0
    81b6:	4681                	li	a3,0
    81b8:	4781                	li	a5,0
    81ba:	4481                	li	s1,0
    81bc:	07b2                	slli	a5,a5,0xc
    81be:	06d2                	slli	a3,a3,0x14
    81c0:	83b1                	srli	a5,a5,0xc
    81c2:	047e                	slli	s0,s0,0x1f
    81c4:	8fd5                	or	a5,a5,a3
    81c6:	8fc1                	or	a5,a5,s0
    81c8:	40b2                	lw	ra,12(sp)
    81ca:	4422                	lw	s0,8(sp)
    81cc:	8526                	mv	a0,s1
    81ce:	85be                	mv	a1,a5
    81d0:	4492                	lw	s1,4(sp)
    81d2:	0141                	addi	sp,sp,16
    81d4:	8082                	ret
    81d6:	1555                	addi	a0,a0,-11
    81d8:	00a497b3          	sll	a5,s1,a0
    81dc:	07b2                	slli	a5,a5,0xc
    81de:	83b1                	srli	a5,a5,0xc
    81e0:	4481                	li	s1,0
    81e2:	bfe9                	j	81bc <__floatsidf+0x4a>

000081e4 <__trunctfdf2>:
    81e4:	00c52803          	lw	a6,12(a0) # 8000000c <_eusrstack+0x5fff800c>
    81e8:	4118                	lw	a4,0(a0)
    81ea:	4154                	lw	a3,4(a0)
    81ec:	450c                	lw	a1,8(a0)
    81ee:	6521                	lui	a0,0x8
    81f0:	fff50793          	addi	a5,a0,-1 # 7fff <__subdf3+0x66f>
    81f4:	01085613          	srli	a2,a6,0x10
    81f8:	00359e13          	slli	t3,a1,0x3
    81fc:	8e7d                	and	a2,a2,a5
    81fe:	01d75893          	srli	a7,a4,0x1d
    8202:	01d6d793          	srli	a5,a3,0x1d
    8206:	01081313          	slli	t1,a6,0x10
    820a:	068e                	slli	a3,a3,0x3
    820c:	1141                	addi	sp,sp,-16
    820e:	01c7e7b3          	or	a5,a5,t3
    8212:	0116e6b3          	or	a3,a3,a7
    8216:	01035313          	srli	t1,t1,0x10
    821a:	00371e13          	slli	t3,a4,0x3
    821e:	00160893          	addi	a7,a2,1 # ff800001 <_eusrstack+0xdf7f8001>
    8222:	1579                	addi	a0,a0,-2
    8224:	81f5                	srli	a1,a1,0x1d
    8226:	030e                	slli	t1,t1,0x3
    8228:	c43e                	sw	a5,8(sp)
    822a:	c236                	sw	a3,4(sp)
    822c:	c072                	sw	t3,0(sp)
    822e:	00a8f533          	and	a0,a7,a0
    8232:	01f85813          	srli	a6,a6,0x1f
    8236:	0065e5b3          	or	a1,a1,t1
    823a:	c905                	beqz	a0,826a <__trunctfdf2+0x86>
    823c:	7771                	lui	a4,0xffffc
    823e:	40070713          	addi	a4,a4,1024 # ffffc400 <_eusrstack+0xdfff4400>
    8242:	963a                	add	a2,a2,a4
    8244:	7fe00713          	li	a4,2046
    8248:	04c75d63          	bge	a4,a2,82a2 <__trunctfdf2+0xbe>
    824c:	7ff00613          	li	a2,2047
    8250:	4701                	li	a4,0
    8252:	4781                	li	a5,0
    8254:	0732                	slli	a4,a4,0xc
    8256:	0652                	slli	a2,a2,0x14
    8258:	8331                	srli	a4,a4,0xc
    825a:	087e                	slli	a6,a6,0x1f
    825c:	8f51                	or	a4,a4,a2
    825e:	01076733          	or	a4,a4,a6
    8262:	853e                	mv	a0,a5
    8264:	85ba                	mv	a1,a4
    8266:	0141                	addi	sp,sp,16
    8268:	8082                	ret
    826a:	8fd5                	or	a5,a5,a3
    826c:	8fcd                	or	a5,a5,a1
    826e:	01c7e7b3          	or	a5,a5,t3
    8272:	e205                	bnez	a2,8292 <__trunctfdf2+0xae>
    8274:	cbf1                	beqz	a5,8348 <__trunctfdf2+0x164>
    8276:	4781                	li	a5,0
    8278:	4695                	li	a3,5
    827a:	0036d593          	srli	a1,a3,0x3
    827e:	00979713          	slli	a4,a5,0x9
    8282:	01d79693          	slli	a3,a5,0x1d
    8286:	00b6e7b3          	or	a5,a3,a1
    828a:	8331                	srli	a4,a4,0xc
    828c:	7ff67613          	andi	a2,a2,2047
    8290:	b7d1                	j	8254 <__trunctfdf2+0x70>
    8292:	dfcd                	beqz	a5,824c <__trunctfdf2+0x68>
    8294:	4801                	li	a6,0
    8296:	7ff00613          	li	a2,2047
    829a:	00080737          	lui	a4,0x80
    829e:	4781                	li	a5,0
    82a0:	bf55                	j	8254 <__trunctfdf2+0x70>
    82a2:	0ac04663          	bgtz	a2,834e <__trunctfdf2+0x16a>
    82a6:	fcc00793          	li	a5,-52
    82aa:	0ef64f63          	blt	a2,a5,83a8 <__trunctfdf2+0x1c4>
    82ae:	03d00793          	li	a5,61
    82b2:	40c78633          	sub	a2,a5,a2
    82b6:	40565793          	srai	a5,a2,0x5
    82ba:	00080737          	lui	a4,0x80
    82be:	8dd9                	or	a1,a1,a4
    82c0:	00279513          	slli	a0,a5,0x2
    82c4:	870a                	mv	a4,sp
    82c6:	4681                	li	a3,0
    82c8:	c62e                	sw	a1,12(sp)
    82ca:	00a108b3          	add	a7,sp,a0
    82ce:	0711                	addi	a4,a4,4
    82d0:	8a7d                	andi	a2,a2,31
    82d2:	01c6e6b3          	or	a3,a3,t3
    82d6:	01170963          	beq	a4,a7,82e8 <__trunctfdf2+0x104>
    82da:	00072e03          	lw	t3,0(a4) # 80000 <_data_lma+0x76bfc>
    82de:	0711                	addi	a4,a4,4
    82e0:	01c6e6b3          	or	a3,a3,t3
    82e4:	ff171be3          	bne	a4,a7,82da <__trunctfdf2+0xf6>
    82e8:	470d                	li	a4,3
    82ea:	8f1d                	sub	a4,a4,a5
    82ec:	ca79                	beqz	a2,83c2 <__trunctfdf2+0x1de>
    82ee:	01010893          	addi	a7,sp,16
    82f2:	98aa                	add	a7,a7,a0
    82f4:	ff08a883          	lw	a7,-16(a7) # fff0 <_data_lma+0x6bec>
    82f8:	02000e13          	li	t3,32
    82fc:	40ce0e33          	sub	t3,t3,a2
    8300:	01c898b3          	sll	a7,a7,t3
    8304:	0116e6b3          	or	a3,a3,a7
    8308:	cb75                	beqz	a4,83fc <__trunctfdf2+0x218>
    830a:	070a                	slli	a4,a4,0x2
    830c:	950a                	add	a0,a0,sp
    830e:	00e10eb3          	add	t4,sp,a4
    8312:	888a                	mv	a7,sp
    8314:	410c                	lw	a1,0(a0)
    8316:	00452303          	lw	t1,4(a0)
    831a:	0891                	addi	a7,a7,4
    831c:	00c5d5b3          	srl	a1,a1,a2
    8320:	01c31333          	sll	t1,t1,t3
    8324:	0065e5b3          	or	a1,a1,t1
    8328:	feb8ae23          	sw	a1,-4(a7)
    832c:	0511                	addi	a0,a0,4
    832e:	ff1e93e3          	bne	t4,a7,8314 <__trunctfdf2+0x130>
    8332:	4591                	li	a1,4
    8334:	40f587b3          	sub	a5,a1,a5
    8338:	45b2                	lw	a1,12(sp)
    833a:	0808                	addi	a0,sp,16
    833c:	972a                	add	a4,a4,a0
    833e:	00c5d5b3          	srl	a1,a1,a2
    8342:	feb72823          	sw	a1,-16(a4)
    8346:	a861                	j	83de <__trunctfdf2+0x1fa>
    8348:	4601                	li	a2,0
    834a:	4701                	li	a4,0
    834c:	b721                	j	8254 <__trunctfdf2+0x70>
    834e:	00469713          	slli	a4,a3,0x4
    8352:	00479513          	slli	a0,a5,0x4
    8356:	01c76733          	or	a4,a4,t3
    835a:	82f1                	srli	a3,a3,0x1c
    835c:	83f1                	srli	a5,a5,0x1c
    835e:	0592                	slli	a1,a1,0x4
    8360:	00e03733          	snez	a4,a4
    8364:	8ec9                	or	a3,a3,a0
    8366:	8fcd                	or	a5,a5,a1
    8368:	8ed9                	or	a3,a3,a4
    836a:	0076f713          	andi	a4,a3,7
    836e:	c711                	beqz	a4,837a <__trunctfdf2+0x196>
    8370:	00f6f713          	andi	a4,a3,15
    8374:	4591                	li	a1,4
    8376:	02b71c63          	bne	a4,a1,83ae <__trunctfdf2+0x1ca>
    837a:	00800737          	lui	a4,0x800
    837e:	8f7d                	and	a4,a4,a5
    8380:	ee070de3          	beqz	a4,827a <__trunctfdf2+0x96>
    8384:	0605                	addi	a2,a2,1
    8386:	7ff00713          	li	a4,2047
    838a:	ece601e3          	beq	a2,a4,824c <__trunctfdf2+0x68>
    838e:	ff800737          	lui	a4,0xff800
    8392:	177d                	addi	a4,a4,-1
    8394:	8f7d                	and	a4,a4,a5
    8396:	01d71793          	slli	a5,a4,0x1d
    839a:	828d                	srli	a3,a3,0x3
    839c:	0726                	slli	a4,a4,0x9
    839e:	7ff67613          	andi	a2,a2,2047
    83a2:	8fd5                	or	a5,a5,a3
    83a4:	8331                	srli	a4,a4,0xc
    83a6:	b57d                	j	8254 <__trunctfdf2+0x70>
    83a8:	4685                	li	a3,1
    83aa:	4781                	li	a5,0
    83ac:	4601                	li	a2,0
    83ae:	ffc6b713          	sltiu	a4,a3,-4
    83b2:	00174713          	xori	a4,a4,1
    83b6:	97ba                	add	a5,a5,a4
    83b8:	00800737          	lui	a4,0x800
    83bc:	0691                	addi	a3,a3,4
    83be:	8f7d                	and	a4,a4,a5
    83c0:	b7c1                	j	8380 <__trunctfdf2+0x19c>
    83c2:	858a                	mv	a1,sp
    83c4:	00a588b3          	add	a7,a1,a0
    83c8:	0008a883          	lw	a7,0(a7)
    83cc:	0591                	addi	a1,a1,4
    83ce:	0605                	addi	a2,a2,1
    83d0:	ff15ae23          	sw	a7,-4(a1)
    83d4:	fec758e3          	bge	a4,a2,83c4 <__trunctfdf2+0x1e0>
    83d8:	4711                	li	a4,4
    83da:	40f707b3          	sub	a5,a4,a5
    83de:	078a                	slli	a5,a5,0x2
    83e0:	978a                	add	a5,a5,sp
    83e2:	0818                	addi	a4,sp,16
    83e4:	0007a023          	sw	zero,0(a5)
    83e8:	0791                	addi	a5,a5,4
    83ea:	fee79de3          	bne	a5,a4,83e4 <__trunctfdf2+0x200>
    83ee:	4702                	lw	a4,0(sp)
    83f0:	00d036b3          	snez	a3,a3
    83f4:	4792                	lw	a5,4(sp)
    83f6:	8ed9                	or	a3,a3,a4
    83f8:	4601                	li	a2,0
    83fa:	bf85                	j	836a <__trunctfdf2+0x186>
    83fc:	4785                	li	a5,1
    83fe:	4701                	li	a4,0
    8400:	bf2d                	j	833a <__trunctfdf2+0x156>

00008402 <_sbrk>:
    8402:	83018793          	addi	a5,gp,-2000 # 20000b58 <heap_end.1518>
    8406:	439c                	lw	a5,0(a5)
    8408:	c791                	beqz	a5,8414 <_sbrk+0x12>
    840a:	953e                	add	a0,a0,a5
    840c:	82a1a823          	sw	a0,-2000(gp) # 20000b58 <heap_end.1518>
    8410:	853e                	mv	a0,a5
    8412:	8082                	ret
    8414:	78418793          	addi	a5,gp,1924 # 20001aac <_ebss>
    8418:	953e                	add	a0,a0,a5
    841a:	82a1a823          	sw	a0,-2000(gp) # 20000b58 <heap_end.1518>
    841e:	853e                	mv	a0,a5
    8420:	8082                	ret
    8422:	0000                	unimp
    8424:	6145                	addi	sp,sp,48
    8426:	7372                	flw	ft6,60(sp)
    8428:	2065                	jal	84d0 <_sbrk+0xce>
    842a:	6572                	flw	fa0,28(sp)
    842c:	3a74                	fld	fa3,240(a2)
    842e:	6425                	lui	s0,0x9
    8430:	0000                	unimp
    8432:	0000                	unimp
    8434:	74697257          	0x74697257
    8438:	2065                	jal	84e0 <_sbrk+0xde>
    843a:	6572                	flw	fa0,28(sp)
    843c:	3a74                	fld	fa3,240(a2)
    843e:	6425                	lui	s0,0x9
    8440:	0000                	unimp
    8442:	0000                	unimp
    8444:	6556                	flw	fa0,84(sp)
    8446:	6972                	flw	fs2,28(sp)
    8448:	7966                	flw	fs2,120(sp)
    844a:	7220                	flw	fs0,96(a2)
    844c:	7465                	lui	s0,0xffff9
    844e:	253a                	fld	fa0,392(sp)
    8450:	0064                	addi	s1,sp,12
    8452:	0000                	unimp
    8454:	6e72656b          	0x6e72656b
    8458:	6c61                	lui	s8,0x18
    845a:	3d3d                	jal	8298 <__trunctfdf2+0xb4>
    845c:	443e                	lw	s0,204(sp)
    845e:	7365                	lui	t1,0xffff9
    8460:	6f74                	flw	fa3,92(a4)
    8462:	7972                	flw	fs2,60(sp)
    8464:	5b20                	lw	s0,112(a4)
    8466:	6425                	lui	s0,0x9
    8468:	005d                	c.nop	23
    846a:	0000                	unimp
    846c:	6e72656b          	0x6e72656b
    8470:	6c61                	lui	s8,0x18
    8472:	3d3d                	jal	82b0 <__trunctfdf2+0xcc>
    8474:	433e                	lw	t1,204(sp)
    8476:	6572                	flw	fa0,28(sp)
    8478:	7461                	lui	s0,0xffff8
    847a:	2065                	jal	8522 <_sbrk+0x120>
    847c:	6548                	flw	fa0,12(a0)
    847e:	6461                	lui	s0,0x18
    8480:	5b20                	lw	s0,112(a4)
    8482:	6425                	lui	s0,0x9
    8484:	005d                	c.nop	23
    8486:	0000                	unimp
    8488:	6e72656b          	0x6e72656b
    848c:	6c61                	lui	s8,0x18
    848e:	3d3d                	jal	82cc <__trunctfdf2+0xe8>
    8490:	433e                	lw	t1,204(sp)
    8492:	6572                	flw	fa0,28(sp)
    8494:	7461                	lui	s0,0xffff8
    8496:	2065                	jal	853e <_sbrk+0x13c>
    8498:	6146                	flw	ft2,80(sp)
    849a:	6c69                	lui	s8,0x1a
    849c:	0000                	unimp
    849e:	0000                	unimp
    84a0:	6e72656b          	0x6e72656b
    84a4:	6c61                	lui	s8,0x18
    84a6:	3d3d                	jal	82e4 <__trunctfdf2+0x100>
    84a8:	433e                	lw	t1,204(sp)
    84aa:	6572                	flw	fa0,28(sp)
    84ac:	7461                	lui	s0,0xffff8
    84ae:	2065                	jal	8556 <cmdtable+0xe>
    84b0:	6f4e                	flw	ft10,208(sp)
    84b2:	6564                	flw	fs1,76(a0)
    84b4:	5b20                	lw	s0,112(a4)
    84b6:	6425                	lui	s0,0x9
    84b8:	005d                	c.nop	23
    84ba:	0000                	unimp
    84bc:	6e72656b          	0x6e72656b
    84c0:	6c61                	lui	s8,0x18
    84c2:	3d3d                	jal	8300 <__trunctfdf2+0x11c>
    84c4:	6e3e                	flw	ft8,204(sp)
    84c6:	7073206f          	j	3b3cc <_data_lma+0x31fc8>
    84ca:	6361                	lui	t1,0x18
    84cc:	0065                	c.nop	25
    84ce:	0000                	unimp
    84d0:	6e72656b          	0x6e72656b
    84d4:	6c61                	lui	s8,0x18
    84d6:	3d3d                	jal	8314 <__trunctfdf2+0x130>
    84d8:	533e                	lw	t1,236(sp)
    84da:	6f74                	flw	fa3,92(a4)
    84dc:	2070                	fld	fa2,192(s0)
    84de:	5d64255b          	0x5d64255b
    84e2:	0000                	unimp
    84e4:	6f42                	flw	ft10,16(sp)
    84e6:	6f6c746f          	jal	s0,cfbdc <_data_lma+0xc67d8>
    84ea:	6461                	lui	s0,0x18
    84ec:	7265                	lui	tp,0xffff9
    84ee:	4420                	lw	s0,72(s0)
    84f0:	00656e6f          	jal	t3,5e4f6 <_data_lma+0x550f2>
    84f4:	8d9e                	mv	s11,t2
    84f6:	ffff                	0xffff
    84f8:	8dbc                	0x8dbc
    84fa:	ffff                	0xffff
    84fc:	8e12                	mv	t3,tp
    84fe:	ffff                	0xffff
    8500:	8e46                	mv	t3,a7
    8502:	ffff                	0xffff
    8504:	8e68                	0x8e68
    8506:	ffff                	0xffff
    8508:	8fbc                	0x8fbc
    850a:	ffff                	0xffff
    850c:	8fdc                	0x8fdc
    850e:	ffff                	0xffff
    8510:	948a                	add	s1,s1,sp
    8512:	ffff                	0xffff
    8514:	94a8                	0x94a8
    8516:	ffff                	0xffff
    8518:	94ce                	add	s1,s1,s3
    851a:	ffff                	0xffff
    851c:	9544                	0x9544
    851e:	ffff                	0xffff
    8520:	9544                	0x9544
    8522:	ffff                	0xffff
    8524:	966e                	add	a2,a2,s11
    8526:	ffff                	0xffff
    8528:	966e                	add	a2,a2,s11
    852a:	ffff                	0xffff
    852c:	966e                	add	a2,a2,s11
    852e:	ffff                	0xffff
    8530:	966e                	add	a2,a2,s11
    8532:	ffff                	0xffff
    8534:	966e                	add	a2,a2,s11
    8536:	ffff                	0xffff
    8538:	966e                	add	a2,a2,s11
    853a:	ffff                	0xffff
    853c:	966e                	add	a2,a2,s11
    853e:	ffff                	0xffff
    8540:	966e                	add	a2,a2,s11
    8542:	ffff                	0xffff
    8544:	9694                	0x9694
    8546:	ffff                	0xffff

00008548 <cmdtable>:
    8548:	0001 0000 8808 0000 0002 0000 8810 0000     ................
    8558:	0003 0000 8818 0000 0004 0000 8820 0000     ............ ...
    8568:	0005 0000 882c 0000 0006 0000 8838 0000     ....,.......8...
    8578:	0007 0000 8844 0000 0008 0000 8850 0000     ....D.......P...
    8588:	0009 0000 885c 0000 000a 0000 8868 0000     ....\.......h...
    8598:	000b 0000 8874 0000 000c 0000 887c 0000     ....t.......|...
    85a8:	000d 0000 8888 0000 000e 0000 8894 0000     ................
    85b8:	000f 0000 88a0 0000 0010 0000 88ac 0000     ................
    85c8:	0011 0000 88b8 0000 0012 0000 88c4 0000     ................
    85d8:	0013 0000 88d0 0000 0014 0000 88dc 0000     ................
    85e8:	0015 0000 88e8 0000 0016 0000 88f0 0000     ................
    85f8:	0017 0000 88fc 0000 0018 0000 8908 0000     ................
    8608:	0019 0000 8914 0000 001a 0000 891c 0000     ................
    8618:	001b 0000 8930 0000 001c 0000 8944 0000     ....0.......D...
    8628:	001d 0000 8954 0000 001e 0000 895c 0000     ....T.......\...
    8638:	001f 0000 8968 0000 4d2b 5049 504f 4e45     ....h...+MIPOPEN
    8648:	003a 0000 4d2b 5049 5255 3a43 0000 0000     :...+MIPURC:....
    8658:	7472 7063 0000 0000 4354 2050 4552 5643     rtcp....TCP RECV
    8668:	2820 6425 5b29 6425 3a5d 7325 0000 0000      (%d)[%d]:%s....
    8678:	6964 6373 6e6f 006e 6f53 6b63 7465 255b     disconn.Socket[%
    8688:	5d64 6320 6f6c 6573 0000 0000 0031 0000     d] close....1...
    8698:	6f6d 7564 656c 6f50 6577 4f72 6666 0000     modulePowerOff..
    86a8:	6f6d 7564 656c 6f50 6577 4f72 006e 0000     modulePowerOn...
    86b8:	6f50 6577 4f72 206e 6f44 656e 0000 0000     PowerOn Done....
    86c8:	6155 7472 6552 7663 4620 6c75 216c 2121     UartRecv Full!!!
    86d8:	0000 0000 2d2d 3e2d 3e3e 2d2d 302d 2578     ....--->>>---0x%
    86e8:	2058 255b 5d64 0000 2d2d 3c2d 3c3c 2d2d     X [%d]..---<<<--
    86f8:	002d 0000 4d2b 5049 4143 4c4c 003a 0000     -...+MIPCALL:...
    8708:	432b 4950 3a4e 5220 4145 5944 0000 0000     +CPIN: READY....
    8718:	432b 5153 003a 0000 432b 5247 4745 003a     +CSQ:...+CGREG:.
    8728:	432b 5245 4745 003a 414c 3d43 7325 302c     +CEREG:.LAC=%s,0
    8738:	2578 0058 4943 3d44 7325 302c 2578 0058     x%X.CID=%s,0x%X.
    8748:	432b 4147 5454 003a 6f6d 7564 656c 6552     +CGATT:.moduleRe
    8758:	6573 0074 2c31 4922 2250 222c 7325 0022     set.1,"IP","%s".
    8768:	2c31 2c31 7325 252c 0073 0000 003f 0000     1,1,%s,%s...?...
    8778:	0032 0000 0030 0000 6552 6967 7473 7265     2...0...Register
    8788:	7420 6d69 6f65 7475 742c 7972 7420 206f      timeout,try to 
    8798:	6b73 7069 0a0d 0000 2c31 0031 7274 2079     skip....1,1.try 
    87a8:	4951 4150 5443 6120 6167 6e69 0000 0000     QIPACT again....
    87b8:	6425 222c 4354 2250 222c 7325 2c22 6425     %d,"TCP","%s",%d
    87c8:	362c 2c30 2c30 0030 7325 0d3f 000a 0000     ,60,0,0.%s?.....
    87d8:	7325 253d 0d73 000a 7325 0a0d 0000 0000     %s=%s...%s......
    87e8:	6573 646e 6f4d 7564 656c 6d43 3d64 3e3d     sendModuleCmd==>
    87f8:	6f4e 6320 646d 0000 6425 252c 0064 0000     No cmd..%d,%d...
    8808:	5441 3045 0000 0000 5441 432b 4950 004e     ATE0....AT+CPIN.
    8818:	5441 432b 5153 0000 5441 432b 5247 4745     AT+CSQ..AT+CGREG
    8828:	0000 0000 5441 432b 5245 4745 0000 0000     ....AT+CEREG....
    8838:	5441 512b 4349 4753 0050 0000 5441 512b     AT+QICSGP...AT+Q
    8848:	4149 5443 0000 0000 5441 512b 4f49 4550     IACT....AT+QIOPE
    8858:	004e 0000 5441 512b 5349 4e45 0044 0000     N...AT+QISEND...
    8868:	5441 512b 4353 4b4c 0000 0000 5441 432b     AT+QSCLK....AT+C
    8878:	5546 004e 5441 512b 4349 4f4c 4553 0000     FUN.AT+QICLOSE..
    8888:	5441 432b 4447 4f43 544e 0000 5441 432b     AT+CGDCONT..AT+C
    8898:	4147 5454 0000 0000 5441 432b 4147 5443     GATT....AT+CGACT
    88a8:	0000 0000 5441 4d2b 5049 504f 4e45 0000     ....AT+MIPOPEN..
    88b8:	5441 4d2b 5049 4c43 534f 0045 5441 4d2b     AT+MIPCLOSE.AT+M
    88c8:	5049 4553 444e 0000 5441 4d2b 5049 4452     IPSEND..AT+MIPRD
    88d8:	0000 0000 5441 4d2b 5049 4153 4b43 0000     ....AT+MIPSACK..
    88e8:	5441 4d2b 4441 0043 5441 4d2b 504c 434d     AT+MADC.AT+MLPMC
    88f8:	4746 0000 5441 4d2b 424c 4353 4746 0000     FG..AT+MLBSCFG..
    8908:	5441 4d2b 424c 4c53 434f 0000 5441 432b     AT+MLBSLOC..AT+C
    8918:	474d 004c 5441 4d2b 4957 4946 4353 4e41     MGL.AT+MWIFISCAN
    8928:	5453 5241 0054 0000 5441 4d2b 4957 4946     START...AT+MWIFI
    8938:	4353 4e41 5453 504f 0000 0000 5441 4d2b     SCANSTOP....AT+M
    8948:	4843 5049 4e49 4f46 0000 0000 5441 4d2b     CHIPINFO....AT+M
    8958:	4643 0047 5441 412a 5455 5248 7165 0000     CFG.AT*AUTHReq..
    8968:	5441 4d2b 5049 4143 4c4c 0000 6d63 656e     AT+MIPCALL..cmne
    8978:	0074 0000 3734 312e 3630 382e 2e31 3032     t...47.106.81.20
    8988:	0034 0000 3838 3838 3838 3838 3737 3737     4...888888887777
    8998:	3737 0000 4843 3735 5f33 304d 5f39 4f42     77..CH573_M09_BO
    89a8:	544f 0000 6150 6172 206d 6544 6966 746e     OT..Param Defint
    89b8:	0000 0000 7973 7473 6d65 7220 7365 7465     ....system reset
    89c8:	0000 0000 704f 6e65 7520 7261 2574 3d64     ....Open uart%d=
    89d8:	3e3d 6425 0000 0000 6544 656c 6574 7320     =>%d....Delete s
    89e8:	636f 656b 5b74 6425 005d 0000 6f53 6b63     ocket[%d]...Sock
    89f8:	7465 255b 5d64 6320 6e6f 656e 7463 7320     et[%d] connect s
    8a08:	6375 6563 7373 0000 6f53 6b63 7465 255b     uccess..Socket[%
    8a18:	5d64 6f20 6570 206e 7265 6f72 0072 0000     d] open error...
    8a28:	6f53 6b63 7465 255b 5d64 6320 6e6f 656e     Socket[%d] conne
    8a38:	7463 7420 6d69 6f65 7475 0000 7274 2079     ct timeout..try 
    8a48:	6f74 6320 6e6f 656e 7463 5b20 6425 3a5d     to connect [%d]:
    8a58:	7325 0000 255b 3230 3a64 3025 6432 253a     %s..[%02d:%02d:%
    8a68:	3230 5d64 0020 0000 4b4f 0000 7449 6d65     02d] ...OK..Item
    8a78:	6320 746e 253d 0064                          cnt=%d.

00008a80 <ztvm_crctab16>:
    8a80:	0000 1189 2312 329b 4624 57ad 6536 74bf     .....#.2$F.W6e.t
    8a90:	8c48 9dc1 af5a bed3 ca6c dbe5 e97e f8f7     H...Z...l...~...
    8aa0:	1081 0108 3393 221a 56a5 472c 75b7 643e     .....3.".V,G.u>d
    8ab0:	9cc9 8d40 bfdb ae52 daed cb64 f9ff e876     ..@...R...d...v.
    8ac0:	2102 308b 0210 1399 6726 76af 4434 55bd     .!.0....&g.v4D.U
    8ad0:	ad4a bcc3 8e58 9fd1 eb6e fae7 c87c d9f5     J...X...n...|...
    8ae0:	3183 200a 1291 0318 77a7 662e 54b5 453c     .1. .....w.f.T<E
    8af0:	bdcb ac42 9ed9 8f50 fbef ea66 d8fd c974     ..B...P...f...t.
    8b00:	4204 538d 6116 709f 0420 15a9 2732 36bb     .B.S.a.p ...2'.6
    8b10:	ce4c dfc5 ed5e fcd7 8868 99e1 ab7a baf3     L...^...h...z...
    8b20:	5285 430c 7197 601e 14a1 0528 37b3 263a     .R.C.q.`..(..7:&
    8b30:	decd cf44 fddf ec56 98e9 8960 bbfb aa72     ..D...V...`...r.
    8b40:	6306 728f 4014 519d 2522 34ab 0630 17b9     .c.r.@.Q"%.40...
    8b50:	ef4e fec7 cc5c ddd5 a96a b8e3 8a78 9bf1     N...\...j...x...
    8b60:	7387 620e 5095 411c 35a3 242a 16b1 0738     .s.b.P.A.5*$..8.
    8b70:	ffcf ee46 dcdd cd54 b9eb a862 9af9 8b70     ..F...T...b...p.
    8b80:	8408 9581 a71a b693 c22c d3a5 e13e f0b7     ........,...>...
    8b90:	0840 19c9 2b52 3adb 4e64 5fed 6d76 7cff     @...R+.:dN._vm.|
    8ba0:	9489 8500 b79b a612 d2ad c324 f1bf e036     ..........$...6.
    8bb0:	18c1 0948 3bd3 2a5a 5ee5 4f6c 7df7 6c7e     ..H..;Z*.^lO.}~l
    8bc0:	a50a b483 8618 9791 e32e f2a7 c03c d1b5     ............<...
    8bd0:	2942 38cb 0a50 1bd9 6f66 7eef 4c74 5dfd     B).8P...fo.~tL.]
    8be0:	b58b a402 9699 8710 f3af e226 d0bd c134     ..........&...4.
    8bf0:	39c3 284a 1ad1 0b58 7fe7 6e6e 5cf5 4d7c     .9J(..X...nn.\|M
    8c00:	c60c d785 e51e f497 8028 91a1 a33a b2b3     ........(...:...
    8c10:	4a44 5bcd 6956 78df 0c60 1de9 2f72 3efb     DJ.[Vi.x`...r/.>
    8c20:	d68d c704 f59f e416 90a9 8120 b3bb a232     .......... ...2.
    8c30:	5ac5 4b4c 79d7 685e 1ce1 0d68 3ff3 2e7a     .ZLK.y^h..h..?z.
    8c40:	e70e f687 c41c d595 a12a b0a3 8238 93b1     ........*...8...
    8c50:	6b46 7acf 4854 59dd 2d62 3ceb 0e70 1ff9     Fk.zTH.Yb-.<p...
    8c60:	f78f e606 d49d c514 b1ab a022 92b9 8330     .........."...0.
    8c70:	7bc7 6a4e 58d5 495c 3de3 2c6a 1ef1 0f78     .{Nj.X\I.=j,..x.
    8c80:	a51c ffff a534 ffff a562 ffff a5a8 ffff     ....4...b.......
    8c90:	a5c0 ffff a5de ffff a624 ffff a648 ffff     ........$...H...
    8ca0:	0000 0000 0000 4059 c7b5 bcc2 c9b3 a6b9     ......Y@........
    8cb0:	0000 0000 6e53 7420 6f6f 6c20 6e6f 2067     ....Sn too long 
    8cc0:	6425 0000 796d 6576 7372 6f69 206e 6f74     %d..myversion to
    8cd0:	206f 6f6c 676e 2520 0064 0000 656e 7677     o long %d...newv
    8ce0:	7265 6973 6e6f 7420 6f6f 6c20 6e6f 2067     ersion too long 
    8cf0:	6425 0000 6946 656c 2520 3830 2c58 6f54     %d..File %08X,To
    8d00:	6174 206c 6973 657a 253d 2064 7942 6574     tal size=%d Byte
    8d10:	0073 0000 794d 5320 3a4e 255b 5d73 0000     s...My SN:[%s]..
    8d20:	794d 5620 7265 5b3a 7325 005d 654e 2077     My Ver:[%s].New 
    8d30:	6556 3a72 255b 5d73 0000 0000 7055 6164     Ver:[%s]....Upda
    8d40:	6574 6620 7269 776d 7261 2065 6f63 746e     te firmware cont
    8d50:	6e69 7475 0065 0000 6f4e 7520 6470 7461     inute...No updat
    8d60:	2065 6966 656c 0000 6552 6563 7669 2065     e file..Receive 
    8d70:	6874 2065 6173 656d 6620 7269 776d 7261     the same firmwar
    8d80:	0065 0000 6144 6174 7620 6c61 6469 7461     e...Data validat
    8d90:	6f69 206e 4b4f 572c 6972 7474 6e69 2e67     ion OK,Writting.
    8da0:	2e2e 0000 3e3e 3e3e 3e3e 3e3e 3e3e 4320     ....>>>>>>>>>> C
    8db0:	6d6f 6c70 7465 6465 7020 6f72 7267 7365     ompleted progres
    8dc0:	2073 2e25 6632 2525 3c20 3c3c 3c3c 3c3c     s %.2f%% <<<<<<<
    8dd0:	3c3c 0000 6552 6563 6976 2065 6f63 706d     <<..Recevie comp
    8de0:	656c 6574 2c20 7562 2074 6f74 6174 206c     lete ,but total 
    8df0:	6973 657a 6920 2073 6964 6666 7265 6e65     size is differen
    8e00:	2c74 6572 7274 2079 6761 6961 006e 0000     t,retry again...
    8e10:	7257 7469 6e69 2067 6966 6d72 6177 6572     Writing firmware
    8e20:	6520 7272 726f 6120 2074 7830 5825 0000      error at 0x%X..
    8e30:	6144 6174 7620 6c61 6469 7461 6f69 206e     Data validation 
    8e40:	6146 6c69 0000 0000 b4ce aad6 000a 0000     Fail............
    8e50:	7270 746f 636f 6c6f 6552 7663 6150 7372     protocolRecvPars
    8e60:	7265 453a 7272 726f 0000 0000 4354 2050     er:Error....TCP 
    8e70:	6553 646e 003a 0000 7473 7261 4a74 6d75     Send:...startJum
    8e80:	5470 416f 7070 2520 2064 2e2e 002e 0000     pToApp %d ......
    8e90:	754a 706d 7420 206f 7061 2070 6166 6c69     Jump to app fail
    8ea0:	0000 0000 7543 7272 6e65 2074 6556 7372     ....Current Vers
    8eb0:	6f69 3a6e 7325 0000 6157 7469 6974 676e     ion:%s..Waitting
    8ec0:	6620 7269 776d 7261 2065 6164 6174 2e2e      firmware data..
    8ed0:	002e 0000 6f44 6e77 6f6c 6461 6620 7269     ....Download fir
    8ee0:	776d 7261 2065 6f63 706d 656c 6574 0021     mware complete!.
    8ef0:	7257 7469 6974 676e 6620 7269 776d 7261     Writting firmwar
    8f00:	2065 7265 6f72 2c72 6572 7274 2e79 2e2e     e error,retry...
    8f10:	0000 0000 7075 7267 6461 2065 6573 7672     ....upgrade serv
    8f20:	7265 6320 6e6f 656e 7463 6620 6961 006c     er connect fail.
    8f30:	7075 7267 6461 2065 6261 726f 0074 0000     upgrade abort...
    8f40:	a61e ffff a646 ffff a66e ffff a686 ffff     ....F...n.......
    8f50:	a6a0 ffff a6b0 ffff a6d8 ffff a700 ffff     ................
    8f60:	a718 ffff a732 ffff ae2e ffff acb2 ffff     ....2...........
    8f70:	adc2 ffff adca ffff adc2 ffff ace2 ffff     ................
    8f80:	adc2 ffff adca ffff acb2 ffff acb2 ffff     ................
    8f90:	ace2 ffff adca ffff ae24 ffff ae24 ffff     ........$...$...
    8fa0:	ae24 ffff ace2 ffff b368 ffff b25e ffff     $.......h...^...
    8fb0:	b25e ffff b25c ffff b264 ffff b264 ffff     ^...\...d...d...
    8fc0:	b22a ffff b25c ffff b264 ffff b22a ffff     *...\...d...*...
    8fd0:	b264 ffff b25c ffff b354 ffff b354 ffff     d...\...T...T...
    8fe0:	b354 ffff b22a ffff                         T...*...

00008fe8 <__clz_tab>:
    8fe8:	0100 0202 0303 0303 0404 0404 0404 0404     ................
    8ff8:	0505 0505 0505 0505 0505 0505 0505 0505     ................
    9008:	0606 0606 0606 0606 0606 0606 0606 0606     ................
    9018:	0606 0606 0606 0606 0606 0606 0606 0606     ................
    9028:	0707 0707 0707 0707 0707 0707 0707 0707     ................
    9038:	0707 0707 0707 0707 0707 0707 0707 0707     ................
    9048:	0707 0707 0707 0707 0707 0707 0707 0707     ................
    9058:	0707 0707 0707 0707 0707 0707 0707 0707     ................
    9068:	0808 0808 0808 0808 0808 0808 0808 0808     ................
    9078:	0808 0808 0808 0808 0808 0808 0808 0808     ................
    9088:	0808 0808 0808 0808 0808 0808 0808 0808     ................
    9098:	0808 0808 0808 0808 0808 0808 0808 0808     ................
    90a8:	0808 0808 0808 0808 0808 0808 0808 0808     ................
    90b8:	0808 0808 0808 0808 0808 0808 0808 0808     ................
    90c8:	0808 0808 0808 0808 0808 0808 0808 0808     ................
    90d8:	0808 0808 0808 0808 0808 0808 0808 0808     ................
    90e8:	ffff ffff ffff 7fef 4e49 0046 6e69 0066     ........INF.inf.
    90f8:	414e 004e 616e 006e 3130 3332 3534 3736     NAN.nan.01234567
    9108:	3938 4241 4443 4645 0000 0000 3130 3332     89ABCDEF....0123
    9118:	3534 3736 3938 6261 6463 6665 0000 0000     456789abcdef....
    9128:	0000 0000 0000 3ff8 4361 636f 87a7 3fd2     .......?aCoc...?
    9138:	c8b3 8b60 8a28 3fc6 79fb 509f 4413 3fd3     ..`.(..?.y.P.D.?
    9148:	0000 0000 0000 3ff0 0000 0000 0000 4024     .......?......$@
    9158:	0000 0000 0000 401c 0000 0000 0000 4014     .......@.......@
    9168:	0000 0000 0000 3fe0 6e49 6966 696e 7974     .......?Infinity
    9178:	0000 0000 614e 004e                         ....NaN.

00009180 <__sf_fake_stderr>:
	...

000091a0 <__sf_fake_stdin>:
	...

000091c0 <__sf_fake_stdout>:
	...
    91e0:	0043 0000 4f50 4953 0058 0000 0000 0000     C...POSIX.......

000091f0 <__mprec_bigtens>:
    91f0:	8000 37e0 c379 4341 6e17 b505 b8b5 4693     ...7y.AC.n.....F
    9200:	f9f5 e93f 4f03 4d38 1d32 f930 7748 5a82     ..?..O8M2.0.Hw.Z
    9210:	bf3c 7f73 4fdd 7515                         <.s..O.u

00009218 <__mprec_tens>:
    9218:	0000 0000 0000 3ff0 0000 0000 0000 4024     .......?......$@
    9228:	0000 0000 0000 4059 0000 0000 4000 408f     ......Y@.....@.@
    9238:	0000 0000 8800 40c3 0000 0000 6a00 40f8     .......@.....j.@
    9248:	0000 0000 8480 412e 0000 0000 12d0 4163     .......A......cA
    9258:	0000 0000 d784 4197 0000 0000 cd65 41cd     .......A....e..A
    9268:	0000 2000 a05f 4202 0000 e800 4876 4237     ... _..B....vH7B
    9278:	0000 a200 1a94 426d 0000 e540 309c 42a2     ......mB..@..0.B
    9288:	0000 1e90 bcc4 42d6 0000 2634 6bf5 430c     .......B..4&.k.C
    9298:	8000 37e0 c379 4341 a000 85d8 3457 4376     ...7y.AC....W4vC
    92a8:	c800 674e c16d 43ab 3d00 6091 58e4 43e1     ..Ngm..C.=.`.X.C
    92b8:	8c40 78b5 af1d 4415 ef50 d6e2 1ae4 444b     @..x...DP.....KD
    92c8:	d592 064d f0cf 4480 4af6 c7e1 2d02 44b5     ..M....D.J...-.D
    92d8:	9db4 79d9 7843 44ea                         ...yCx.D

000092e0 <p05.3319>:
    92e0:	0005 0000 0019 0000 007d 0000 2d23 2b30     ........}...#-0+
    92f0:	0020 0000 6c68 004c 6665 4567 4746 0000      ...hlL.efgEFG..

00009300 <_ctype_>:
    9300:	2000 2020 2020 2020 2020 2828 2828 2028     .         ((((( 
    9310:	2020 2020 2020 2020 2020 2020 2020 2020                     
    9320:	8820 1010 1010 1010 1010 1010 1010 1010      ...............
    9330:	0410 0404 0404 0404 0404 1004 1010 1010     ................
    9340:	1010 4141 4141 4141 0101 0101 0101 0101     ..AAAAAA........
    9350:	0101 0101 0101 0101 0101 0101 1010 1010     ................
    9360:	1010 4242 4242 4242 0202 0202 0202 0202     ..BBBBBB........
    9370:	0202 0202 0202 0202 0202 0202 1010 1010     ................
    9380:	0020 0000 0000 0000 0000 0000 0000 0000      ...............
	...
